

Microchip MPLAB XC8 Assembler V2.31 build 20201012212115 
                                                                                               Tue Nov 09 14:27:38 2021

Microchip MPLAB XC8 C Compiler v2.31 (Free license) build 20201012212115 Og1 
     1                           	processor	18F26Q84
     2                           	fnconf	rparam,??,?,0
     3                           	pagewidth 120
     4                           	opt	flic
     5                           	psect	idataCOMRAM,global,class=CODE,delta=1,noexec
     6                           	psect	smallconst,global,reloc=2,class=SMALLCONST,delta=1,noexec
     7                           	psect	nvCOMRAM,global,class=COMRAM,space=1,delta=1,lowdata,noexec
     8                           	psect	cinit,global,reloc=2,class=CODE,delta=1
     9                           	psect	bssCOMRAM,global,class=COMRAM,space=1,delta=1,lowdata,noexec
    10                           	psect	dataCOMRAM,global,class=COMRAM,space=1,delta=1,lowdata,noexec
    11                           	psect	cstackCOMRAM,global,class=COMRAM,space=1,delta=1,lowdata,noexec
    12                           	psect	text0,global,reloc=2,class=CODE,delta=1
    13                           	psect	text1,global,reloc=2,class=CODE,delta=1
    14                           	psect	text2,global,reloc=2,class=CODE,delta=1
    15                           	psect	text3,global,reloc=2,class=CODE,delta=1
    16                           	psect	text4,global,reloc=2,class=CODE,delta=1
    17                           	psect	text5,global,reloc=2,class=CODE,delta=1
    18                           	psect	text6,global,reloc=2,class=CODE,delta=1
    19                           	psect	text7,global,reloc=2,class=CODE,delta=1
    20                           	psect	text8,global,reloc=2,class=CODE,delta=1
    21                           	psect	text9,global,reloc=2,class=CODE,delta=1
    22                           	psect	text10,global,reloc=2,class=CODE,delta=1
    23                           	psect	text11,global,reloc=2,class=CODE,delta=1
    24                           	psect	text12,global,reloc=2,class=CODE,delta=1
    25                           	psect	text13,global,reloc=2,class=CODE,delta=1
    26                           	psect	text14,global,reloc=2,class=CODE,delta=1
    27                           	psect	text15,global,reloc=2,class=CODE,delta=1
    28                           	psect	text16,global,reloc=2,class=CODE,delta=1
    29                           	psect	text17,global,reloc=2,class=CODE,delta=1
    30                           	psect	text18,global,reloc=2,class=CODE,delta=1
    31                           	psect	text19,global,reloc=2,class=CODE,delta=1
    32                           	psect	text20,global,reloc=2,class=CODE,delta=1
    33                           	psect	text21,global,reloc=2,class=CODE,delta=1
    34                           	psect	text22,global,reloc=2,class=CODE,delta=1
    35                           	psect	text23,global,reloc=2,class=CODE,delta=1
    36                           	psect	text24,global,reloc=2,class=CODE,delta=1
    37                           	psect	text25,global,reloc=2,class=CODE,delta=1
    38                           	psect	text26,global,reloc=2,class=CODE,delta=1
    39                           	psect	text27,global,reloc=2,class=CODE,delta=1
    40                           	psect	text28,global,reloc=2,class=CODE,delta=1
    41                           	psect	text29,global,reloc=2,class=CODE,delta=1
    42                           	psect	text30,global,reloc=2,class=CODE,delta=1
    43                           	psect	text31,global,reloc=2,class=CODE,delta=1
    44                           	psect	text32,global,reloc=2,class=CODE,delta=1
    45                           	psect	text33,global,reloc=2,class=CODE,delta=1
    46                           	psect	text34,global,reloc=2,class=CODE,delta=1
    47                           	psect	text35,global,reloc=2,class=CODE,delta=1
    48                           	psect	text36,global,reloc=2,class=CODE,delta=1
    49                           	psect	text37,global,reloc=2,class=CODE,delta=1
    50                           	psect	text38,global,reloc=2,class=CODE,delta=1
    51                           	psect	text39,global,reloc=2,class=CODE,delta=1
    52                           	psect	text40,global,reloc=2,class=CODE,delta=1
    53                           	psect	text41,global,reloc=2,class=CODE,delta=1
    54                           	psect	text42,global,reloc=2,class=CODE,delta=1
    55                           	psect	text43,global,reloc=2,class=CODE,delta=1
    56                           	psect	ivt0x8,global,reloc=2,class=CODE,delta=1,noexec,keep,optim=
    57                           	psect	intsave_regs,global,class=BIGRAM,space=1,delta=1,noexec
    58                           	psect	text44,global,reloc=2,class=CODE,delta=1
    59                           	psect	rparam,global,class=COMRAM,space=1,delta=1,noexec
    60                           	psect	idloc,global,abs,ovrld,class=IDLOC,space=5,delta=1,noexec
    61                           	psect	config,global,abs,ovrld,class=CONFIG,space=4,delta=1,noexec
    62  0000                     
    63                           ; Version 2.32
    64                           ; Generated 10/02/2021 GMT
    65                           ; 
    66                           ; Copyright © 2021, Microchip Technology Inc. and its subsidiaries ("Microchip")
    67                           ; All rights reserved.
    68                           ; 
    69                           ; This software is developed by Microchip Technology Inc. and its subsidiaries ("Microch
      +                          ip").
    70                           ; 
    71                           ; Redistribution and use in source and binary forms, with or without modification, are
    72                           ; permitted provided that the following conditions are met:
    73                           ; 
    74                           ;     1. Redistributions of source code must retain the above copyright notice, this lis
      +                          t of
    75                           ;        conditions and the following disclaimer.
    76                           ; 
    77                           ;     2. Redistributions in binary form must reproduce the above copyright notice, this 
      +                          list
    78                           ;        of conditions and the following disclaimer in the documentation and/or other
    79                           ;        materials provided with the distribution. Publication is not required when
    80                           ;        this file is used in an embedded application.
    81                           ; 
    82                           ;     3. Microchip's name may not be used to endorse or promote products derived from th
      +                          is
    83                           ;        software without specific prior written permission.
    84                           ; 
    85                           ; THIS SOFTWARE IS PROVIDED BY MICROCHIP "AS IS" AND ANY EXPRESS OR IMPLIED WARRANTIES,
    86                           ; INCLUDING, BUT NOT LIMITED TO, THE IMPLIED WARRANTIES OF MERCHANTABILITY AND FITNESS F
      +                          OR
    87                           ; PURPOSE ARE DISCLAIMED.  IN NO EVENT SHALL MICROCHIP BE LIABLE FOR ANY DIRECT, INDIREC
      +                          T,
    88                           ; INCIDENTAL, SPECIAL, EXEMPLARY, OR CONSEQUENTIAL DAMAGES (INCLUDING BUT NOT LIMITED TO
    89                           ; PROCUREMENT OF SUBSTITUTE GOODS OR SERVICES; LOSS OF USE, DATA OR PROFITS; OR BUSINESS
    90                           ; INTERRUPTION) HOWSOEVER CAUSED AND ON ANY THEORY OF LIABILITY, WHETHER IN CONTRACT, ST
      +                          RICT
    91                           ; LIABILITY, OR TORT (INCLUDING NEGLIGENCE OR OTHERWISE) ARISING IN ANY WAY OUT OF THE U
      +                          SE OF
    92                           ; THIS SOFTWARE, EVEN IF ADVISED OF THE POSSIBILITY OF SUCH DAMAGE.
    93                           ; 
    94                           ; 
    95                           ; Code-generator required, PIC18F26Q84 Definitions
    96                           ; 
    97                           ; SFR Addresses
    98  0000                     
    99                           	psect	idataCOMRAM
   100  002BBA                     __pidataCOMRAM:
   101                           	callstack 0
   102                           
   103                           ;initializer for _rxFifos
   104  002BBA  01                 	db	1
   105  002BBB  00                 	db	0
   106                           
   107                           ;initializer for _CANDATAdata
   108  002BBC  42                 	db	66
   109  002BBD  55                 	db	85
   110  002BBE  46                 	db	70
   111  002BBF  46                 	db	70
   112  002BC0  45                 	db	69
   113  002BC1  52                 	db	82
   114  002BC2  43                 	db	67
   115  002BC3  41                 	db	65
   116  002BC4  4E                 	db	78
   117  002BC5  00                 	db	0
   118  002BC6  00                 	db	0
   119  002BC7  00                 	db	0
   120  002BC8  00                 	db	0
   121  002BC9  00                 	db	0
   122  002BCA  00                 	db	0
   123  002BCB  00                 	db	0
   124  002BCC  00                 	db	0
   125  002BCD  00                 	db	0
   126  002BCE  00                 	db	0
   127  002BCF  00                 	db	0
   128  002BD0  00                 	db	0
   129  002BD1  00                 	db	0
   130  002BD2  00                 	db	0
   131  002BD3  00                 	db	0
   132  002BD4  00                 	db	0
   133  002BD5  00                 	db	0
   134  002BD6  00                 	db	0
   135  002BD7  00                 	db	0
   136  002BD8  00                 	db	0
   137  002BD9  00                 	db	0
   138  002BDA  00                 	db	0
   139  002BDB  00                 	db	0
   140                           
   141                           	psect	smallconst
   142  002600                     __psmallconst:
   143                           	callstack 0
   144  002600  00                 	db	0
   145  002601                     _DLC_BYTES:
   146                           	callstack 0
   147  002601  00                 	db	0
   148  002602  01                 	db	1
   149  002603  02                 	db	2
   150  002604  03                 	db	3
   151  002605  04                 	db	4
   152  002606  05                 	db	5
   153  002607  06                 	db	6
   154  002608  07                 	db	7
   155  002609  08                 	db	8
   156  00260A                     __end_of_DLC_BYTES:
   157                           	callstack 0
   158  00260A  50                 	db	80
   159  00260B  01                 	db	1
   160  00260C                     __end_of_FIFO:
   161                           	callstack 0
   162  00260C  00                 	db	0	; dummy byte at the end
   163  0000                     
   164                           	psect	nvCOMRAM
   165  000547                     __pnvCOMRAM:
   166                           	callstack 0
   167  000547                     _TMR0_InterruptHandler:
   168                           	callstack 0
   169  000547                     	ds	2
   170  000549                     _TMR1_InterruptHandler:
   171                           	callstack 0
   172  000549                     	ds	2
   173  00054B                     _timer1ReloadVal:
   174                           	callstack 0
   175  00054B                     	ds	2
   176  0000                     _PMD8	set	104
   177  0000                     _PMD7	set	103
   178  0000                     _PMD6	set	102
   179  0000                     _PMD5	set	101
   180  0000                     _PMD4	set	100
   181  0000                     _PMD3	set	99
   182  0000                     _PMD2	set	98
   183  0000                     _PMD1	set	97
   184  0000                     _PMD0	set	96
   185  0000                     _OSCTUNE	set	176
   186  0000                     _OSCFRQ	set	177
   187  0000                     _OSCEN	set	179
   188  0000                     _OSCCON3	set	175
   189  0000                     _OSCCON1	set	173
   190  0000                     _C1FIFOBA	set	332
   191  0000                     _C1FIFOSTA1Lbits	set	352
   192  0000                     _C1TXQSTALbits	set	340
   193  0000                     _C1INTLbits	set	284
   194  0000                     _C1INTTbits	set	287
   195  0000                     _C1INTHbits	set	285
   196  0000                     _C1TRECUbits	set	310
   197  0000                     _C1CONUbits	set	258
   198  0000                     _C1CONTbits	set	259
   199  0000                     _C1CONU	set	258
   200  0000                     _C1CONH	set	257
   201  0000                     _C1CONL	set	256
   202  0000                     _C1CONHbits	set	257
   203  0000                     _C1INTT	set	287
   204  0000                     _C1INTU	set	286
   205  0000                     _C1INTH	set	285
   206  0000                     _C1INTL	set	284
   207  0000                     _C1NBTCFGT	set	263
   208  0000                     _C1NBTCFGU	set	262
   209  0000                     _C1NBTCFGH	set	261
   210  0000                     _C1NBTCFGL	set	260
   211  0000                     _C1TXQCONT	set	339
   212  0000                     _C1TXQCONU	set	338
   213  0000                     _C1TXQCONH	set	337
   214  0000                     _C1FIFOCON1T	set	351
   215  0000                     _C1FIFOCON1U	set	350
   216  0000                     _C1FIFOCON1H	set	349
   217  0000                     _C1FIFOCON1L	set	348
   218  0000                     _C1TXQCONL	set	336
   219  0000                     _RB4PPS	set	525
   220  0000                     _CANRXPPS	set	573
   221  0000                     _T0CON0bits	set	794
   222  0000                     _T0CON0	set	794
   223  0000                     _TMR0L	set	792
   224  0000                     _TMR0H	set	793
   225  0000                     _T0CON1	set	795
   226  0000                     _T1GCONbits	set	799
   227  0000                     _T1CONbits	set	798
   228  0000                     _T1CON	set	798
   229  0000                     _TMR1L	set	796
   230  0000                     _TMR1H	set	797
   231  0000                     _T1CLK	set	801
   232  0000                     _T1GATE	set	800
   233  0000                     _T1GCON	set	799
   234  0000                     _INLVLE	set	1060
   235  0000                     _INLVLC	set	1044
   236  0000                     _INLVLB	set	1036
   237  0000                     _INLVLA	set	1028
   238  0000                     _SLRCONC	set	1043
   239  0000                     _SLRCONB	set	1035
   240  0000                     _SLRCONA	set	1027
   241  0000                     _ODCONC	set	1042
   242  0000                     _ODCONB	set	1034
   243  0000                     _ODCONA	set	1026
   244  0000                     _WPUC	set	1041
   245  0000                     _WPUA	set	1025
   246  0000                     _WPUB	set	1033
   247  0000                     _WPUE	set	1057
   248  0000                     _ANSELA	set	1024
   249  0000                     _ANSELB	set	1032
   250  0000                     _ANSELC	set	1040
   251  0000                     _LATBbits	set	1215
   252  0000                     _TRISC	set	1224
   253  0000                     _TRISB	set	1223
   254  0000                     _TRISA	set	1222
   255  0000                     _TRISE	set	1226
   256  0000                     _LATC	set	1216
   257  0000                     _LATB	set	1215
   258  0000                     _LATA	set	1214
   259  0000                     _INTCON0bits	set	1238
   260  0000                     _PIE3bits	set	1185
   261  0000                     _PIR3bits	set	1201
   262  0000                     _LATCbits	set	1216
   263  0000                     _PIE0bits	set	1182
   264  0000                     _PIR0bits	set	1198
   265                           
   266                           ; #config settings
   267                           
   268                           	psect	cinit
   269  0029DC                     __pcinit:
   270                           	callstack 0
   271  0029DC                     start_initialization:
   272                           	callstack 0
   273  0029DC                     __initialization:
   274                           	callstack 0
   275                           
   276                           ; Initialize objects allocated to COMRAM (34 bytes)
   277                           ; load TBLPTR registers with __pidataCOMRAM
   278  0029DC  0EBA               	movlw	low __pidataCOMRAM
   279  0029DE  6EF6               	movwf	tblptrl,c
   280  0029E0  0E2B               	movlw	high __pidataCOMRAM
   281  0029E2  6EF7               	movwf	tblptrh,c
   282  0029E4  0E00               	movlw	low (__pidataCOMRAM shr (0+16))
   283  0029E6  6EF8               	movwf	tblptru,c
   284  0029E8  EE01  F125         	lfsr	0,__pdataCOMRAM
   285  0029EC  EE10 F022          	lfsr	1,34
   286  0029F0                     copy_data0:
   287  0029F0  0009               	tblrd		*+
   288  0029F2  C4F5 F4EE          	movff	tablat,postinc0
   289  0029F6  50E5               	movf	postdec1,w,c
   290  0029F8  50E1               	movf	fsr1l,w,c
   291  0029FA  E1FA               	bnz	copy_data0
   292                           
   293                           ; Clear objects allocated to COMRAM (36 bytes)
   294  0029FC  EE01  F101         	lfsr	0,__pbssCOMRAM
   295  002A00  0E24               	movlw	36
   296  002A02                     clear_0:
   297  002A02  6AEE               	clrf	postinc0,c
   298  002A04  06E8               	decf	wreg,f,c
   299  002A06  E1FD               	bnz	clear_0
   300                           
   301                           ;
   302                           ; Setup IVTBASE
   303                           ;
   304  002A08  0104               	movlb	4
   305  002A0A  0E08               	movlw	(ivt0x8_base shr 0)& (0+255)
   306  002A0C  6F5D               	movwf	93,b
   307  002A0E  0E00               	movlw	(ivt0x8_base shr (0+8))& (0+255)
   308  002A10  6F5E               	movwf	94,b
   309  002A12  0E00               	movlw	(ivt0x8_base shr (0+16))& (0+255)
   310  002A14  6F5F               	movwf	95,b
   311  002A16                     end_of_initialization:
   312                           	callstack 0
   313  002A16                     __end_of__initialization:
   314                           	callstack 0
   315  002A16  0100               	movlb	0
   316  002A18  EFFE  F015         	goto	_main	;jump to C main() function
   317                           
   318                           	psect	bssCOMRAM
   319  000501                     __pbssCOMRAM:
   320                           	callstack 0
   321  000501                     TMR0_ISR@CountCallBack:
   322                           	callstack 0
   323  000501                     	ds	2
   324  000503                     TMR1_ISR@CountCallBack:
   325                           	callstack 0
   326  000503                     	ds	2
   327  000505                     _CAN1_RxBufferOverflowHandler:
   328                           	callstack 0
   329  000505                     	ds	2
   330  000507                     _CAN1_TxAttemptHandler:
   331                           	callstack 0
   332  000507                     	ds	2
   333  000509                     _CAN1_SystemErrorHandler:
   334                           	callstack 0
   335  000509                     	ds	2
   336  00050B                     _CAN1_ModeChangeHandler:
   337                           	callstack 0
   338  00050B                     	ds	2
   339  00050D                     _CAN1_BusErrorHandler:
   340                           	callstack 0
   341  00050D                     	ds	2
   342  00050F                     _CAN1_BusWakeUpActivityHandler:
   343                           	callstack 0
   344  00050F                     	ds	2
   345  000511                     _CAN1_InvalidMessageHandler:
   346                           	callstack 0
   347  000511                     	ds	2
   348  000513                     _ucASState:
   349                           	callstack 0
   350  000513                     	ds	1
   351  000514                     _ucSpeakerCount:
   352                           	callstack 0
   353  000514                     	ds	1
   354  000515                     _ucFlagEmergencySpeaker:
   355                           	callstack 0
   356  000515                     	ds	1
   357  000516                     _rxMsgData:
   358                           	callstack 0
   359  000516                     	ds	8
   360  00051E                     _msg:
   361                           	callstack 0
   362  00051E                     	ds	7
   363                           
   364                           	psect	dataCOMRAM
   365  000525                     __pdataCOMRAM:
   366                           	callstack 0
   367  000525                     _rxFifos:
   368                           	callstack 0
   369  000525                     	ds	2
   370  000527                     _CANDATAdata:
   371                           	callstack 0
   372  000527                     	ds	32
   373                           
   374                           	psect	cstackCOMRAM
   375  00054D                     __pcstackCOMRAM:
   376                           	callstack 0
   377  00054D                     ??_SPEAKER:
   378  00054D                     TMR1_WriteTimer@timerVal:
   379                           	callstack 0
   380                           
   381                           ; 2 bytes @ 0x0
   382  00054D                     	ds	1
   383  00054E                     
   384                           ; 1 bytes @ 0x1
   385  00054E                     	ds	1
   386  00054F                     CAN1_RX_FIFO_ResetInfo@index:
   387                           	callstack 0
   388  00054F                     CAN1_OperationModeSet@opMode:
   389                           	callstack 0
   390  00054F                     CAN1_SetInvalidMessageInterruptHandler@handler:
   391                           	callstack 0
   392  00054F                     CAN1_SetBusWakeUpActivityInterruptHandler@handler:
   393                           	callstack 0
   394  00054F                     CAN1_SetBusErrorInterruptHandler@handler:
   395                           	callstack 0
   396  00054F                     CAN1_SetModeChangeInterruptHandler@handler:
   397                           	callstack 0
   398  00054F                     CAN1_SetSystemErrorInterruptHandler@handler:
   399                           	callstack 0
   400  00054F                     CAN1_SetTxAttemptInterruptHandler@handler:
   401                           	callstack 0
   402  00054F                     CAN1_SetRxBufferOverFlowInterruptHandler@handler:
   403                           	callstack 0
   404  00054F                     TMR1_SetInterruptHandler@InterruptHandler:
   405                           	callstack 0
   406  00054F                     TMR0_SetInterruptHandler@InterruptHandler:
   407                           	callstack 0
   408  00054F                     DELAY_milliseconds@milliseconds:
   409                           	callstack 0
   410                           
   411                           ; 2 bytes @ 0x2
   412  00054F                     	ds	1
   413  000550                     CAN1_OperationModeSet@status:
   414                           	callstack 0
   415                           
   416                           ; 1 bytes @ 0x3
   417  000550                     	ds	1
   418  000551                     ??_TMR1_Initialize:
   419  000551                     ??_DELAY_milliseconds:
   420  000551                     CAN1_OperationModeSet@requestMode:
   421                           	callstack 0
   422                           
   423                           ; 1 bytes @ 0x4
   424  000551                     	ds	1
   425  000552                     
   426                           ; 1 bytes @ 0x5
   427  000552                     	ds	1
   428  000553                     
   429                           ; 1 bytes @ 0x6
   430 ;;
   431 ;;Main: autosize = 0, tempsize = 0, incstack = 0, save=0
   432 ;;
   433 ;; *************** function _main *****************
   434 ;; Defined at:
   435 ;;		line 54 in file "main.c"
   436 ;; Parameters:    Size  Location     Type
   437 ;;		None
   438 ;; Auto vars:     Size  Location     Type
   439 ;;		None
   440 ;; Return value:  Size  Location     Type
   441 ;;                  1    wreg      void 
   442 ;; Registers used:
   443 ;;		wreg, fsr2l, fsr2h, status,2, status,0, prodl, prodh, cstack
   444 ;; Tracked objects:
   445 ;;		On entry : 0/0
   446 ;;		On exit  : 0/0
   447 ;;		Unchanged: 0/0
   448 ;; Data sizes:     COMRAM   BANK5   BANK6   BANK7   BANK8   BANK9  BANK10  BANK11  BANK12  BANK13  BANK14  BANK15  BANK1
      +6  BANK17  BANK18  BANK19  BANK20  BANK21  BANK22  BANK23  BANK24  BANK25  BANK26  BANK27  BANK28  BANK29  BANK30  BANK3
      +1  BANK32  BANK33  BANK34  BANK35  BANK36  BANK37
   449 ;;      Params:         0       0       0       0       0       0       0       0       0       0       0       0       
      +0       0       0       0       0       0       0       0       0       0       0       0       0       0       0       
      +0       0       0       0       0       0       0
   450 ;;      Locals:         0       0       0       0       0       0       0       0       0       0       0       0       
      +0       0       0       0       0       0       0       0       0       0       0       0       0       0       0       
      +0       0       0       0       0       0       0
   451 ;;      Temps:          0       0       0       0       0       0       0       0       0       0       0       0       
      +0       0       0       0       0       0       0       0       0       0       0       0       0       0       0       
      +0       0       0       0       0       0       0
   452 ;;      Totals:         0       0       0       0       0       0       0       0       0       0       0       0       
      +0       0       0       0       0       0       0       0       0       0       0       0       0       0       0       
      +0       0       0       0       0       0       0
   453 ;;Total ram usage:        0 bytes
   454 ;; Hardware stack levels required when called:    8
   455 ;; This function calls:
   456 ;;		_DELAY_milliseconds
   457 ;;		_SYSTEM_Initialize
   458 ;; This function is called by:
   459 ;;		Startup code after reset
   460 ;; This function uses a non-reentrant model
   461 ;;
   462                           
   463                           	psect	text0
   464  002BFC                     __ptext0:
   465                           	callstack 0
   466  002BFC                     _main:
   467                           	callstack 120
   468  002BFC                     
   469                           ;main.c: 57:     SYSTEM_Initialize();
   470  002BFC  ECEE  F015         	call	_SYSTEM_Initialize	;wreg free
   471  002C00                     
   472                           ;main.c: 64:     (INTCON0bits.GIE = 1);
   473  002C00  8ED6               	bsf	214,7,c	;volatile
   474  002C02                     l2139:
   475  002C02  86C0               	bsf	192,3,c	;volatile
   476  002C04                     
   477                           ;main.c: 77:         DELAY_milliseconds(1000);
   478  002C04  0E03               	movlw	3
   479  002C06  6E50               	movwf	(DELAY_milliseconds@milliseconds+1)^(0+1280),c
   480  002C08  0EE8               	movlw	232
   481  002C0A  6E4F               	movwf	DELAY_milliseconds@milliseconds^(0+1280),c
   482  002C0C  EC46  F015         	call	_DELAY_milliseconds	;wreg free
   483  002C10  96C0               	bcf	192,3,c	;volatile
   484  002C12  EF01  F016         	goto	l2139
   485  002C16  EF0D  F000         	goto	start
   486  002C1A                     __end_of_main:
   487                           	callstack 0
   488                           
   489 ;; *************** function _SYSTEM_Initialize *****************
   490 ;; Defined at:
   491 ;;		line 50 in file "mcc_generated_files/mcc.c"
   492 ;; Parameters:    Size  Location     Type
   493 ;;		None
   494 ;; Auto vars:     Size  Location     Type
   495 ;;		None
   496 ;; Return value:  Size  Location     Type
   497 ;;                  1    wreg      void 
   498 ;; Registers used:
   499 ;;		wreg, fsr2l, fsr2h, status,2, status,0, prodl, prodh, cstack
   500 ;; Tracked objects:
   501 ;;		On entry : 0/0
   502 ;;		On exit  : 0/0
   503 ;;		Unchanged: 0/0
   504 ;; Data sizes:     COMRAM   BANK5   BANK6   BANK7   BANK8   BANK9  BANK10  BANK11  BANK12  BANK13  BANK14  BANK15  BANK1
      +6  BANK17  BANK18  BANK19  BANK20  BANK21  BANK22  BANK23  BANK24  BANK25  BANK26  BANK27  BANK28  BANK29  BANK30  BANK3
      +1  BANK32  BANK33  BANK34  BANK35  BANK36  BANK37
   505 ;;      Params:         0       0       0       0       0       0       0       0       0       0       0       0       
      +0       0       0       0       0       0       0       0       0       0       0       0       0       0       0       
      +0       0       0       0       0       0       0
   506 ;;      Locals:         0       0       0       0       0       0       0       0       0       0       0       0       
      +0       0       0       0       0       0       0       0       0       0       0       0       0       0       0       
      +0       0       0       0       0       0       0
   507 ;;      Temps:          0       0       0       0       0       0       0       0       0       0       0       0       
      +0       0       0       0       0       0       0       0       0       0       0       0       0       0       0       
      +0       0       0       0       0       0       0
   508 ;;      Totals:         0       0       0       0       0       0       0       0       0       0       0       0       
      +0       0       0       0       0       0       0       0       0       0       0       0       0       0       0       
      +0       0       0       0       0       0       0
   509 ;;Total ram usage:        0 bytes
   510 ;; Hardware stack levels used:    1
   511 ;; Hardware stack levels required when called:    7
   512 ;; This function calls:
   513 ;;		_CAN1_Initialize
   514 ;;		_INTERRUPT_Initialize
   515 ;;		_OSCILLATOR_Initialize
   516 ;;		_PIN_MANAGER_Initialize
   517 ;;		_PMD_Initialize
   518 ;;		_TMR0_Initialize
   519 ;;		_TMR1_Initialize
   520 ;; This function is called by:
   521 ;;		_main
   522 ;; This function uses a non-reentrant model
   523 ;;
   524                           
   525                           	psect	text1
   526  002BDC                     __ptext1:
   527                           	callstack 0
   528  002BDC                     _SYSTEM_Initialize:
   529                           	callstack 120
   530  002BDC                     
   531                           ;mcc_generated_files/mcc.c: 52:     INTERRUPT_Initialize();
   532  002BDC  EC69  F016         	call	_INTERRUPT_Initialize	;wreg free
   533  002BE0  86C0               	bsf	192,3,c	;volatile
   534  002BE2                     
   535                           ;mcc_generated_files/mcc.c: 54:     PMD_Initialize();
   536  002BE2  ECB6  F015         	call	_PMD_Initialize	;wreg free
   537  002BE6                     
   538                           ;mcc_generated_files/mcc.c: 55:     PIN_MANAGER_Initialize();
   539  002BE6  EC18  F014         	call	_PIN_MANAGER_Initialize	;wreg free
   540  002BEA                     
   541                           ;mcc_generated_files/mcc.c: 56:     OSCILLATOR_Initialize();
   542  002BEA  EC0D  F016         	call	_OSCILLATOR_Initialize	;wreg free
   543  002BEE                     
   544                           ;mcc_generated_files/mcc.c: 57:     TMR1_Initialize();
   545  002BEE  ECCB  F014         	call	_TMR1_Initialize	;wreg free
   546  002BF2                     
   547                           ;mcc_generated_files/mcc.c: 58:     TMR0_Initialize();
   548  002BF2  ECCA  F015         	call	_TMR0_Initialize	;wreg free
   549  002BF6                     
   550                           ;mcc_generated_files/mcc.c: 59:     CAN1_Initialize();
   551  002BF6  EC73  F014         	call	_CAN1_Initialize	;wreg free
   552  002BFA  0012               	return		;funcret
   553  002BFC                     __end_of_SYSTEM_Initialize:
   554                           	callstack 0
   555                           
   556 ;; *************** function _TMR1_Initialize *****************
   557 ;; Defined at:
   558 ;;		line 64 in file "mcc_generated_files/tmr1.c"
   559 ;; Parameters:    Size  Location     Type
   560 ;;		None
   561 ;; Auto vars:     Size  Location     Type
   562 ;;		None
   563 ;; Return value:  Size  Location     Type
   564 ;;                  1    wreg      void 
   565 ;; Registers used:
   566 ;;		wreg, status,2, status,0, cstack
   567 ;; Tracked objects:
   568 ;;		On entry : 0/0
   569 ;;		On exit  : 0/0
   570 ;;		Unchanged: 0/0
   571 ;; Data sizes:     COMRAM   BANK5   BANK6   BANK7   BANK8   BANK9  BANK10  BANK11  BANK12  BANK13  BANK14  BANK15  BANK1
      +6  BANK17  BANK18  BANK19  BANK20  BANK21  BANK22  BANK23  BANK24  BANK25  BANK26  BANK27  BANK28  BANK29  BANK30  BANK3
      +1  BANK32  BANK33  BANK34  BANK35  BANK36  BANK37
   572 ;;      Params:         0       0       0       0       0       0       0       0       0       0       0       0       
      +0       0       0       0       0       0       0       0       0       0       0       0       0       0       0       
      +0       0       0       0       0       0       0
   573 ;;      Locals:         0       0       0       0       0       0       0       0       0       0       0       0       
      +0       0       0       0       0       0       0       0       0       0       0       0       0       0       0       
      +0       0       0       0       0       0       0
   574 ;;      Temps:          2       0       0       0       0       0       0       0       0       0       0       0       
      +0       0       0       0       0       0       0       0       0       0       0       0       0       0       0       
      +0       0       0       0       0       0       0
   575 ;;      Totals:         2       0       0       0       0       0       0       0       0       0       0       0       
      +0       0       0       0       0       0       0       0       0       0       0       0       0       0       0       
      +0       0       0       0       0       0       0
   576 ;;Total ram usage:        2 bytes
   577 ;; Hardware stack levels used:    1
   578 ;; Hardware stack levels required when called:    5
   579 ;; This function calls:
   580 ;;		_TMR1_SetInterruptHandler
   581 ;; This function is called by:
   582 ;;		_SYSTEM_Initialize
   583 ;; This function uses a non-reentrant model
   584 ;;
   585                           
   586                           	psect	text2
   587  002996                     __ptext2:
   588                           	callstack 0
   589  002996                     _TMR1_Initialize:
   590                           	callstack 121
   591  002996                     
   592                           ;mcc_generated_files/tmr1.c: 69:     T1GCON = 0x00;
   593  002996  0E00               	movlw	0
   594  002998  0103               	movlb	3	; () banked
   595  00299A  6F1F               	movwf	31,b	;volatile
   596                           
   597                           ;mcc_generated_files/tmr1.c: 72:     T1GATE = 0x00;
   598  00299C  0E00               	movlw	0
   599  00299E  6F20               	movwf	32,b	;volatile
   600                           
   601                           ;mcc_generated_files/tmr1.c: 75:     T1CLK = 0x01;
   602  0029A0  0E01               	movlw	1
   603  0029A2  6F21               	movwf	33,b	;volatile
   604                           
   605                           ;mcc_generated_files/tmr1.c: 78:     TMR1H = 0x0B;
   606  0029A4  0E0B               	movlw	11
   607  0029A6  6F1D               	movwf	29,b	;volatile
   608                           
   609                           ;mcc_generated_files/tmr1.c: 81:     TMR1L = 0xDC;
   610  0029A8  0EDC               	movlw	220
   611  0029AA  6F1C               	movwf	28,b	;volatile
   612  0029AC                     
   613                           ; BSR set to: 3
   614                           ;mcc_generated_files/tmr1.c: 84:     PIR3bits.TMR1IF = 0;
   615  0029AC  98B1               	bcf	177,4,c	;volatile
   616  0029AE                     
   617                           ; BSR set to: 3
   618                           ;mcc_generated_files/tmr1.c: 87:     timer1ReloadVal=(uint16_t)((TMR1H << 8) | TMR1L);
   619  0029AE  511C               	movf	28,w,b	;volatile
   620  0029B0  0060 FC74  F551    	movff	797,??_TMR1_Initialize	;volatile
   621  0029B6  6A52               	clrf	(??_TMR1_Initialize+1)^(0+1280),c
   622  0029B8  C551  F552         	movff	??_TMR1_Initialize,??_TMR1_Initialize+1
   623  0029BC  6A51               	clrf	??_TMR1_Initialize^(0+1280),c
   624  0029BE  1051               	iorwf	??_TMR1_Initialize^(0+1280),w,c
   625  0029C0  6E4B               	movwf	_timer1ReloadVal^(0+1280),c	;volatile
   626  0029C2  5052               	movf	(??_TMR1_Initialize+1)^(0+1280),w,c
   627  0029C4  6E4C               	movwf	(_timer1ReloadVal+1)^(0+1280),c	;volatile
   628  0029C6                     
   629                           ; BSR set to: 3
   630                           ;mcc_generated_files/tmr1.c: 90:     PIE3bits.TMR1IE = 1;
   631  0029C6  88A1               	bsf	161,4,c	;volatile
   632  0029C8                     
   633                           ; BSR set to: 3
   634                           ;mcc_generated_files/tmr1.c: 93:     TMR1_SetInterruptHandler(TMR1_DefaultInterruptHandl
      +                          er);
   635  0029C8  0ED8               	movlw	low _TMR1_DefaultInterruptHandler
   636  0029CA  6E4F               	movwf	TMR1_SetInterruptHandler@InterruptHandler^(0+1280),c
   637  0029CC  0E2C               	movlw	high _TMR1_DefaultInterruptHandler
   638  0029CE  6E50               	movwf	(TMR1_SetInterruptHandler@InterruptHandler+1)^(0+1280),c
   639  0029D0  EC37  F016         	call	_TMR1_SetInterruptHandler	;wreg free
   640  0029D4                     
   641                           ;mcc_generated_files/tmr1.c: 96:     T1CON = 0x21;
   642  0029D4  0E21               	movlw	33
   643  0029D6  0103               	movlb	3	; () banked
   644  0029D8  6F1E               	movwf	30,b	;volatile
   645  0029DA                     
   646                           ; BSR set to: 3
   647  0029DA  0012               	return		;funcret
   648  0029DC                     __end_of_TMR1_Initialize:
   649                           	callstack 0
   650                           
   651 ;; *************** function _TMR1_SetInterruptHandler *****************
   652 ;; Defined at:
   653 ;;		line 195 in file "mcc_generated_files/tmr1.c"
   654 ;; Parameters:    Size  Location     Type
   655 ;;  InterruptHan    2    2[COMRAM] PTR FTN()void 
   656 ;;		 -> TMR1_DefaultInterruptHandler(1), 
   657 ;; Auto vars:     Size  Location     Type
   658 ;;		None
   659 ;; Return value:  Size  Location     Type
   660 ;;                  1    wreg      void 
   661 ;; Registers used:
   662 ;;		wreg, status,2, status,0
   663 ;; Tracked objects:
   664 ;;		On entry : 0/0
   665 ;;		On exit  : 0/0
   666 ;;		Unchanged: 0/0
   667 ;; Data sizes:     COMRAM   BANK5   BANK6   BANK7   BANK8   BANK9  BANK10  BANK11  BANK12  BANK13  BANK14  BANK15  BANK1
      +6  BANK17  BANK18  BANK19  BANK20  BANK21  BANK22  BANK23  BANK24  BANK25  BANK26  BANK27  BANK28  BANK29  BANK30  BANK3
      +1  BANK32  BANK33  BANK34  BANK35  BANK36  BANK37
   668 ;;      Params:         2       0       0       0       0       0       0       0       0       0       0       0       
      +0       0       0       0       0       0       0       0       0       0       0       0       0       0       0       
      +0       0       0       0       0       0       0
   669 ;;      Locals:         0       0       0       0       0       0       0       0       0       0       0       0       
      +0       0       0       0       0       0       0       0       0       0       0       0       0       0       0       
      +0       0       0       0       0       0       0
   670 ;;      Temps:          0       0       0       0       0       0       0       0       0       0       0       0       
      +0       0       0       0       0       0       0       0       0       0       0       0       0       0       0       
      +0       0       0       0       0       0       0
   671 ;;      Totals:         2       0       0       0       0       0       0       0       0       0       0       0       
      +0       0       0       0       0       0       0       0       0       0       0       0       0       0       0       
      +0       0       0       0       0       0       0
   672 ;;Total ram usage:        2 bytes
   673 ;; Hardware stack levels used:    1
   674 ;; Hardware stack levels required when called:    4
   675 ;; This function calls:
   676 ;;		Nothing
   677 ;; This function is called by:
   678 ;;		_TMR1_Initialize
   679 ;; This function uses a non-reentrant model
   680 ;;
   681                           
   682                           	psect	text3
   683  002C6E                     __ptext3:
   684                           	callstack 0
   685  002C6E                     _TMR1_SetInterruptHandler:
   686                           	callstack 121
   687  002C6E                     
   688                           ;mcc_generated_files/tmr1.c: 196:     TMR1_InterruptHandler = InterruptHandler;
   689  002C6E  C54F  F549         	movff	TMR1_SetInterruptHandler@InterruptHandler,_TMR1_InterruptHandler
   690  002C72  C550  F54A         	movff	TMR1_SetInterruptHandler@InterruptHandler+1,_TMR1_InterruptHandler+1
   691  002C76  0012               	return		;funcret
   692  002C78                     __end_of_TMR1_SetInterruptHandler:
   693                           	callstack 0
   694                           
   695 ;; *************** function _TMR0_Initialize *****************
   696 ;; Defined at:
   697 ;;		line 61 in file "mcc_generated_files/tmr0.c"
   698 ;; Parameters:    Size  Location     Type
   699 ;;		None
   700 ;; Auto vars:     Size  Location     Type
   701 ;;		None
   702 ;; Return value:  Size  Location     Type
   703 ;;                  1    wreg      void 
   704 ;; Registers used:
   705 ;;		wreg, status,2, status,0, cstack
   706 ;; Tracked objects:
   707 ;;		On entry : 0/0
   708 ;;		On exit  : 0/0
   709 ;;		Unchanged: 0/0
   710 ;; Data sizes:     COMRAM   BANK5   BANK6   BANK7   BANK8   BANK9  BANK10  BANK11  BANK12  BANK13  BANK14  BANK15  BANK1
      +6  BANK17  BANK18  BANK19  BANK20  BANK21  BANK22  BANK23  BANK24  BANK25  BANK26  BANK27  BANK28  BANK29  BANK30  BANK3
      +1  BANK32  BANK33  BANK34  BANK35  BANK36  BANK37
   711 ;;      Params:         0       0       0       0       0       0       0       0       0       0       0       0       
      +0       0       0       0       0       0       0       0       0       0       0       0       0       0       0       
      +0       0       0       0       0       0       0
   712 ;;      Locals:         0       0       0       0       0       0       0       0       0       0       0       0       
      +0       0       0       0       0       0       0       0       0       0       0       0       0       0       0       
      +0       0       0       0       0       0       0
   713 ;;      Temps:          0       0       0       0       0       0       0       0       0       0       0       0       
      +0       0       0       0       0       0       0       0       0       0       0       0       0       0       0       
      +0       0       0       0       0       0       0
   714 ;;      Totals:         0       0       0       0       0       0       0       0       0       0       0       0       
      +0       0       0       0       0       0       0       0       0       0       0       0       0       0       0       
      +0       0       0       0       0       0       0
   715 ;;Total ram usage:        0 bytes
   716 ;; Hardware stack levels used:    1
   717 ;; Hardware stack levels required when called:    5
   718 ;; This function calls:
   719 ;;		_TMR0_SetInterruptHandler
   720 ;; This function is called by:
   721 ;;		_SYSTEM_Initialize
   722 ;; This function uses a non-reentrant model
   723 ;;
   724                           
   725                           	psect	text4
   726  002B94                     __ptext4:
   727                           	callstack 0
   728  002B94                     _TMR0_Initialize:
   729                           	callstack 121
   730  002B94                     
   731                           ;mcc_generated_files/tmr0.c: 66:     T0CON1 = 0x4C;
   732  002B94  0E4C               	movlw	76
   733  002B96  0103               	movlb	3	; () banked
   734  002B98  6F1B               	movwf	27,b	;volatile
   735                           
   736                           ;mcc_generated_files/tmr0.c: 69:     TMR0H = 0x98;
   737  002B9A  0E98               	movlw	152
   738  002B9C  6F19               	movwf	25,b	;volatile
   739                           
   740                           ;mcc_generated_files/tmr0.c: 72:     TMR0L = 0x00;
   741  002B9E  0E00               	movlw	0
   742  002BA0  6F18               	movwf	24,b	;volatile
   743  002BA2                     
   744                           ; BSR set to: 3
   745                           ;mcc_generated_files/tmr0.c: 75:     PIR3bits.TMR0IF = 0;
   746  002BA2  9EB1               	bcf	177,7,c	;volatile
   747  002BA4                     
   748                           ; BSR set to: 3
   749                           ;mcc_generated_files/tmr0.c: 78:     PIE3bits.TMR0IE = 1;
   750  002BA4  8EA1               	bsf	161,7,c	;volatile
   751  002BA6                     
   752                           ; BSR set to: 3
   753                           ;mcc_generated_files/tmr0.c: 81:     TMR0_SetInterruptHandler(TMR0_DefaultInterruptHandl
      +                          er);
   754  002BA6  0EDA               	movlw	low _TMR0_DefaultInterruptHandler
   755  002BA8  6E4F               	movwf	TMR0_SetInterruptHandler@InterruptHandler^(0+1280),c
   756  002BAA  0E2C               	movlw	high _TMR0_DefaultInterruptHandler
   757  002BAC  6E50               	movwf	(TMR0_SetInterruptHandler@InterruptHandler+1)^(0+1280),c
   758  002BAE  EC3C  F016         	call	_TMR0_SetInterruptHandler	;wreg free
   759  002BB2                     
   760                           ;mcc_generated_files/tmr0.c: 84:     T0CON0 = 0x80;
   761  002BB2  0E80               	movlw	128
   762  002BB4  0103               	movlb	3	; () banked
   763  002BB6  6F1A               	movwf	26,b	;volatile
   764  002BB8                     
   765                           ; BSR set to: 3
   766  002BB8  0012               	return		;funcret
   767  002BBA                     __end_of_TMR0_Initialize:
   768                           	callstack 0
   769                           
   770 ;; *************** function _TMR0_SetInterruptHandler *****************
   771 ;; Defined at:
   772 ;;		line 164 in file "mcc_generated_files/tmr0.c"
   773 ;; Parameters:    Size  Location     Type
   774 ;;  InterruptHan    2    2[COMRAM] PTR FTN()void 
   775 ;;		 -> TMR0_DefaultInterruptHandler(1), 
   776 ;; Auto vars:     Size  Location     Type
   777 ;;		None
   778 ;; Return value:  Size  Location     Type
   779 ;;                  1    wreg      void 
   780 ;; Registers used:
   781 ;;		wreg, status,2, status,0
   782 ;; Tracked objects:
   783 ;;		On entry : 0/0
   784 ;;		On exit  : 0/0
   785 ;;		Unchanged: 0/0
   786 ;; Data sizes:     COMRAM   BANK5   BANK6   BANK7   BANK8   BANK9  BANK10  BANK11  BANK12  BANK13  BANK14  BANK15  BANK1
      +6  BANK17  BANK18  BANK19  BANK20  BANK21  BANK22  BANK23  BANK24  BANK25  BANK26  BANK27  BANK28  BANK29  BANK30  BANK3
      +1  BANK32  BANK33  BANK34  BANK35  BANK36  BANK37
   787 ;;      Params:         2       0       0       0       0       0       0       0       0       0       0       0       
      +0       0       0       0       0       0       0       0       0       0       0       0       0       0       0       
      +0       0       0       0       0       0       0
   788 ;;      Locals:         0       0       0       0       0       0       0       0       0       0       0       0       
      +0       0       0       0       0       0       0       0       0       0       0       0       0       0       0       
      +0       0       0       0       0       0       0
   789 ;;      Temps:          0       0       0       0       0       0       0       0       0       0       0       0       
      +0       0       0       0       0       0       0       0       0       0       0       0       0       0       0       
      +0       0       0       0       0       0       0
   790 ;;      Totals:         2       0       0       0       0       0       0       0       0       0       0       0       
      +0       0       0       0       0       0       0       0       0       0       0       0       0       0       0       
      +0       0       0       0       0       0       0
   791 ;;Total ram usage:        2 bytes
   792 ;; Hardware stack levels used:    1
   793 ;; Hardware stack levels required when called:    4
   794 ;; This function calls:
   795 ;;		Nothing
   796 ;; This function is called by:
   797 ;;		_TMR0_Initialize
   798 ;; This function uses a non-reentrant model
   799 ;;
   800                           
   801                           	psect	text5
   802  002C78                     __ptext5:
   803                           	callstack 0
   804  002C78                     _TMR0_SetInterruptHandler:
   805                           	callstack 121
   806  002C78                     
   807                           ;mcc_generated_files/tmr0.c: 165:     TMR0_InterruptHandler = InterruptHandler;
   808  002C78  C54F  F547         	movff	TMR0_SetInterruptHandler@InterruptHandler,_TMR0_InterruptHandler
   809  002C7C  C550  F548         	movff	TMR0_SetInterruptHandler@InterruptHandler+1,_TMR0_InterruptHandler+1
   810  002C80  0012               	return		;funcret
   811  002C82                     __end_of_TMR0_SetInterruptHandler:
   812                           	callstack 0
   813                           
   814 ;; *************** function _PMD_Initialize *****************
   815 ;; Defined at:
   816 ;;		line 76 in file "mcc_generated_files/mcc.c"
   817 ;; Parameters:    Size  Location     Type
   818 ;;		None
   819 ;; Auto vars:     Size  Location     Type
   820 ;;		None
   821 ;; Return value:  Size  Location     Type
   822 ;;                  1    wreg      void 
   823 ;; Registers used:
   824 ;;		wreg, status,2
   825 ;; Tracked objects:
   826 ;;		On entry : 0/0
   827 ;;		On exit  : 0/0
   828 ;;		Unchanged: 0/0
   829 ;; Data sizes:     COMRAM   BANK5   BANK6   BANK7   BANK8   BANK9  BANK10  BANK11  BANK12  BANK13  BANK14  BANK15  BANK1
      +6  BANK17  BANK18  BANK19  BANK20  BANK21  BANK22  BANK23  BANK24  BANK25  BANK26  BANK27  BANK28  BANK29  BANK30  BANK3
      +1  BANK32  BANK33  BANK34  BANK35  BANK36  BANK37
   830 ;;      Params:         0       0       0       0       0       0       0       0       0       0       0       0       
      +0       0       0       0       0       0       0       0       0       0       0       0       0       0       0       
      +0       0       0       0       0       0       0
   831 ;;      Locals:         0       0       0       0       0       0       0       0       0       0       0       0       
      +0       0       0       0       0       0       0       0       0       0       0       0       0       0       0       
      +0       0       0       0       0       0       0
   832 ;;      Temps:          0       0       0       0       0       0       0       0       0       0       0       0       
      +0       0       0       0       0       0       0       0       0       0       0       0       0       0       0       
      +0       0       0       0       0       0       0
   833 ;;      Totals:         0       0       0       0       0       0       0       0       0       0       0       0       
      +0       0       0       0       0       0       0       0       0       0       0       0       0       0       0       
      +0       0       0       0       0       0       0
   834 ;;Total ram usage:        0 bytes
   835 ;; Hardware stack levels used:    1
   836 ;; Hardware stack levels required when called:    4
   837 ;; This function calls:
   838 ;;		Nothing
   839 ;; This function is called by:
   840 ;;		_SYSTEM_Initialize
   841 ;; This function uses a non-reentrant model
   842 ;;
   843                           
   844                           	psect	text6
   845  002B6C                     __ptext6:
   846                           	callstack 0
   847  002B6C                     _PMD_Initialize:
   848                           	callstack 122
   849  002B6C                     
   850                           ;mcc_generated_files/mcc.c: 79:     PMD0 = 0x00;
   851  002B6C  0E00               	movlw	0
   852  002B6E  0100               	movlb	0	; () banked
   853  002B70  6F60               	movwf	96,b	;volatile
   854                           
   855                           ;mcc_generated_files/mcc.c: 81:     PMD1 = 0x00;
   856  002B72  0E00               	movlw	0
   857  002B74  6F61               	movwf	97,b	;volatile
   858                           
   859                           ;mcc_generated_files/mcc.c: 83:     PMD2 = 0x00;
   860  002B76  0E00               	movlw	0
   861  002B78  6F62               	movwf	98,b	;volatile
   862                           
   863                           ;mcc_generated_files/mcc.c: 85:     PMD3 = 0x00;
   864  002B7A  0E00               	movlw	0
   865  002B7C  6F63               	movwf	99,b	;volatile
   866                           
   867                           ;mcc_generated_files/mcc.c: 87:     PMD4 = 0x00;
   868  002B7E  0E00               	movlw	0
   869  002B80  6F64               	movwf	100,b	;volatile
   870                           
   871                           ;mcc_generated_files/mcc.c: 89:     PMD5 = 0x00;
   872  002B82  0E00               	movlw	0
   873  002B84  6F65               	movwf	101,b	;volatile
   874                           
   875                           ;mcc_generated_files/mcc.c: 91:     PMD6 = 0x00;
   876  002B86  0E00               	movlw	0
   877  002B88  6F66               	movwf	102,b	;volatile
   878                           
   879                           ;mcc_generated_files/mcc.c: 93:     PMD7 = 0x00;
   880  002B8A  0E00               	movlw	0
   881  002B8C  6F67               	movwf	103,b	;volatile
   882                           
   883                           ;mcc_generated_files/mcc.c: 95:     PMD8 = 0x00;
   884  002B8E  0E00               	movlw	0
   885  002B90  6F68               	movwf	104,b	;volatile
   886  002B92                     
   887                           ; BSR set to: 0
   888  002B92  0012               	return		;funcret
   889  002B94                     __end_of_PMD_Initialize:
   890                           	callstack 0
   891                           
   892 ;; *************** function _PIN_MANAGER_Initialize *****************
   893 ;; Defined at:
   894 ;;		line 55 in file "mcc_generated_files/pin_manager.c"
   895 ;; Parameters:    Size  Location     Type
   896 ;;		None
   897 ;; Auto vars:     Size  Location     Type
   898 ;;		None
   899 ;; Return value:  Size  Location     Type
   900 ;;                  1    wreg      void 
   901 ;; Registers used:
   902 ;;		wreg, status,2
   903 ;; Tracked objects:
   904 ;;		On entry : 0/0
   905 ;;		On exit  : 0/0
   906 ;;		Unchanged: 0/0
   907 ;; Data sizes:     COMRAM   BANK5   BANK6   BANK7   BANK8   BANK9  BANK10  BANK11  BANK12  BANK13  BANK14  BANK15  BANK1
      +6  BANK17  BANK18  BANK19  BANK20  BANK21  BANK22  BANK23  BANK24  BANK25  BANK26  BANK27  BANK28  BANK29  BANK30  BANK3
      +1  BANK32  BANK33  BANK34  BANK35  BANK36  BANK37
   908 ;;      Params:         0       0       0       0       0       0       0       0       0       0       0       0       
      +0       0       0       0       0       0       0       0       0       0       0       0       0       0       0       
      +0       0       0       0       0       0       0
   909 ;;      Locals:         0       0       0       0       0       0       0       0       0       0       0       0       
      +0       0       0       0       0       0       0       0       0       0       0       0       0       0       0       
      +0       0       0       0       0       0       0
   910 ;;      Temps:          0       0       0       0       0       0       0       0       0       0       0       0       
      +0       0       0       0       0       0       0       0       0       0       0       0       0       0       0       
      +0       0       0       0       0       0       0
   911 ;;      Totals:         0       0       0       0       0       0       0       0       0       0       0       0       
      +0       0       0       0       0       0       0       0       0       0       0       0       0       0       0       
      +0       0       0       0       0       0       0
   912 ;;Total ram usage:        0 bytes
   913 ;; Hardware stack levels used:    1
   914 ;; Hardware stack levels required when called:    4
   915 ;; This function calls:
   916 ;;		Nothing
   917 ;; This function is called by:
   918 ;;		_SYSTEM_Initialize
   919 ;; This function uses a non-reentrant model
   920 ;;
   921                           
   922                           	psect	text7
   923  002830                     __ptext7:
   924                           	callstack 0
   925  002830                     _PIN_MANAGER_Initialize:
   926                           	callstack 122
   927  002830                     
   928                           ;mcc_generated_files/pin_manager.c: 60:     LATA = 0x00;
   929  002830  0E00               	movlw	0
   930  002832  6EBE               	movwf	190,c	;volatile
   931                           
   932                           ;mcc_generated_files/pin_manager.c: 61:     LATB = 0x00;
   933  002834  0E00               	movlw	0
   934  002836  6EBF               	movwf	191,c	;volatile
   935                           
   936                           ;mcc_generated_files/pin_manager.c: 62:     LATC = 0x00;
   937  002838  0E00               	movlw	0
   938  00283A  6EC0               	movwf	192,c	;volatile
   939                           
   940                           ;mcc_generated_files/pin_manager.c: 67:     TRISE = 0x08;
   941  00283C  0E08               	movlw	8
   942  00283E  6ECA               	movwf	202,c	;volatile
   943  002840                     
   944                           ;mcc_generated_files/pin_manager.c: 68:     TRISA = 0xFF;
   945  002840  68C6               	setf	198,c	;volatile
   946                           
   947                           ;mcc_generated_files/pin_manager.c: 69:     TRISB = 0xE9;
   948  002842  0EE9               	movlw	233
   949  002844  6EC7               	movwf	199,c	;volatile
   950                           
   951                           ;mcc_generated_files/pin_manager.c: 70:     TRISC = 0xE7;
   952  002846  0EE7               	movlw	231
   953  002848  6EC8               	movwf	200,c	;volatile
   954  00284A                     
   955                           ;mcc_generated_files/pin_manager.c: 75:     ANSELC = 0xFF;
   956  00284A  0104               	movlb	4	; () banked
   957  00284C  6910               	setf	16,b	;volatile
   958                           
   959                           ;mcc_generated_files/pin_manager.c: 76:     ANSELB = 0xF1;
   960  00284E  0EF1               	movlw	241
   961  002850  6F08               	movwf	8,b	;volatile
   962  002852                     
   963                           ; BSR set to: 4
   964                           ;mcc_generated_files/pin_manager.c: 77:     ANSELA = 0xFF;
   965  002852  6900               	setf	0,b	;volatile
   966                           
   967                           ;mcc_generated_files/pin_manager.c: 82:     WPUE = 0x00;
   968  002854  0E00               	movlw	0
   969  002856  6F21               	movwf	33,b	;volatile
   970                           
   971                           ;mcc_generated_files/pin_manager.c: 83:     WPUB = 0x00;
   972  002858  0E00               	movlw	0
   973  00285A  6F09               	movwf	9,b	;volatile
   974                           
   975                           ;mcc_generated_files/pin_manager.c: 84:     WPUA = 0x00;
   976  00285C  0E00               	movlw	0
   977  00285E  6F01               	movwf	1,b	;volatile
   978                           
   979                           ;mcc_generated_files/pin_manager.c: 85:     WPUC = 0x00;
   980  002860  0E00               	movlw	0
   981  002862  6F11               	movwf	17,b	;volatile
   982                           
   983                           ;mcc_generated_files/pin_manager.c: 90:     ODCONA = 0x00;
   984  002864  0E00               	movlw	0
   985  002866  6F02               	movwf	2,b	;volatile
   986                           
   987                           ;mcc_generated_files/pin_manager.c: 91:     ODCONB = 0x00;
   988  002868  0E00               	movlw	0
   989  00286A  6F0A               	movwf	10,b	;volatile
   990                           
   991                           ;mcc_generated_files/pin_manager.c: 92:     ODCONC = 0x00;
   992  00286C  0E00               	movlw	0
   993  00286E  6F12               	movwf	18,b	;volatile
   994  002870                     
   995                           ; BSR set to: 4
   996                           ;mcc_generated_files/pin_manager.c: 97:     SLRCONA = 0xFF;
   997  002870  6903               	setf	3,b	;volatile
   998  002872                     
   999                           ; BSR set to: 4
  1000                           ;mcc_generated_files/pin_manager.c: 98:     SLRCONB = 0xFF;
  1001  002872  690B               	setf	11,b	;volatile
  1002  002874                     
  1003                           ; BSR set to: 4
  1004                           ;mcc_generated_files/pin_manager.c: 99:     SLRCONC = 0xFF;
  1005  002874  6913               	setf	19,b	;volatile
  1006  002876                     
  1007                           ; BSR set to: 4
  1008                           ;mcc_generated_files/pin_manager.c: 104:     INLVLA = 0xFF;
  1009  002876  6904               	setf	4,b	;volatile
  1010  002878                     
  1011                           ; BSR set to: 4
  1012                           ;mcc_generated_files/pin_manager.c: 105:     INLVLB = 0xFF;
  1013  002878  690C               	setf	12,b	;volatile
  1014  00287A                     
  1015                           ; BSR set to: 4
  1016                           ;mcc_generated_files/pin_manager.c: 106:     INLVLC = 0xFF;
  1017  00287A  6914               	setf	20,b	;volatile
  1018                           
  1019                           ;mcc_generated_files/pin_manager.c: 107:     INLVLE = 0x08;
  1020  00287C  0E08               	movlw	8
  1021  00287E  6F24               	movwf	36,b	;volatile
  1022                           
  1023                           ;mcc_generated_files/pin_manager.c: 116:     CANRXPPS = 0x0B;
  1024  002880  0E0B               	movlw	11
  1025  002882  0102               	movlb	2	; () banked
  1026  002884  6F3D               	movwf	61,b	;volatile
  1027                           
  1028                           ;mcc_generated_files/pin_manager.c: 117:     RB4PPS = 0x46;
  1029  002886  0E46               	movlw	70
  1030  002888  6F0D               	movwf	13,b	;volatile
  1031  00288A                     
  1032                           ; BSR set to: 2
  1033  00288A  0012               	return		;funcret
  1034  00288C                     __end_of_PIN_MANAGER_Initialize:
  1035                           	callstack 0
  1036                           
  1037 ;; *************** function _OSCILLATOR_Initialize *****************
  1038 ;; Defined at:
  1039 ;;		line 62 in file "mcc_generated_files/mcc.c"
  1040 ;; Parameters:    Size  Location     Type
  1041 ;;		None
  1042 ;; Auto vars:     Size  Location     Type
  1043 ;;		None
  1044 ;; Return value:  Size  Location     Type
  1045 ;;                  1    wreg      void 
  1046 ;; Registers used:
  1047 ;;		wreg, status,2
  1048 ;; Tracked objects:
  1049 ;;		On entry : 0/0
  1050 ;;		On exit  : 0/0
  1051 ;;		Unchanged: 0/0
  1052 ;; Data sizes:     COMRAM   BANK5   BANK6   BANK7   BANK8   BANK9  BANK10  BANK11  BANK12  BANK13  BANK14  BANK15  BANK1
      +6  BANK17  BANK18  BANK19  BANK20  BANK21  BANK22  BANK23  BANK24  BANK25  BANK26  BANK27  BANK28  BANK29  BANK30  BANK3
      +1  BANK32  BANK33  BANK34  BANK35  BANK36  BANK37
  1053 ;;      Params:         0       0       0       0       0       0       0       0       0       0       0       0       
      +0       0       0       0       0       0       0       0       0       0       0       0       0       0       0       
      +0       0       0       0       0       0       0
  1054 ;;      Locals:         0       0       0       0       0       0       0       0       0       0       0       0       
      +0       0       0       0       0       0       0       0       0       0       0       0       0       0       0       
      +0       0       0       0       0       0       0
  1055 ;;      Temps:          0       0       0       0       0       0       0       0       0       0       0       0       
      +0       0       0       0       0       0       0       0       0       0       0       0       0       0       0       
      +0       0       0       0       0       0       0
  1056 ;;      Totals:         0       0       0       0       0       0       0       0       0       0       0       0       
      +0       0       0       0       0       0       0       0       0       0       0       0       0       0       0       
      +0       0       0       0       0       0       0
  1057 ;;Total ram usage:        0 bytes
  1058 ;; Hardware stack levels used:    1
  1059 ;; Hardware stack levels required when called:    4
  1060 ;; This function calls:
  1061 ;;		Nothing
  1062 ;; This function is called by:
  1063 ;;		_SYSTEM_Initialize
  1064 ;; This function uses a non-reentrant model
  1065 ;;
  1066                           
  1067                           	psect	text8
  1068  002C1A                     __ptext8:
  1069                           	callstack 0
  1070  002C1A                     _OSCILLATOR_Initialize:
  1071                           	callstack 122
  1072  002C1A                     
  1073                           ;mcc_generated_files/mcc.c: 65:     OSCCON1 = 0x70;
  1074  002C1A  0E70               	movlw	112
  1075  002C1C  0100               	movlb	0	; () banked
  1076  002C1E  6FAD               	movwf	173,b	;volatile
  1077                           
  1078                           ;mcc_generated_files/mcc.c: 67:     OSCCON3 = 0x00;
  1079  002C20  0E00               	movlw	0
  1080  002C22  6FAF               	movwf	175,b	;volatile
  1081                           
  1082                           ;mcc_generated_files/mcc.c: 69:     OSCEN = 0x00;
  1083  002C24  0E00               	movlw	0
  1084  002C26  6FB3               	movwf	179,b	;volatile
  1085                           
  1086                           ;mcc_generated_files/mcc.c: 71:     OSCFRQ = 0x02;
  1087  002C28  0E02               	movlw	2
  1088  002C2A  6FB1               	movwf	177,b	;volatile
  1089                           
  1090                           ;mcc_generated_files/mcc.c: 73:     OSCTUNE = 0x00;
  1091  002C2C  0E00               	movlw	0
  1092  002C2E  6FB0               	movwf	176,b	;volatile
  1093  002C30                     
  1094                           ; BSR set to: 0
  1095  002C30  0012               	return		;funcret
  1096  002C32                     __end_of_OSCILLATOR_Initialize:
  1097                           	callstack 0
  1098                           
  1099 ;; *************** function _INTERRUPT_Initialize *****************
  1100 ;; Defined at:
  1101 ;;		line 52 in file "mcc_generated_files/interrupt_manager.c"
  1102 ;; Parameters:    Size  Location     Type
  1103 ;;		None
  1104 ;; Auto vars:     Size  Location     Type
  1105 ;;		None
  1106 ;; Return value:  Size  Location     Type
  1107 ;;                  1    wreg      void 
  1108 ;; Registers used:
  1109 ;;		None
  1110 ;; Tracked objects:
  1111 ;;		On entry : 0/0
  1112 ;;		On exit  : 0/0
  1113 ;;		Unchanged: 0/0
  1114 ;; Data sizes:     COMRAM   BANK5   BANK6   BANK7   BANK8   BANK9  BANK10  BANK11  BANK12  BANK13  BANK14  BANK15  BANK1
      +6  BANK17  BANK18  BANK19  BANK20  BANK21  BANK22  BANK23  BANK24  BANK25  BANK26  BANK27  BANK28  BANK29  BANK30  BANK3
      +1  BANK32  BANK33  BANK34  BANK35  BANK36  BANK37
  1115 ;;      Params:         0       0       0       0       0       0       0       0       0       0       0       0       
      +0       0       0       0       0       0       0       0       0       0       0       0       0       0       0       
      +0       0       0       0       0       0       0
  1116 ;;      Locals:         0       0       0       0       0       0       0       0       0       0       0       0       
      +0       0       0       0       0       0       0       0       0       0       0       0       0       0       0       
      +0       0       0       0       0       0       0
  1117 ;;      Temps:          0       0       0       0       0       0       0       0       0       0       0       0       
      +0       0       0       0       0       0       0       0       0       0       0       0       0       0       0       
      +0       0       0       0       0       0       0
  1118 ;;      Totals:         0       0       0       0       0       0       0       0       0       0       0       0       
      +0       0       0       0       0       0       0       0       0       0       0       0       0       0       0       
      +0       0       0       0       0       0       0
  1119 ;;Total ram usage:        0 bytes
  1120 ;; Hardware stack levels used:    1
  1121 ;; Hardware stack levels required when called:    4
  1122 ;; This function calls:
  1123 ;;		Nothing
  1124 ;; This function is called by:
  1125 ;;		_SYSTEM_Initialize
  1126 ;; This function uses a non-reentrant model
  1127 ;;
  1128                           
  1129                           	psect	text9
  1130  002CD2                     __ptext9:
  1131                           	callstack 0
  1132  002CD2                     _INTERRUPT_Initialize:
  1133                           	callstack 122
  1134  002CD2                     
  1135                           ;mcc_generated_files/interrupt_manager.c: 55:     INTCON0bits.IPEN = 0;
  1136  002CD2  9AD6               	bcf	214,5,c	;volatile
  1137  002CD4  0012               	return		;funcret
  1138  002CD6                     __end_of_INTERRUPT_Initialize:
  1139                           	callstack 0
  1140                           
  1141 ;; *************** function _CAN1_Initialize *****************
  1142 ;; Defined at:
  1143 ;;		line 237 in file "mcc_generated_files/can1.c"
  1144 ;; Parameters:    Size  Location     Type
  1145 ;;		None
  1146 ;; Auto vars:     Size  Location     Type
  1147 ;;		None
  1148 ;; Return value:  Size  Location     Type
  1149 ;;                  1    wreg      void 
  1150 ;; Registers used:
  1151 ;;		wreg, fsr2l, fsr2h, status,2, status,0, prodl, prodh, cstack
  1152 ;; Tracked objects:
  1153 ;;		On entry : 0/0
  1154 ;;		On exit  : 0/0
  1155 ;;		Unchanged: 0/0
  1156 ;; Data sizes:     COMRAM   BANK5   BANK6   BANK7   BANK8   BANK9  BANK10  BANK11  BANK12  BANK13  BANK14  BANK15  BANK1
      +6  BANK17  BANK18  BANK19  BANK20  BANK21  BANK22  BANK23  BANK24  BANK25  BANK26  BANK27  BANK28  BANK29  BANK30  BANK3
      +1  BANK32  BANK33  BANK34  BANK35  BANK36  BANK37
  1157 ;;      Params:         0       0       0       0       0       0       0       0       0       0       0       0       
      +0       0       0       0       0       0       0       0       0       0       0       0       0       0       0       
      +0       0       0       0       0       0       0
  1158 ;;      Locals:         0       0       0       0       0       0       0       0       0       0       0       0       
      +0       0       0       0       0       0       0       0       0       0       0       0       0       0       0       
      +0       0       0       0       0       0       0
  1159 ;;      Temps:          0       0       0       0       0       0       0       0       0       0       0       0       
      +0       0       0       0       0       0       0       0       0       0       0       0       0       0       0       
      +0       0       0       0       0       0       0
  1160 ;;      Totals:         0       0       0       0       0       0       0       0       0       0       0       0       
      +0       0       0       0       0       0       0       0       0       0       0       0       0       0       0       
      +0       0       0       0       0       0       0
  1161 ;;Total ram usage:        0 bytes
  1162 ;; Hardware stack levels used:    1
  1163 ;; Hardware stack levels required when called:    6
  1164 ;; This function calls:
  1165 ;;		_CAN1_BitRateConfiguration
  1166 ;;		_CAN1_ErrorNotificationInterruptEnable
  1167 ;;		_CAN1_OperationModeSet
  1168 ;;		_CAN1_RX_FIFO_Configuration
  1169 ;;		_CAN1_RX_FIFO_FilterMaskConfiguration
  1170 ;;		_CAN1_RX_FIFO_ResetInfo
  1171 ;;		_CAN1_TX_FIFO_Configuration
  1172 ;; This function is called by:
  1173 ;;		_SYSTEM_Initialize
  1174 ;; This function uses a non-reentrant model
  1175 ;;
  1176                           
  1177                           	psect	text10
  1178  0028E6                     __ptext10:
  1179                           	callstack 0
  1180  0028E6                     _CAN1_Initialize:
  1181                           	callstack 120
  1182  0028E6                     
  1183                           ;mcc_generated_files/can1.c: 240:     C1CONHbits.ON = 1;
  1184  0028E6  0101               	movlb	1	; () banked
  1185  0028E8  8F01               	bsf	1,7,b	;volatile
  1186  0028EA                     
  1187                           ; BSR set to: 1
  1188                           ;mcc_generated_files/can1.c: 242:     if (CAN_OP_MODE_REQUEST_SUCCESS == CAN1_OperationM
      +                          odeSet(CAN_CONFIGURATION_MODE))
  1189  0028EA  0E04               	movlw	4
  1190  0028EC  EC9F  F014         	call	_CAN1_OperationModeSet
  1191  0028F0  0900               	iorlw	0
  1192  0028F2  A4D8               	btfss	status,2,c
  1193  0028F4  EF7E  F014         	goto	u941
  1194  0028F8  EF80  F014         	goto	u940
  1195  0028FC                     u941:
  1196  0028FC  EF9E  F014         	goto	l149
  1197  002900                     u940:
  1198  002900                     
  1199                           ;mcc_generated_files/can1.c: 243:     {;mcc_generated_files/can1.c: 245:         C1FIFOB
      +                          A = 0x2600;
  1200  002900  0E00               	movlw	0
  1201  002902  0101               	movlb	1	; () banked
  1202  002904  6F4C               	movwf	76,b	;volatile
  1203  002906  0E26               	movlw	38
  1204  002908  6F4D               	movwf	77,b	;volatile
  1205  00290A  0E00               	movlw	0
  1206  00290C  6F4E               	movwf	78,b	;volatile
  1207  00290E  0E00               	movlw	0
  1208  002910  6F4F               	movwf	79,b	;volatile
  1209                           
  1210                           ;mcc_generated_files/can1.c: 248:         C1CONL = 0xE0;
  1211  002912  0EE0               	movlw	224
  1212  002914  6F00               	movwf	0,b	;volatile
  1213                           
  1214                           ;mcc_generated_files/can1.c: 251:         C1CONH = 0x97;
  1215  002916  0E97               	movlw	151
  1216  002918  6F01               	movwf	1,b	;volatile
  1217                           
  1218                           ;mcc_generated_files/can1.c: 254:         C1CONU = 0x10;
  1219  00291A  0E10               	movlw	16
  1220  00291C  6F02               	movwf	2,b	;volatile
  1221  00291E                     
  1222                           ; BSR set to: 1
  1223                           ;mcc_generated_files/can1.c: 256:         CAN1_BitRateConfiguration();
  1224  00291E  EC2D  F016         	call	_CAN1_BitRateConfiguration	;wreg free
  1225  002922                     
  1226                           ;mcc_generated_files/can1.c: 257:         CAN1_TX_FIFO_Configuration();
  1227  002922  EC19  F016         	call	_CAN1_TX_FIFO_Configuration	;wreg free
  1228  002926                     
  1229                           ;mcc_generated_files/can1.c: 258:         CAN1_RX_FIFO_Configuration();
  1230  002926  EC23  F016         	call	_CAN1_RX_FIFO_Configuration	;wreg free
  1231                           
  1232                           ;mcc_generated_files/can1.c: 259:         CAN1_RX_FIFO_FilterMaskConfiguration();
  1233  00292A  EC6B  F016         	call	_CAN1_RX_FIFO_FilterMaskConfiguration	;wreg free
  1234  00292E                     
  1235                           ;mcc_generated_files/can1.c: 260:         CAN1_RX_FIFO_ResetInfo();
  1236  00292E  EC74  F015         	call	_CAN1_RX_FIFO_ResetInfo	;wreg free
  1237  002932                     
  1238                           ;mcc_generated_files/can1.c: 261:         CAN1_ErrorNotificationInterruptEnable();
  1239  002932  ECE2  F013         	call	_CAN1_ErrorNotificationInterruptEnable	;wreg free
  1240  002936                     
  1241                           ;mcc_generated_files/can1.c: 262:         CAN1_OperationModeSet(CAN_NORMAL_2_0_MODE);
  1242  002936  0E06               	movlw	6
  1243  002938  EC9F  F014         	call	_CAN1_OperationModeSet
  1244  00293C                     l149:
  1245  00293C  0012               	return		;funcret
  1246  00293E                     __end_of_CAN1_Initialize:
  1247                           	callstack 0
  1248                           
  1249 ;; *************** function _CAN1_TX_FIFO_Configuration *****************
  1250 ;; Defined at:
  1251 ;;		line 179 in file "mcc_generated_files/can1.c"
  1252 ;; Parameters:    Size  Location     Type
  1253 ;;		None
  1254 ;; Auto vars:     Size  Location     Type
  1255 ;;		None
  1256 ;; Return value:  Size  Location     Type
  1257 ;;                  1    wreg      void 
  1258 ;; Registers used:
  1259 ;;		wreg, status,2
  1260 ;; Tracked objects:
  1261 ;;		On entry : 0/0
  1262 ;;		On exit  : 0/0
  1263 ;;		Unchanged: 0/0
  1264 ;; Data sizes:     COMRAM   BANK5   BANK6   BANK7   BANK8   BANK9  BANK10  BANK11  BANK12  BANK13  BANK14  BANK15  BANK1
      +6  BANK17  BANK18  BANK19  BANK20  BANK21  BANK22  BANK23  BANK24  BANK25  BANK26  BANK27  BANK28  BANK29  BANK30  BANK3
      +1  BANK32  BANK33  BANK34  BANK35  BANK36  BANK37
  1265 ;;      Params:         0       0       0       0       0       0       0       0       0       0       0       0       
      +0       0       0       0       0       0       0       0       0       0       0       0       0       0       0       
      +0       0       0       0       0       0       0
  1266 ;;      Locals:         0       0       0       0       0       0       0       0       0       0       0       0       
      +0       0       0       0       0       0       0       0       0       0       0       0       0       0       0       
      +0       0       0       0       0       0       0
  1267 ;;      Temps:          0       0       0       0       0       0       0       0       0       0       0       0       
      +0       0       0       0       0       0       0       0       0       0       0       0       0       0       0       
      +0       0       0       0       0       0       0
  1268 ;;      Totals:         0       0       0       0       0       0       0       0       0       0       0       0       
      +0       0       0       0       0       0       0       0       0       0       0       0       0       0       0       
      +0       0       0       0       0       0       0
  1269 ;;Total ram usage:        0 bytes
  1270 ;; Hardware stack levels used:    1
  1271 ;; Hardware stack levels required when called:    4
  1272 ;; This function calls:
  1273 ;;		Nothing
  1274 ;; This function is called by:
  1275 ;;		_CAN1_Initialize
  1276 ;; This function uses a non-reentrant model
  1277 ;;
  1278                           
  1279                           	psect	text11
  1280  002C32                     __ptext11:
  1281                           	callstack 0
  1282  002C32                     _CAN1_TX_FIFO_Configuration:
  1283                           	callstack 121
  1284  002C32                     
  1285                           ;mcc_generated_files/can1.c: 182:     C1TXQCONL = 0x10;
  1286  002C32  0E10               	movlw	16
  1287  002C34  0101               	movlb	1	; () banked
  1288  002C36  6F50               	movwf	80,b	;volatile
  1289                           
  1290                           ;mcc_generated_files/can1.c: 185:     C1TXQCONH = 0x04;
  1291  002C38  0E04               	movlw	4
  1292  002C3A  6F51               	movwf	81,b	;volatile
  1293                           
  1294                           ;mcc_generated_files/can1.c: 188:     C1TXQCONU = 0x60;
  1295  002C3C  0E60               	movlw	96
  1296  002C3E  6F52               	movwf	82,b	;volatile
  1297                           
  1298                           ;mcc_generated_files/can1.c: 191:     C1TXQCONT = 0x05;
  1299  002C40  0E05               	movlw	5
  1300  002C42  6F53               	movwf	83,b	;volatile
  1301  002C44                     
  1302                           ; BSR set to: 1
  1303  002C44  0012               	return		;funcret
  1304  002C46                     __end_of_CAN1_TX_FIFO_Configuration:
  1305                           	callstack 0
  1306                           
  1307 ;; *************** function _CAN1_RX_FIFO_ResetInfo *****************
  1308 ;; Defined at:
  1309 ;;		line 149 in file "mcc_generated_files/can1.c"
  1310 ;; Parameters:    Size  Location     Type
  1311 ;;		None
  1312 ;; Auto vars:     Size  Location     Type
  1313 ;;  index           1    2[COMRAM] unsigned char 
  1314 ;; Return value:  Size  Location     Type
  1315 ;;                  1    wreg      void 
  1316 ;; Registers used:
  1317 ;;		wreg, fsr2l, fsr2h, status,2, status,0, prodl, prodh
  1318 ;; Tracked objects:
  1319 ;;		On entry : 0/0
  1320 ;;		On exit  : 0/0
  1321 ;;		Unchanged: 0/0
  1322 ;; Data sizes:     COMRAM   BANK5   BANK6   BANK7   BANK8   BANK9  BANK10  BANK11  BANK12  BANK13  BANK14  BANK15  BANK1
      +6  BANK17  BANK18  BANK19  BANK20  BANK21  BANK22  BANK23  BANK24  BANK25  BANK26  BANK27  BANK28  BANK29  BANK30  BANK3
      +1  BANK32  BANK33  BANK34  BANK35  BANK36  BANK37
  1323 ;;      Params:         0       0       0       0       0       0       0       0       0       0       0       0       
      +0       0       0       0       0       0       0       0       0       0       0       0       0       0       0       
      +0       0       0       0       0       0       0
  1324 ;;      Locals:         1       0       0       0       0       0       0       0       0       0       0       0       
      +0       0       0       0       0       0       0       0       0       0       0       0       0       0       0       
      +0       0       0       0       0       0       0
  1325 ;;      Temps:          0       0       0       0       0       0       0       0       0       0       0       0       
      +0       0       0       0       0       0       0       0       0       0       0       0       0       0       0       
      +0       0       0       0       0       0       0
  1326 ;;      Totals:         1       0       0       0       0       0       0       0       0       0       0       0       
      +0       0       0       0       0       0       0       0       0       0       0       0       0       0       0       
      +0       0       0       0       0       0       0
  1327 ;;Total ram usage:        1 bytes
  1328 ;; Hardware stack levels used:    1
  1329 ;; Hardware stack levels required when called:    4
  1330 ;; This function calls:
  1331 ;;		Nothing
  1332 ;; This function is called by:
  1333 ;;		_CAN1_Initialize
  1334 ;; This function uses a non-reentrant model
  1335 ;;
  1336                           
  1337                           	psect	text12
  1338  002AE8                     __ptext12:
  1339                           	callstack 0
  1340  002AE8                     _CAN1_RX_FIFO_ResetInfo:
  1341                           	callstack 121
  1342  002AE8                     
  1343                           ;mcc_generated_files/can1.c: 151:     uint8_t index;;mcc_generated_files/can1.c: 153:   
      +                            for (index = 0; index < (1U); index++)
  1344  002AE8  0E00               	movlw	0
  1345  002AEA  6E4F               	movwf	CAN1_RX_FIFO_ResetInfo@index^(0+1280),c
  1346  002AEC                     l1379:
  1347                           
  1348                           ;mcc_generated_files/can1.c: 154:     {;mcc_generated_files/can1.c: 155:         rxFifos
      +                          [index].fifoHead = 0;
  1349  002AEC  504F               	movf	CAN1_RX_FIFO_ResetInfo@index^(0+1280),w,c
  1350  002AEE  0D02               	mullw	2
  1351  002AF0  0E26               	movlw	low (_rxFifos+1)
  1352  002AF2  24F3               	addwf	243,w,c
  1353  002AF4  6ED9               	movwf	fsr2l,c
  1354  002AF6  0E05               	movlw	high (_rxFifos+1)
  1355  002AF8  20F4               	addwfc	prodh,w,c
  1356  002AFA  6EDA               	movwf	fsr2h,c
  1357  002AFC  0E00               	movlw	0
  1358  002AFE  6EDF               	movwf	indf2,c
  1359  002B00                     
  1360                           ;mcc_generated_files/can1.c: 156:     }
  1361  002B00  2A4F               	incf	CAN1_RX_FIFO_ResetInfo@index^(0+1280),f,c
  1362  002B02  504F               	movf	CAN1_RX_FIFO_ResetInfo@index^(0+1280),w,c
  1363  002B04  B4D8               	btfsc	status,2,c
  1364  002B06  EF87  F015         	goto	u11
  1365  002B0A  EF89  F015         	goto	u10
  1366  002B0E                     u11:
  1367  002B0E  EF76  F015         	goto	l1379
  1368  002B12                     u10:
  1369  002B12  0012               	return		;funcret
  1370  002B14                     __end_of_CAN1_RX_FIFO_ResetInfo:
  1371                           	callstack 0
  1372                           
  1373 ;; *************** function _CAN1_RX_FIFO_FilterMaskConfiguration *****************
  1374 ;; Defined at:
  1375 ;;		line 175 in file "mcc_generated_files/can1.c"
  1376 ;; Parameters:    Size  Location     Type
  1377 ;;		None
  1378 ;; Auto vars:     Size  Location     Type
  1379 ;;		None
  1380 ;; Return value:  Size  Location     Type
  1381 ;;                  1    wreg      void 
  1382 ;; Registers used:
  1383 ;;		None
  1384 ;; Tracked objects:
  1385 ;;		On entry : 0/0
  1386 ;;		On exit  : 0/0
  1387 ;;		Unchanged: 0/0
  1388 ;; Data sizes:     COMRAM   BANK5   BANK6   BANK7   BANK8   BANK9  BANK10  BANK11  BANK12  BANK13  BANK14  BANK15  BANK1
      +6  BANK17  BANK18  BANK19  BANK20  BANK21  BANK22  BANK23  BANK24  BANK25  BANK26  BANK27  BANK28  BANK29  BANK30  BANK3
      +1  BANK32  BANK33  BANK34  BANK35  BANK36  BANK37
  1389 ;;      Params:         0       0       0       0       0       0       0       0       0       0       0       0       
      +0       0       0       0       0       0       0       0       0       0       0       0       0       0       0       
      +0       0       0       0       0       0       0
  1390 ;;      Locals:         0       0       0       0       0       0       0       0       0       0       0       0       
      +0       0       0       0       0       0       0       0       0       0       0       0       0       0       0       
      +0       0       0       0       0       0       0
  1391 ;;      Temps:          0       0       0       0       0       0       0       0       0       0       0       0       
      +0       0       0       0       0       0       0       0       0       0       0       0       0       0       0       
      +0       0       0       0       0       0       0
  1392 ;;      Totals:         0       0       0       0       0       0       0       0       0       0       0       0       
      +0       0       0       0       0       0       0       0       0       0       0       0       0       0       0       
      +0       0       0       0       0       0       0
  1393 ;;Total ram usage:        0 bytes
  1394 ;; Hardware stack levels used:    1
  1395 ;; Hardware stack levels required when called:    4
  1396 ;; This function calls:
  1397 ;;		Nothing
  1398 ;; This function is called by:
  1399 ;;		_CAN1_Initialize
  1400 ;; This function uses a non-reentrant model
  1401 ;;
  1402                           
  1403                           	psect	text13
  1404  002CD6                     __ptext13:
  1405                           	callstack 0
  1406  002CD6                     _CAN1_RX_FIFO_FilterMaskConfiguration:
  1407                           	callstack 121
  1408  002CD6  0012               	return		;funcret
  1409  002CD8                     __end_of_CAN1_RX_FIFO_FilterMaskConfiguration:
  1410                           	callstack 0
  1411                           
  1412 ;; *************** function _CAN1_RX_FIFO_Configuration *****************
  1413 ;; Defined at:
  1414 ;;		line 159 in file "mcc_generated_files/can1.c"
  1415 ;; Parameters:    Size  Location     Type
  1416 ;;		None
  1417 ;; Auto vars:     Size  Location     Type
  1418 ;;		None
  1419 ;; Return value:  Size  Location     Type
  1420 ;;                  1    wreg      void 
  1421 ;; Registers used:
  1422 ;;		wreg, status,2
  1423 ;; Tracked objects:
  1424 ;;		On entry : 0/0
  1425 ;;		On exit  : 0/0
  1426 ;;		Unchanged: 0/0
  1427 ;; Data sizes:     COMRAM   BANK5   BANK6   BANK7   BANK8   BANK9  BANK10  BANK11  BANK12  BANK13  BANK14  BANK15  BANK1
      +6  BANK17  BANK18  BANK19  BANK20  BANK21  BANK22  BANK23  BANK24  BANK25  BANK26  BANK27  BANK28  BANK29  BANK30  BANK3
      +1  BANK32  BANK33  BANK34  BANK35  BANK36  BANK37
  1428 ;;      Params:         0       0       0       0       0       0       0       0       0       0       0       0       
      +0       0       0       0       0       0       0       0       0       0       0       0       0       0       0       
      +0       0       0       0       0       0       0
  1429 ;;      Locals:         0       0       0       0       0       0       0       0       0       0       0       0       
      +0       0       0       0       0       0       0       0       0       0       0       0       0       0       0       
      +0       0       0       0       0       0       0
  1430 ;;      Temps:          0       0       0       0       0       0       0       0       0       0       0       0       
      +0       0       0       0       0       0       0       0       0       0       0       0       0       0       0       
      +0       0       0       0       0       0       0
  1431 ;;      Totals:         0       0       0       0       0       0       0       0       0       0       0       0       
      +0       0       0       0       0       0       0       0       0       0       0       0       0       0       0       
      +0       0       0       0       0       0       0
  1432 ;;Total ram usage:        0 bytes
  1433 ;; Hardware stack levels used:    1
  1434 ;; Hardware stack levels required when called:    4
  1435 ;; This function calls:
  1436 ;;		Nothing
  1437 ;; This function is called by:
  1438 ;;		_CAN1_Initialize
  1439 ;; This function uses a non-reentrant model
  1440 ;;
  1441                           
  1442                           	psect	text14
  1443  002C46                     __ptext14:
  1444                           	callstack 0
  1445  002C46                     _CAN1_RX_FIFO_Configuration:
  1446                           	callstack 121
  1447  002C46                     
  1448                           ;mcc_generated_files/can1.c: 162:     C1FIFOCON1L = 0x18;
  1449  002C46  0E18               	movlw	24
  1450  002C48  0101               	movlb	1	; () banked
  1451  002C4A  6F5C               	movwf	92,b	;volatile
  1452                           
  1453                           ;mcc_generated_files/can1.c: 165:     C1FIFOCON1H = 0x04;
  1454  002C4C  0E04               	movlw	4
  1455  002C4E  6F5D               	movwf	93,b	;volatile
  1456                           
  1457                           ;mcc_generated_files/can1.c: 168:     C1FIFOCON1U = 0x60;
  1458  002C50  0E60               	movlw	96
  1459  002C52  6F5E               	movwf	94,b	;volatile
  1460                           
  1461                           ;mcc_generated_files/can1.c: 171:     C1FIFOCON1T = 0x05;
  1462  002C54  0E05               	movlw	5
  1463  002C56  6F5F               	movwf	95,b	;volatile
  1464  002C58                     
  1465                           ; BSR set to: 1
  1466  002C58  0012               	return		;funcret
  1467  002C5A                     __end_of_CAN1_RX_FIFO_Configuration:
  1468                           	callstack 0
  1469                           
  1470 ;; *************** function _CAN1_OperationModeSet *****************
  1471 ;; Defined at:
  1472 ;;		line 266 in file "mcc_generated_files/can1.c"
  1473 ;; Parameters:    Size  Location     Type
  1474 ;;  requestMode     1    wreg     const enum E22346
  1475 ;; Auto vars:     Size  Location     Type
  1476 ;;  requestMode     1    4[COMRAM] const enum E22346
  1477 ;;  status          1    3[COMRAM] enum E22356
  1478 ;;  opMode          1    2[COMRAM] enum E22346
  1479 ;; Return value:  Size  Location     Type
  1480 ;;                  1    wreg      enum E22356
  1481 ;; Registers used:
  1482 ;;		wreg, status,2, status,0, cstack
  1483 ;; Tracked objects:
  1484 ;;		On entry : 0/0
  1485 ;;		On exit  : 0/0
  1486 ;;		Unchanged: 0/0
  1487 ;; Data sizes:     COMRAM   BANK5   BANK6   BANK7   BANK8   BANK9  BANK10  BANK11  BANK12  BANK13  BANK14  BANK15  BANK1
      +6  BANK17  BANK18  BANK19  BANK20  BANK21  BANK22  BANK23  BANK24  BANK25  BANK26  BANK27  BANK28  BANK29  BANK30  BANK3
      +1  BANK32  BANK33  BANK34  BANK35  BANK36  BANK37
  1488 ;;      Params:         0       0       0       0       0       0       0       0       0       0       0       0       
      +0       0       0       0       0       0       0       0       0       0       0       0       0       0       0       
      +0       0       0       0       0       0       0
  1489 ;;      Locals:         3       0       0       0       0       0       0       0       0       0       0       0       
      +0       0       0       0       0       0       0       0       0       0       0       0       0       0       0       
      +0       0       0       0       0       0       0
  1490 ;;      Temps:          0       0       0       0       0       0       0       0       0       0       0       0       
      +0       0       0       0       0       0       0       0       0       0       0       0       0       0       0       
      +0       0       0       0       0       0       0
  1491 ;;      Totals:         3       0       0       0       0       0       0       0       0       0       0       0       
      +0       0       0       0       0       0       0       0       0       0       0       0       0       0       0       
      +0       0       0       0       0       0       0
  1492 ;;Total ram usage:        3 bytes
  1493 ;; Hardware stack levels used:    1
  1494 ;; Hardware stack levels required when called:    5
  1495 ;; This function calls:
  1496 ;;		_CAN1_OperationModeGet
  1497 ;; This function is called by:
  1498 ;;		_CAN1_Initialize
  1499 ;;		_CAN1_Sleep
  1500 ;;		_CANWriteMessage
  1501 ;; This function uses a non-reentrant model
  1502 ;;
  1503                           
  1504                           	psect	text15
  1505  00293E                     __ptext15:
  1506                           	callstack 0
  1507  00293E                     _CAN1_OperationModeSet:
  1508                           	callstack 120
  1509                           
  1510                           ; BSR set to: 1
  1511                           ;incstack = 0
  1512                           ;CAN1_OperationModeSet@requestMode stored from wreg
  1513  00293E  6E51               	movwf	CAN1_OperationModeSet@requestMode^(0+1280),c
  1514  002940                     
  1515                           ;mcc_generated_files/can1.c: 266: CAN_OP_MODE_STATUS CAN1_OperationModeSet(const CAN_OP_
      +                          MODES requestMode);mcc_generated_files/can1.c: 267: {;mcc_generated_files/can1.c: 268:  
      +                             CAN_OP_MODE_STATUS status = CAN_OP_MODE_REQUEST_SUCCESS;
  1516  002940  0E00               	movlw	0
  1517  002942  6E50               	movwf	CAN1_OperationModeSet@status^(0+1280),c
  1518  002944                     
  1519                           ;mcc_generated_files/can1.c: 269:     CAN_OP_MODES opMode = CAN1_OperationModeGet();
  1520  002944  EC41  F016         	call	_CAN1_OperationModeGet	;wreg free
  1521  002948  6E4F               	movwf	CAN1_OperationModeSet@opMode^(0+1280),c
  1522  00294A                     
  1523                           ;mcc_generated_files/can1.c: 271:     if (CAN_CONFIGURATION_MODE == opMode
  1524  00294A  0E04               	movlw	4
  1525  00294C  184F               	xorwf	CAN1_OperationModeSet@opMode^(0+1280),w,c
  1526  00294E  B4D8               	btfsc	status,2,c
  1527  002950  EFAC  F014         	goto	u21
  1528  002954  EFAE  F014         	goto	u20
  1529  002958                     u21:
  1530  002958  EFBF  F014         	goto	l1415
  1531  00295C                     u20:
  1532  00295C  0451               	decf	CAN1_OperationModeSet@requestMode^(0+1280),w,c
  1533  00295E  B4D8               	btfsc	status,2,c
  1534  002960  EFB4  F014         	goto	u31
  1535  002964  EFB6  F014         	goto	u30
  1536  002968                     u31:
  1537  002968  EFBF  F014         	goto	l1415
  1538  00296C                     u30:
  1539  00296C  0E04               	movlw	4
  1540  00296E  1851               	xorwf	CAN1_OperationModeSet@requestMode^(0+1280),w,c
  1541  002970  A4D8               	btfss	status,2,c
  1542  002972  EFBD  F014         	goto	u41
  1543  002976  EFBF  F014         	goto	u40
  1544  00297A                     u41:
  1545  00297A  EFC7  F014         	goto	l1417
  1546  00297E                     u40:
  1547  00297E                     l1415:
  1548                           
  1549                           ;mcc_generated_files/can1.c: 274:     {;mcc_generated_files/can1.c: 275:         C1CONTb
      +                          its.REQOP = requestMode;
  1550  00297E  0101               	movlb	1	; () banked
  1551  002980  5103               	movf	3,w,b	;volatile
  1552  002982  1851               	xorwf	CAN1_OperationModeSet@requestMode^(0+1280),w,c
  1553  002984  0BF8               	andlw	-8
  1554  002986  1851               	xorwf	CAN1_OperationModeSet@requestMode^(0+1280),w,c
  1555  002988  6F03               	movwf	3,b	;volatile
  1556                           
  1557                           ;mcc_generated_files/can1.c: 286:     }
  1558  00298A  EFC9  F014         	goto	l155
  1559  00298E                     l1417:
  1560                           
  1561                           ;mcc_generated_files/can1.c: 288:     {;mcc_generated_files/can1.c: 289:         status 
      +                          = CAN_OP_MODE_REQUEST_FAIL;
  1562  00298E  0E01               	movlw	1
  1563  002990  6E50               	movwf	CAN1_OperationModeSet@status^(0+1280),c
  1564  002992                     l155:
  1565                           
  1566                           ;mcc_generated_files/can1.c: 292:     return status;
  1567  002992  5050               	movf	CAN1_OperationModeSet@status^(0+1280),w,c
  1568  002994  0012               	return		;funcret
  1569  002996                     __end_of_CAN1_OperationModeSet:
  1570                           	callstack 0
  1571                           
  1572 ;; *************** function _CAN1_OperationModeGet *****************
  1573 ;; Defined at:
  1574 ;;		line 295 in file "mcc_generated_files/can1.c"
  1575 ;; Parameters:    Size  Location     Type
  1576 ;;		None
  1577 ;; Auto vars:     Size  Location     Type
  1578 ;;		None
  1579 ;; Return value:  Size  Location     Type
  1580 ;;                  1    wreg      enum E22346
  1581 ;; Registers used:
  1582 ;;		wreg, status,2, status,0
  1583 ;; Tracked objects:
  1584 ;;		On entry : 0/0
  1585 ;;		On exit  : 0/0
  1586 ;;		Unchanged: 0/0
  1587 ;; Data sizes:     COMRAM   BANK5   BANK6   BANK7   BANK8   BANK9  BANK10  BANK11  BANK12  BANK13  BANK14  BANK15  BANK1
      +6  BANK17  BANK18  BANK19  BANK20  BANK21  BANK22  BANK23  BANK24  BANK25  BANK26  BANK27  BANK28  BANK29  BANK30  BANK3
      +1  BANK32  BANK33  BANK34  BANK35  BANK36  BANK37
  1588 ;;      Params:         0       0       0       0       0       0       0       0       0       0       0       0       
      +0       0       0       0       0       0       0       0       0       0       0       0       0       0       0       
      +0       0       0       0       0       0       0
  1589 ;;      Locals:         0       0       0       0       0       0       0       0       0       0       0       0       
      +0       0       0       0       0       0       0       0       0       0       0       0       0       0       0       
      +0       0       0       0       0       0       0
  1590 ;;      Temps:          0       0       0       0       0       0       0       0       0       0       0       0       
      +0       0       0       0       0       0       0       0       0       0       0       0       0       0       0       
      +0       0       0       0       0       0       0
  1591 ;;      Totals:         0       0       0       0       0       0       0       0       0       0       0       0       
      +0       0       0       0       0       0       0       0       0       0       0       0       0       0       0       
      +0       0       0       0       0       0       0
  1592 ;;Total ram usage:        0 bytes
  1593 ;; Hardware stack levels used:    1
  1594 ;; Hardware stack levels required when called:    4
  1595 ;; This function calls:
  1596 ;;		Nothing
  1597 ;; This function is called by:
  1598 ;;		_CAN1_OperationModeSet
  1599 ;;		_ValidateTransmission
  1600 ;;		_CANWriteMessage
  1601 ;; This function uses a non-reentrant model
  1602 ;;
  1603                           
  1604                           	psect	text16
  1605  002C82                     __ptext16:
  1606                           	callstack 0
  1607  002C82                     _CAN1_OperationModeGet:
  1608                           	callstack 120
  1609  002C82                     
  1610                           ;mcc_generated_files/can1.c: 297:     return C1CONUbits.OPMOD;
  1611  002C82  0101               	movlb	1	; () banked
  1612  002C84  3902               	swapf	2,w,b	;volatile
  1613  002C86  32E8               	rrcf	wreg,f,c
  1614  002C88  0B07               	andlw	7
  1615  002C8A                     
  1616                           ; BSR set to: 1
  1617  002C8A  0012               	return		;funcret
  1618  002C8C                     __end_of_CAN1_OperationModeGet:
  1619                           	callstack 0
  1620                           
  1621 ;; *************** function _CAN1_ErrorNotificationInterruptEnable *****************
  1622 ;; Defined at:
  1623 ;;		line 211 in file "mcc_generated_files/can1.c"
  1624 ;; Parameters:    Size  Location     Type
  1625 ;;		None
  1626 ;; Auto vars:     Size  Location     Type
  1627 ;;		None
  1628 ;; Return value:  Size  Location     Type
  1629 ;;                  1    wreg      void 
  1630 ;; Registers used:
  1631 ;;		wreg, status,2, status,0, cstack
  1632 ;; Tracked objects:
  1633 ;;		On entry : 0/0
  1634 ;;		On exit  : 0/0
  1635 ;;		Unchanged: 0/0
  1636 ;; Data sizes:     COMRAM   BANK5   BANK6   BANK7   BANK8   BANK9  BANK10  BANK11  BANK12  BANK13  BANK14  BANK15  BANK1
      +6  BANK17  BANK18  BANK19  BANK20  BANK21  BANK22  BANK23  BANK24  BANK25  BANK26  BANK27  BANK28  BANK29  BANK30  BANK3
      +1  BANK32  BANK33  BANK34  BANK35  BANK36  BANK37
  1637 ;;      Params:         0       0       0       0       0       0       0       0       0       0       0       0       
      +0       0       0       0       0       0       0       0       0       0       0       0       0       0       0       
      +0       0       0       0       0       0       0
  1638 ;;      Locals:         0       0       0       0       0       0       0       0       0       0       0       0       
      +0       0       0       0       0       0       0       0       0       0       0       0       0       0       0       
      +0       0       0       0       0       0       0
  1639 ;;      Temps:          0       0       0       0       0       0       0       0       0       0       0       0       
      +0       0       0       0       0       0       0       0       0       0       0       0       0       0       0       
      +0       0       0       0       0       0       0
  1640 ;;      Totals:         0       0       0       0       0       0       0       0       0       0       0       0       
      +0       0       0       0       0       0       0       0       0       0       0       0       0       0       0       
      +0       0       0       0       0       0       0
  1641 ;;Total ram usage:        0 bytes
  1642 ;; Hardware stack levels used:    1
  1643 ;; Hardware stack levels required when called:    5
  1644 ;; This function calls:
  1645 ;;		_CAN1_SetBusErrorInterruptHandler
  1646 ;;		_CAN1_SetBusWakeUpActivityInterruptHandler
  1647 ;;		_CAN1_SetInvalidMessageInterruptHandler
  1648 ;;		_CAN1_SetModeChangeInterruptHandler
  1649 ;;		_CAN1_SetRxBufferOverFlowInterruptHandler
  1650 ;;		_CAN1_SetSystemErrorInterruptHandler
  1651 ;;		_CAN1_SetTxAttemptInterruptHandler
  1652 ;; This function is called by:
  1653 ;;		_CAN1_Initialize
  1654 ;; This function uses a non-reentrant model
  1655 ;;
  1656                           
  1657                           	psect	text17
  1658  0027C4                     __ptext17:
  1659                           	callstack 0
  1660  0027C4                     _CAN1_ErrorNotificationInterruptEnable:
  1661                           	callstack 120
  1662  0027C4                     
  1663                           ;mcc_generated_files/can1.c: 213:     CAN1_SetInvalidMessageInterruptHandler(DefaultInva
      +                          lidMessageHandler);
  1664  0027C4  0EE4               	movlw	low _DefaultInvalidMessageHandler
  1665  0027C6  6E4F               	movwf	CAN1_SetInvalidMessageInterruptHandler@handler^(0+1280),c
  1666  0027C8  0E2C               	movlw	high _DefaultInvalidMessageHandler
  1667  0027CA  6E50               	movwf	(CAN1_SetInvalidMessageInterruptHandler@handler+1)^(0+1280),c
  1668  0027CC  EC5A  F016         	call	_CAN1_SetInvalidMessageInterruptHandler	;wreg free
  1669                           
  1670                           ;mcc_generated_files/can1.c: 214:     CAN1_SetBusWakeUpActivityInterruptHandler(DefaultB
      +                          usWakeUpActivityHandler);
  1671  0027D0  0EE6               	movlw	low _DefaultBusWakeUpActivityHandler
  1672  0027D2  6E4F               	movwf	CAN1_SetBusWakeUpActivityInterruptHandler@handler^(0+1280),c
  1673  0027D4  0E2C               	movlw	high _DefaultBusWakeUpActivityHandler
  1674  0027D6  6E50               	movwf	(CAN1_SetBusWakeUpActivityInterruptHandler@handler+1)^(0+1280),c
  1675  0027D8  EC5F  F016         	call	_CAN1_SetBusWakeUpActivityInterruptHandler	;wreg free
  1676                           
  1677                           ;mcc_generated_files/can1.c: 215:     CAN1_SetBusErrorInterruptHandler(DefaultBusErrorHa
      +                          ndler);
  1678  0027DC  0EE8               	movlw	low _DefaultBusErrorHandler
  1679  0027DE  6E4F               	movwf	CAN1_SetBusErrorInterruptHandler@handler^(0+1280),c
  1680  0027E0  0E2C               	movlw	high _DefaultBusErrorHandler
  1681  0027E2  6E50               	movwf	(CAN1_SetBusErrorInterruptHandler@handler+1)^(0+1280),c
  1682  0027E4  EC64  F016         	call	_CAN1_SetBusErrorInterruptHandler	;wreg free
  1683                           
  1684                           ;mcc_generated_files/can1.c: 216:     CAN1_SetModeChangeInterruptHandler(DefaultModeChan
      +                          geHandler);
  1685  0027E8  0EE2               	movlw	low _DefaultModeChangeHandler
  1686  0027EA  6E4F               	movwf	CAN1_SetModeChangeInterruptHandler@handler^(0+1280),c
  1687  0027EC  0E2C               	movlw	high _DefaultModeChangeHandler
  1688  0027EE  6E50               	movwf	(CAN1_SetModeChangeInterruptHandler@handler+1)^(0+1280),c
  1689  0027F0  EC55  F016         	call	_CAN1_SetModeChangeInterruptHandler	;wreg free
  1690                           
  1691                           ;mcc_generated_files/can1.c: 217:     CAN1_SetSystemErrorInterruptHandler(DefaultSystemE
      +                          rrorHandler);
  1692  0027F4  0EDE               	movlw	low _DefaultSystemErrorHandler
  1693  0027F6  6E4F               	movwf	CAN1_SetSystemErrorInterruptHandler@handler^(0+1280),c
  1694  0027F8  0E2C               	movlw	high _DefaultSystemErrorHandler
  1695  0027FA  6E50               	movwf	(CAN1_SetSystemErrorInterruptHandler@handler+1)^(0+1280),c
  1696  0027FC  EC4B  F016         	call	_CAN1_SetSystemErrorInterruptHandler	;wreg free
  1697                           
  1698                           ;mcc_generated_files/can1.c: 218:     CAN1_SetTxAttemptInterruptHandler(DefaultTxAttempt
      +                          Handler);
  1699  002800  0EDC               	movlw	low _DefaultTxAttemptHandler
  1700  002802  6E4F               	movwf	CAN1_SetTxAttemptInterruptHandler@handler^(0+1280),c
  1701  002804  0E2C               	movlw	high _DefaultTxAttemptHandler
  1702  002806  6E50               	movwf	(CAN1_SetTxAttemptInterruptHandler@handler+1)^(0+1280),c
  1703  002808  EC46  F016         	call	_CAN1_SetTxAttemptInterruptHandler	;wreg free
  1704                           
  1705                           ;mcc_generated_files/can1.c: 219:     CAN1_SetRxBufferOverFlowInterruptHandler(DefaultRx
      +                          BufferOverflowHandler);
  1706  00280C  0EE0               	movlw	low _DefaultRxBufferOverflowHandler
  1707  00280E  6E4F               	movwf	CAN1_SetRxBufferOverFlowInterruptHandler@handler^(0+1280),c
  1708  002810  0E2C               	movlw	high _DefaultRxBufferOverflowHandler
  1709  002812  6E50               	movwf	(CAN1_SetRxBufferOverFlowInterruptHandler@handler+1)^(0+1280),c
  1710  002814  EC50  F016         	call	_CAN1_SetRxBufferOverFlowInterruptHandler	;wreg free
  1711  002818                     
  1712                           ;mcc_generated_files/can1.c: 220:     PIR0bits.CANIF = 0;
  1713  002818  9CAE               	bcf	174,6,c	;volatile
  1714  00281A                     
  1715                           ;mcc_generated_files/can1.c: 223:     C1INTL = 0x00;
  1716  00281A  0E00               	movlw	0
  1717  00281C  0101               	movlb	1	; () banked
  1718  00281E  6F1C               	movwf	28,b	;volatile
  1719  002820                     
  1720                           ; BSR set to: 1
  1721                           ;mcc_generated_files/can1.c: 226:     C1INTH = 0x00;
  1722  002820  0E00               	movlw	0
  1723  002822  6F1D               	movwf	29,b	;volatile
  1724  002824                     
  1725                           ; BSR set to: 1
  1726                           ;mcc_generated_files/can1.c: 229:     C1INTU = 0x08;
  1727  002824  0E08               	movlw	8
  1728  002826  6F1E               	movwf	30,b	;volatile
  1729  002828                     
  1730                           ; BSR set to: 1
  1731                           ;mcc_generated_files/can1.c: 232:     C1INTT = 0xFC;
  1732  002828  0EFC               	movlw	252
  1733  00282A  6F1F               	movwf	31,b	;volatile
  1734  00282C                     
  1735                           ; BSR set to: 1
  1736                           ;mcc_generated_files/can1.c: 234:     PIE0bits.CANIE = 1;
  1737  00282C  8C9E               	bsf	158,6,c	;volatile
  1738  00282E                     
  1739                           ; BSR set to: 1
  1740  00282E  0012               	return		;funcret
  1741  002830                     __end_of_CAN1_ErrorNotificationInterruptEnable:
  1742                           	callstack 0
  1743                           
  1744 ;; *************** function _CAN1_SetTxAttemptInterruptHandler *****************
  1745 ;; Defined at:
  1746 ;;		line 608 in file "mcc_generated_files/can1.c"
  1747 ;; Parameters:    Size  Location     Type
  1748 ;;  handler         2    2[COMRAM] PTR FTN()void 
  1749 ;;		 -> DefaultTxAttemptHandler(1), 
  1750 ;; Auto vars:     Size  Location     Type
  1751 ;;		None
  1752 ;; Return value:  Size  Location     Type
  1753 ;;                  1    wreg      void 
  1754 ;; Registers used:
  1755 ;;		wreg, status,2, status,0
  1756 ;; Tracked objects:
  1757 ;;		On entry : 0/0
  1758 ;;		On exit  : 0/0
  1759 ;;		Unchanged: 0/0
  1760 ;; Data sizes:     COMRAM   BANK5   BANK6   BANK7   BANK8   BANK9  BANK10  BANK11  BANK12  BANK13  BANK14  BANK15  BANK1
      +6  BANK17  BANK18  BANK19  BANK20  BANK21  BANK22  BANK23  BANK24  BANK25  BANK26  BANK27  BANK28  BANK29  BANK30  BANK3
      +1  BANK32  BANK33  BANK34  BANK35  BANK36  BANK37
  1761 ;;      Params:         2       0       0       0       0       0       0       0       0       0       0       0       
      +0       0       0       0       0       0       0       0       0       0       0       0       0       0       0       
      +0       0       0       0       0       0       0
  1762 ;;      Locals:         0       0       0       0       0       0       0       0       0       0       0       0       
      +0       0       0       0       0       0       0       0       0       0       0       0       0       0       0       
      +0       0       0       0       0       0       0
  1763 ;;      Temps:          0       0       0       0       0       0       0       0       0       0       0       0       
      +0       0       0       0       0       0       0       0       0       0       0       0       0       0       0       
      +0       0       0       0       0       0       0
  1764 ;;      Totals:         2       0       0       0       0       0       0       0       0       0       0       0       
      +0       0       0       0       0       0       0       0       0       0       0       0       0       0       0       
      +0       0       0       0       0       0       0
  1765 ;;Total ram usage:        2 bytes
  1766 ;; Hardware stack levels used:    1
  1767 ;; Hardware stack levels required when called:    4
  1768 ;; This function calls:
  1769 ;;		Nothing
  1770 ;; This function is called by:
  1771 ;;		_CAN1_ErrorNotificationInterruptEnable
  1772 ;; This function uses a non-reentrant model
  1773 ;;
  1774                           
  1775                           	psect	text18
  1776  002C8C                     __ptext18:
  1777                           	callstack 0
  1778  002C8C                     _CAN1_SetTxAttemptInterruptHandler:
  1779                           	callstack 120
  1780  002C8C                     
  1781                           ;mcc_generated_files/can1.c: 608: void CAN1_SetTxAttemptInterruptHandler(void (*handler)
      +                          (void));mcc_generated_files/can1.c: 609: {;mcc_generated_files/can1.c: 610:     CAN1_TxA
      +                          ttemptHandler = handler;
  1782  002C8C  C54F  F507         	movff	CAN1_SetTxAttemptInterruptHandler@handler,_CAN1_TxAttemptHandler
  1783  002C90  C550  F508         	movff	CAN1_SetTxAttemptInterruptHandler@handler+1,_CAN1_TxAttemptHandler+1
  1784  002C94  0012               	return		;funcret
  1785  002C96                     __end_of_CAN1_SetTxAttemptInterruptHandler:
  1786                           	callstack 0
  1787                           
  1788 ;; *************** function _CAN1_SetSystemErrorInterruptHandler *****************
  1789 ;; Defined at:
  1790 ;;		line 603 in file "mcc_generated_files/can1.c"
  1791 ;; Parameters:    Size  Location     Type
  1792 ;;  handler         2    2[COMRAM] PTR FTN()void 
  1793 ;;		 -> DefaultSystemErrorHandler(1), 
  1794 ;; Auto vars:     Size  Location     Type
  1795 ;;		None
  1796 ;; Return value:  Size  Location     Type
  1797 ;;                  1    wreg      void 
  1798 ;; Registers used:
  1799 ;;		wreg, status,2, status,0
  1800 ;; Tracked objects:
  1801 ;;		On entry : 0/0
  1802 ;;		On exit  : 0/0
  1803 ;;		Unchanged: 0/0
  1804 ;; Data sizes:     COMRAM   BANK5   BANK6   BANK7   BANK8   BANK9  BANK10  BANK11  BANK12  BANK13  BANK14  BANK15  BANK1
      +6  BANK17  BANK18  BANK19  BANK20  BANK21  BANK22  BANK23  BANK24  BANK25  BANK26  BANK27  BANK28  BANK29  BANK30  BANK3
      +1  BANK32  BANK33  BANK34  BANK35  BANK36  BANK37
  1805 ;;      Params:         2       0       0       0       0       0       0       0       0       0       0       0       
      +0       0       0       0       0       0       0       0       0       0       0       0       0       0       0       
      +0       0       0       0       0       0       0
  1806 ;;      Locals:         0       0       0       0       0       0       0       0       0       0       0       0       
      +0       0       0       0       0       0       0       0       0       0       0       0       0       0       0       
      +0       0       0       0       0       0       0
  1807 ;;      Temps:          0       0       0       0       0       0       0       0       0       0       0       0       
      +0       0       0       0       0       0       0       0       0       0       0       0       0       0       0       
      +0       0       0       0       0       0       0
  1808 ;;      Totals:         2       0       0       0       0       0       0       0       0       0       0       0       
      +0       0       0       0       0       0       0       0       0       0       0       0       0       0       0       
      +0       0       0       0       0       0       0
  1809 ;;Total ram usage:        2 bytes
  1810 ;; Hardware stack levels used:    1
  1811 ;; Hardware stack levels required when called:    4
  1812 ;; This function calls:
  1813 ;;		Nothing
  1814 ;; This function is called by:
  1815 ;;		_CAN1_ErrorNotificationInterruptEnable
  1816 ;; This function uses a non-reentrant model
  1817 ;;
  1818                           
  1819                           	psect	text19
  1820  002C96                     __ptext19:
  1821                           	callstack 0
  1822  002C96                     _CAN1_SetSystemErrorInterruptHandler:
  1823                           	callstack 120
  1824  002C96                     
  1825                           ;mcc_generated_files/can1.c: 603: void CAN1_SetSystemErrorInterruptHandler(void (*handle
      +                          r)(void));mcc_generated_files/can1.c: 604: {;mcc_generated_files/can1.c: 605:     CAN1_S
      +                          ystemErrorHandler = handler;
  1826  002C96  C54F  F509         	movff	CAN1_SetSystemErrorInterruptHandler@handler,_CAN1_SystemErrorHandler
  1827  002C9A  C550  F50A         	movff	CAN1_SetSystemErrorInterruptHandler@handler+1,_CAN1_SystemErrorHandler+1
  1828  002C9E  0012               	return		;funcret
  1829  002CA0                     __end_of_CAN1_SetSystemErrorInterruptHandler:
  1830                           	callstack 0
  1831                           
  1832 ;; *************** function _CAN1_SetRxBufferOverFlowInterruptHandler *****************
  1833 ;; Defined at:
  1834 ;;		line 613 in file "mcc_generated_files/can1.c"
  1835 ;; Parameters:    Size  Location     Type
  1836 ;;  handler         2    2[COMRAM] PTR FTN()void 
  1837 ;;		 -> DefaultRxBufferOverflowHandler(1), 
  1838 ;; Auto vars:     Size  Location     Type
  1839 ;;		None
  1840 ;; Return value:  Size  Location     Type
  1841 ;;                  1    wreg      void 
  1842 ;; Registers used:
  1843 ;;		wreg, status,2, status,0
  1844 ;; Tracked objects:
  1845 ;;		On entry : 0/0
  1846 ;;		On exit  : 0/0
  1847 ;;		Unchanged: 0/0
  1848 ;; Data sizes:     COMRAM   BANK5   BANK6   BANK7   BANK8   BANK9  BANK10  BANK11  BANK12  BANK13  BANK14  BANK15  BANK1
      +6  BANK17  BANK18  BANK19  BANK20  BANK21  BANK22  BANK23  BANK24  BANK25  BANK26  BANK27  BANK28  BANK29  BANK30  BANK3
      +1  BANK32  BANK33  BANK34  BANK35  BANK36  BANK37
  1849 ;;      Params:         2       0       0       0       0       0       0       0       0       0       0       0       
      +0       0       0       0       0       0       0       0       0       0       0       0       0       0       0       
      +0       0       0       0       0       0       0
  1850 ;;      Locals:         0       0       0       0       0       0       0       0       0       0       0       0       
      +0       0       0       0       0       0       0       0       0       0       0       0       0       0       0       
      +0       0       0       0       0       0       0
  1851 ;;      Temps:          0       0       0       0       0       0       0       0       0       0       0       0       
      +0       0       0       0       0       0       0       0       0       0       0       0       0       0       0       
      +0       0       0       0       0       0       0
  1852 ;;      Totals:         2       0       0       0       0       0       0       0       0       0       0       0       
      +0       0       0       0       0       0       0       0       0       0       0       0       0       0       0       
      +0       0       0       0       0       0       0
  1853 ;;Total ram usage:        2 bytes
  1854 ;; Hardware stack levels used:    1
  1855 ;; Hardware stack levels required when called:    4
  1856 ;; This function calls:
  1857 ;;		Nothing
  1858 ;; This function is called by:
  1859 ;;		_CAN1_ErrorNotificationInterruptEnable
  1860 ;; This function uses a non-reentrant model
  1861 ;;
  1862                           
  1863                           	psect	text20
  1864  002CA0                     __ptext20:
  1865                           	callstack 0
  1866  002CA0                     _CAN1_SetRxBufferOverFlowInterruptHandler:
  1867                           	callstack 120
  1868  002CA0                     
  1869                           ;mcc_generated_files/can1.c: 613: void CAN1_SetRxBufferOverFlowInterruptHandler(void (*h
      +                          andler)(void));mcc_generated_files/can1.c: 614: {;mcc_generated_files/can1.c: 615:     C
      +                          AN1_RxBufferOverflowHandler = handler;
  1870  002CA0  C54F  F505         	movff	CAN1_SetRxBufferOverFlowInterruptHandler@handler,_CAN1_RxBufferOverflowHandler
  1871  002CA4  C550  F506         	movff	CAN1_SetRxBufferOverFlowInterruptHandler@handler+1,_CAN1_RxBufferOverflowHandler+
      +                          1
  1872  002CA8  0012               	return		;funcret
  1873  002CAA                     __end_of_CAN1_SetRxBufferOverFlowInterruptHandler:
  1874                           	callstack 0
  1875                           
  1876 ;; *************** function _CAN1_SetModeChangeInterruptHandler *****************
  1877 ;; Defined at:
  1878 ;;		line 598 in file "mcc_generated_files/can1.c"
  1879 ;; Parameters:    Size  Location     Type
  1880 ;;  handler         2    2[COMRAM] PTR FTN()void 
  1881 ;;		 -> DefaultModeChangeHandler(1), 
  1882 ;; Auto vars:     Size  Location     Type
  1883 ;;		None
  1884 ;; Return value:  Size  Location     Type
  1885 ;;                  1    wreg      void 
  1886 ;; Registers used:
  1887 ;;		wreg, status,2, status,0
  1888 ;; Tracked objects:
  1889 ;;		On entry : 0/0
  1890 ;;		On exit  : 0/0
  1891 ;;		Unchanged: 0/0
  1892 ;; Data sizes:     COMRAM   BANK5   BANK6   BANK7   BANK8   BANK9  BANK10  BANK11  BANK12  BANK13  BANK14  BANK15  BANK1
      +6  BANK17  BANK18  BANK19  BANK20  BANK21  BANK22  BANK23  BANK24  BANK25  BANK26  BANK27  BANK28  BANK29  BANK30  BANK3
      +1  BANK32  BANK33  BANK34  BANK35  BANK36  BANK37
  1893 ;;      Params:         2       0       0       0       0       0       0       0       0       0       0       0       
      +0       0       0       0       0       0       0       0       0       0       0       0       0       0       0       
      +0       0       0       0       0       0       0
  1894 ;;      Locals:         0       0       0       0       0       0       0       0       0       0       0       0       
      +0       0       0       0       0       0       0       0       0       0       0       0       0       0       0       
      +0       0       0       0       0       0       0
  1895 ;;      Temps:          0       0       0       0       0       0       0       0       0       0       0       0       
      +0       0       0       0       0       0       0       0       0       0       0       0       0       0       0       
      +0       0       0       0       0       0       0
  1896 ;;      Totals:         2       0       0       0       0       0       0       0       0       0       0       0       
      +0       0       0       0       0       0       0       0       0       0       0       0       0       0       0       
      +0       0       0       0       0       0       0
  1897 ;;Total ram usage:        2 bytes
  1898 ;; Hardware stack levels used:    1
  1899 ;; Hardware stack levels required when called:    4
  1900 ;; This function calls:
  1901 ;;		Nothing
  1902 ;; This function is called by:
  1903 ;;		_CAN1_ErrorNotificationInterruptEnable
  1904 ;; This function uses a non-reentrant model
  1905 ;;
  1906                           
  1907                           	psect	text21
  1908  002CAA                     __ptext21:
  1909                           	callstack 0
  1910  002CAA                     _CAN1_SetModeChangeInterruptHandler:
  1911                           	callstack 120
  1912  002CAA                     
  1913                           ;mcc_generated_files/can1.c: 598: void CAN1_SetModeChangeInterruptHandler(void (*handler
      +                          )(void));mcc_generated_files/can1.c: 599: {;mcc_generated_files/can1.c: 600:     CAN1_Mo
      +                          deChangeHandler = handler;
  1914  002CAA  C54F  F50B         	movff	CAN1_SetModeChangeInterruptHandler@handler,_CAN1_ModeChangeHandler
  1915  002CAE  C550  F50C         	movff	CAN1_SetModeChangeInterruptHandler@handler+1,_CAN1_ModeChangeHandler+1
  1916  002CB2  0012               	return		;funcret
  1917  002CB4                     __end_of_CAN1_SetModeChangeInterruptHandler:
  1918                           	callstack 0
  1919                           
  1920 ;; *************** function _CAN1_SetInvalidMessageInterruptHandler *****************
  1921 ;; Defined at:
  1922 ;;		line 583 in file "mcc_generated_files/can1.c"
  1923 ;; Parameters:    Size  Location     Type
  1924 ;;  handler         2    2[COMRAM] PTR FTN()void 
  1925 ;;		 -> DefaultInvalidMessageHandler(1), 
  1926 ;; Auto vars:     Size  Location     Type
  1927 ;;		None
  1928 ;; Return value:  Size  Location     Type
  1929 ;;                  1    wreg      void 
  1930 ;; Registers used:
  1931 ;;		wreg, status,2, status,0
  1932 ;; Tracked objects:
  1933 ;;		On entry : 0/0
  1934 ;;		On exit  : 0/0
  1935 ;;		Unchanged: 0/0
  1936 ;; Data sizes:     COMRAM   BANK5   BANK6   BANK7   BANK8   BANK9  BANK10  BANK11  BANK12  BANK13  BANK14  BANK15  BANK1
      +6  BANK17  BANK18  BANK19  BANK20  BANK21  BANK22  BANK23  BANK24  BANK25  BANK26  BANK27  BANK28  BANK29  BANK30  BANK3
      +1  BANK32  BANK33  BANK34  BANK35  BANK36  BANK37
  1937 ;;      Params:         2       0       0       0       0       0       0       0       0       0       0       0       
      +0       0       0       0       0       0       0       0       0       0       0       0       0       0       0       
      +0       0       0       0       0       0       0
  1938 ;;      Locals:         0       0       0       0       0       0       0       0       0       0       0       0       
      +0       0       0       0       0       0       0       0       0       0       0       0       0       0       0       
      +0       0       0       0       0       0       0
  1939 ;;      Temps:          0       0       0       0       0       0       0       0       0       0       0       0       
      +0       0       0       0       0       0       0       0       0       0       0       0       0       0       0       
      +0       0       0       0       0       0       0
  1940 ;;      Totals:         2       0       0       0       0       0       0       0       0       0       0       0       
      +0       0       0       0       0       0       0       0       0       0       0       0       0       0       0       
      +0       0       0       0       0       0       0
  1941 ;;Total ram usage:        2 bytes
  1942 ;; Hardware stack levels used:    1
  1943 ;; Hardware stack levels required when called:    4
  1944 ;; This function calls:
  1945 ;;		Nothing
  1946 ;; This function is called by:
  1947 ;;		_CAN1_ErrorNotificationInterruptEnable
  1948 ;; This function uses a non-reentrant model
  1949 ;;
  1950                           
  1951                           	psect	text22
  1952  002CB4                     __ptext22:
  1953                           	callstack 0
  1954  002CB4                     _CAN1_SetInvalidMessageInterruptHandler:
  1955                           	callstack 120
  1956  002CB4                     
  1957                           ;mcc_generated_files/can1.c: 583: void CAN1_SetInvalidMessageInterruptHandler(void (*han
      +                          dler)(void));mcc_generated_files/can1.c: 584: {;mcc_generated_files/can1.c: 585:     CAN
      +                          1_InvalidMessageHandler = handler;
  1958  002CB4  C54F  F511         	movff	CAN1_SetInvalidMessageInterruptHandler@handler,_CAN1_InvalidMessageHandler
  1959  002CB8  C550  F512         	movff	CAN1_SetInvalidMessageInterruptHandler@handler+1,_CAN1_InvalidMessageHandler+1
  1960  002CBC  0012               	return		;funcret
  1961  002CBE                     __end_of_CAN1_SetInvalidMessageInterruptHandler:
  1962                           	callstack 0
  1963                           
  1964 ;; *************** function _CAN1_SetBusWakeUpActivityInterruptHandler *****************
  1965 ;; Defined at:
  1966 ;;		line 588 in file "mcc_generated_files/can1.c"
  1967 ;; Parameters:    Size  Location     Type
  1968 ;;  handler         2    2[COMRAM] PTR FTN()void 
  1969 ;;		 -> DefaultBusWakeUpActivityHandler(1), 
  1970 ;; Auto vars:     Size  Location     Type
  1971 ;;		None
  1972 ;; Return value:  Size  Location     Type
  1973 ;;                  1    wreg      void 
  1974 ;; Registers used:
  1975 ;;		wreg, status,2, status,0
  1976 ;; Tracked objects:
  1977 ;;		On entry : 0/0
  1978 ;;		On exit  : 0/0
  1979 ;;		Unchanged: 0/0
  1980 ;; Data sizes:     COMRAM   BANK5   BANK6   BANK7   BANK8   BANK9  BANK10  BANK11  BANK12  BANK13  BANK14  BANK15  BANK1
      +6  BANK17  BANK18  BANK19  BANK20  BANK21  BANK22  BANK23  BANK24  BANK25  BANK26  BANK27  BANK28  BANK29  BANK30  BANK3
      +1  BANK32  BANK33  BANK34  BANK35  BANK36  BANK37
  1981 ;;      Params:         2       0       0       0       0       0       0       0       0       0       0       0       
      +0       0       0       0       0       0       0       0       0       0       0       0       0       0       0       
      +0       0       0       0       0       0       0
  1982 ;;      Locals:         0       0       0       0       0       0       0       0       0       0       0       0       
      +0       0       0       0       0       0       0       0       0       0       0       0       0       0       0       
      +0       0       0       0       0       0       0
  1983 ;;      Temps:          0       0       0       0       0       0       0       0       0       0       0       0       
      +0       0       0       0       0       0       0       0       0       0       0       0       0       0       0       
      +0       0       0       0       0       0       0
  1984 ;;      Totals:         2       0       0       0       0       0       0       0       0       0       0       0       
      +0       0       0       0       0       0       0       0       0       0       0       0       0       0       0       
      +0       0       0       0       0       0       0
  1985 ;;Total ram usage:        2 bytes
  1986 ;; Hardware stack levels used:    1
  1987 ;; Hardware stack levels required when called:    4
  1988 ;; This function calls:
  1989 ;;		Nothing
  1990 ;; This function is called by:
  1991 ;;		_CAN1_ErrorNotificationInterruptEnable
  1992 ;; This function uses a non-reentrant model
  1993 ;;
  1994                           
  1995                           	psect	text23
  1996  002CBE                     __ptext23:
  1997                           	callstack 0
  1998  002CBE                     _CAN1_SetBusWakeUpActivityInterruptHandler:
  1999                           	callstack 120
  2000  002CBE                     
  2001                           ;mcc_generated_files/can1.c: 588: void CAN1_SetBusWakeUpActivityInterruptHandler(void (*
      +                          handler)(void));mcc_generated_files/can1.c: 589: {;mcc_generated_files/can1.c: 590:     
      +                          CAN1_BusWakeUpActivityHandler = handler;
  2002  002CBE  C54F  F50F         	movff	CAN1_SetBusWakeUpActivityInterruptHandler@handler,_CAN1_BusWakeUpActivityHandler
  2003  002CC2  C550  F510         	movff	CAN1_SetBusWakeUpActivityInterruptHandler@handler+1,_CAN1_BusWakeUpActivityHandle
      +                          r+1
  2004  002CC6  0012               	return		;funcret
  2005  002CC8                     __end_of_CAN1_SetBusWakeUpActivityInterruptHandler:
  2006                           	callstack 0
  2007                           
  2008 ;; *************** function _CAN1_SetBusErrorInterruptHandler *****************
  2009 ;; Defined at:
  2010 ;;		line 593 in file "mcc_generated_files/can1.c"
  2011 ;; Parameters:    Size  Location     Type
  2012 ;;  handler         2    2[COMRAM] PTR FTN()void 
  2013 ;;		 -> DefaultBusErrorHandler(1), 
  2014 ;; Auto vars:     Size  Location     Type
  2015 ;;		None
  2016 ;; Return value:  Size  Location     Type
  2017 ;;                  1    wreg      void 
  2018 ;; Registers used:
  2019 ;;		wreg, status,2, status,0
  2020 ;; Tracked objects:
  2021 ;;		On entry : 0/0
  2022 ;;		On exit  : 0/0
  2023 ;;		Unchanged: 0/0
  2024 ;; Data sizes:     COMRAM   BANK5   BANK6   BANK7   BANK8   BANK9  BANK10  BANK11  BANK12  BANK13  BANK14  BANK15  BANK1
      +6  BANK17  BANK18  BANK19  BANK20  BANK21  BANK22  BANK23  BANK24  BANK25  BANK26  BANK27  BANK28  BANK29  BANK30  BANK3
      +1  BANK32  BANK33  BANK34  BANK35  BANK36  BANK37
  2025 ;;      Params:         2       0       0       0       0       0       0       0       0       0       0       0       
      +0       0       0       0       0       0       0       0       0       0       0       0       0       0       0       
      +0       0       0       0       0       0       0
  2026 ;;      Locals:         0       0       0       0       0       0       0       0       0       0       0       0       
      +0       0       0       0       0       0       0       0       0       0       0       0       0       0       0       
      +0       0       0       0       0       0       0
  2027 ;;      Temps:          0       0       0       0       0       0       0       0       0       0       0       0       
      +0       0       0       0       0       0       0       0       0       0       0       0       0       0       0       
      +0       0       0       0       0       0       0
  2028 ;;      Totals:         2       0       0       0       0       0       0       0       0       0       0       0       
      +0       0       0       0       0       0       0       0       0       0       0       0       0       0       0       
      +0       0       0       0       0       0       0
  2029 ;;Total ram usage:        2 bytes
  2030 ;; Hardware stack levels used:    1
  2031 ;; Hardware stack levels required when called:    4
  2032 ;; This function calls:
  2033 ;;		Nothing
  2034 ;; This function is called by:
  2035 ;;		_CAN1_ErrorNotificationInterruptEnable
  2036 ;; This function uses a non-reentrant model
  2037 ;;
  2038                           
  2039                           	psect	text24
  2040  002CC8                     __ptext24:
  2041                           	callstack 0
  2042  002CC8                     _CAN1_SetBusErrorInterruptHandler:
  2043                           	callstack 120
  2044  002CC8                     
  2045                           ;mcc_generated_files/can1.c: 593: void CAN1_SetBusErrorInterruptHandler(void (*handler)(
      +                          void));mcc_generated_files/can1.c: 594: {;mcc_generated_files/can1.c: 595:     CAN1_BusE
      +                          rrorHandler = handler;
  2046  002CC8  C54F  F50D         	movff	CAN1_SetBusErrorInterruptHandler@handler,_CAN1_BusErrorHandler
  2047  002CCC  C550  F50E         	movff	CAN1_SetBusErrorInterruptHandler@handler+1,_CAN1_BusErrorHandler+1
  2048  002CD0  0012               	return		;funcret
  2049  002CD2                     __end_of_CAN1_SetBusErrorInterruptHandler:
  2050                           	callstack 0
  2051                           
  2052 ;; *************** function _CAN1_BitRateConfiguration *****************
  2053 ;; Defined at:
  2054 ;;		line 195 in file "mcc_generated_files/can1.c"
  2055 ;; Parameters:    Size  Location     Type
  2056 ;;		None
  2057 ;; Auto vars:     Size  Location     Type
  2058 ;;		None
  2059 ;; Return value:  Size  Location     Type
  2060 ;;                  1    wreg      void 
  2061 ;; Registers used:
  2062 ;;		wreg, status,2
  2063 ;; Tracked objects:
  2064 ;;		On entry : 0/0
  2065 ;;		On exit  : 0/0
  2066 ;;		Unchanged: 0/0
  2067 ;; Data sizes:     COMRAM   BANK5   BANK6   BANK7   BANK8   BANK9  BANK10  BANK11  BANK12  BANK13  BANK14  BANK15  BANK1
      +6  BANK17  BANK18  BANK19  BANK20  BANK21  BANK22  BANK23  BANK24  BANK25  BANK26  BANK27  BANK28  BANK29  BANK30  BANK3
      +1  BANK32  BANK33  BANK34  BANK35  BANK36  BANK37
  2068 ;;      Params:         0       0       0       0       0       0       0       0       0       0       0       0       
      +0       0       0       0       0       0       0       0       0       0       0       0       0       0       0       
      +0       0       0       0       0       0       0
  2069 ;;      Locals:         0       0       0       0       0       0       0       0       0       0       0       0       
      +0       0       0       0       0       0       0       0       0       0       0       0       0       0       0       
      +0       0       0       0       0       0       0
  2070 ;;      Temps:          0       0       0       0       0       0       0       0       0       0       0       0       
      +0       0       0       0       0       0       0       0       0       0       0       0       0       0       0       
      +0       0       0       0       0       0       0
  2071 ;;      Totals:         0       0       0       0       0       0       0       0       0       0       0       0       
      +0       0       0       0       0       0       0       0       0       0       0       0       0       0       0       
      +0       0       0       0       0       0       0
  2072 ;;Total ram usage:        0 bytes
  2073 ;; Hardware stack levels used:    1
  2074 ;; Hardware stack levels required when called:    4
  2075 ;; This function calls:
  2076 ;;		Nothing
  2077 ;; This function is called by:
  2078 ;;		_CAN1_Initialize
  2079 ;; This function uses a non-reentrant model
  2080 ;;
  2081                           
  2082                           	psect	text25
  2083  002C5A                     __ptext25:
  2084                           	callstack 0
  2085  002C5A                     _CAN1_BitRateConfiguration:
  2086                           	callstack 121
  2087  002C5A                     
  2088                           ;mcc_generated_files/can1.c: 198:     C1NBTCFGL = 0x01;
  2089  002C5A  0E01               	movlw	1
  2090  002C5C  0101               	movlb	1	; () banked
  2091  002C5E  6F04               	movwf	4,b	;volatile
  2092                           
  2093                           ;mcc_generated_files/can1.c: 201:     C1NBTCFGH = 0x01;
  2094  002C60  0E01               	movlw	1
  2095  002C62  6F05               	movwf	5,b	;volatile
  2096                           
  2097                           ;mcc_generated_files/can1.c: 204:     C1NBTCFGU = 0x06;
  2098  002C64  0E06               	movlw	6
  2099  002C66  6F06               	movwf	6,b	;volatile
  2100                           
  2101                           ;mcc_generated_files/can1.c: 207:     C1NBTCFGT = 0x00;
  2102  002C68  0E00               	movlw	0
  2103  002C6A  6F07               	movwf	7,b	;volatile
  2104  002C6C                     
  2105                           ; BSR set to: 1
  2106  002C6C  0012               	return		;funcret
  2107  002C6E                     __end_of_CAN1_BitRateConfiguration:
  2108                           	callstack 0
  2109                           
  2110 ;; *************** function _DELAY_milliseconds *****************
  2111 ;; Defined at:
  2112 ;;		line 38 in file "mcc_generated_files/delay.c"
  2113 ;; Parameters:    Size  Location     Type
  2114 ;;  milliseconds    2    2[COMRAM] unsigned short 
  2115 ;; Auto vars:     Size  Location     Type
  2116 ;;		None
  2117 ;; Return value:  Size  Location     Type
  2118 ;;                  1    wreg      void 
  2119 ;; Registers used:
  2120 ;;		wreg, status,2, status,0
  2121 ;; Tracked objects:
  2122 ;;		On entry : 0/0
  2123 ;;		On exit  : 0/0
  2124 ;;		Unchanged: 0/0
  2125 ;; Data sizes:     COMRAM   BANK5   BANK6   BANK7   BANK8   BANK9  BANK10  BANK11  BANK12  BANK13  BANK14  BANK15  BANK1
      +6  BANK17  BANK18  BANK19  BANK20  BANK21  BANK22  BANK23  BANK24  BANK25  BANK26  BANK27  BANK28  BANK29  BANK30  BANK3
      +1  BANK32  BANK33  BANK34  BANK35  BANK36  BANK37
  2126 ;;      Params:         2       0       0       0       0       0       0       0       0       0       0       0       
      +0       0       0       0       0       0       0       0       0       0       0       0       0       0       0       
      +0       0       0       0       0       0       0
  2127 ;;      Locals:         0       0       0       0       0       0       0       0       0       0       0       0       
      +0       0       0       0       0       0       0       0       0       0       0       0       0       0       0       
      +0       0       0       0       0       0       0
  2128 ;;      Temps:          1       0       0       0       0       0       0       0       0       0       0       0       
      +0       0       0       0       0       0       0       0       0       0       0       0       0       0       0       
      +0       0       0       0       0       0       0
  2129 ;;      Totals:         3       0       0       0       0       0       0       0       0       0       0       0       
      +0       0       0       0       0       0       0       0       0       0       0       0       0       0       0       
      +0       0       0       0       0       0       0
  2130 ;;Total ram usage:        3 bytes
  2131 ;; Hardware stack levels used:    1
  2132 ;; Hardware stack levels required when called:    4
  2133 ;; This function calls:
  2134 ;;		Nothing
  2135 ;; This function is called by:
  2136 ;;		_main
  2137 ;; This function uses a non-reentrant model
  2138 ;;
  2139                           
  2140                           	psect	text26
  2141  002A8C                     __ptext26:
  2142                           	callstack 0
  2143  002A8C                     _DELAY_milliseconds:
  2144                           	callstack 123
  2145  002A8C                     
  2146                           ;mcc_generated_files/delay.c: 39:     while(milliseconds--){
  2147  002A8C  EF4F  F015         	goto	l2117
  2148  002A90                     l2115:
  2149                           
  2150                           ;mcc_generated_files/delay.c: 40:         _delay((unsigned long)((1)*(10000000/4000.0)))
      +                          ;
  2151  002A90  0E04               	movlw	4
  2152  002A92  6E51               	movwf	??_DELAY_milliseconds^(0+1280),c
  2153  002A94  0E3E               	movlw	62
  2154  002A96                     u1117:
  2155  002A96  2EE8               	decfsz	wreg,f,c
  2156  002A98  D7FE               	bra	u1117
  2157  002A9A  2E51               	decfsz	??_DELAY_milliseconds^(0+1280),f,c
  2158  002A9C  D7FC               	bra	u1117
  2159  002A9E                     l2117:
  2160                           
  2161                           ;mcc_generated_files/delay.c: 39:     while(milliseconds--){
  2162  002A9E  064F               	decf	DELAY_milliseconds@milliseconds^(0+1280),f,c
  2163  002AA0  A0D8               	btfss	status,0,c
  2164  002AA2  0650               	decf	(DELAY_milliseconds@milliseconds+1)^(0+1280),f,c
  2165  002AA4  284F               	incf	DELAY_milliseconds@milliseconds^(0+1280),w,c
  2166  002AA6  E106               	bnz	u1041
  2167  002AA8  2850               	incf	(DELAY_milliseconds@milliseconds+1)^(0+1280),w,c
  2168  002AAA  A4D8               	btfss	status,2,c
  2169  002AAC  EF5A  F015         	goto	u1041
  2170  002AB0  EF5C  F015         	goto	u1040
  2171  002AB4                     u1041:
  2172  002AB4  EF48  F015         	goto	l2115
  2173  002AB8                     u1040:
  2174  002AB8  0012               	return		;funcret
  2175  002ABA                     __end_of_DELAY_milliseconds:
  2176                           	callstack 0
  2177                           
  2178 ;; *************** function _INTERRUPT_InterruptManager *****************
  2179 ;; Defined at:
  2180 ;;		line 58 in file "mcc_generated_files/interrupt_manager.c"
  2181 ;; Parameters:    Size  Location     Type
  2182 ;;		None
  2183 ;; Auto vars:     Size  Location     Type
  2184 ;;		None
  2185 ;; Return value:  Size  Location     Type
  2186 ;;                  1    wreg      void 
  2187 ;; Registers used:
  2188 ;;		wreg, status,2, status,0, pclath, tosl, cstack
  2189 ;; Tracked objects:
  2190 ;;		On entry : 0/0
  2191 ;;		On exit  : 0/0
  2192 ;;		Unchanged: 0/0
  2193 ;; Data sizes:     COMRAM   BANK5   BANK6   BANK7   BANK8   BANK9  BANK10  BANK11  BANK12  BANK13  BANK14  BANK15  BANK1
      +6  BANK17  BANK18  BANK19  BANK20  BANK21  BANK22  BANK23  BANK24  BANK25  BANK26  BANK27  BANK28  BANK29  BANK30  BANK3
      +1  BANK32  BANK33  BANK34  BANK35  BANK36  BANK37
  2194 ;;      Params:         0       0       0       0       0       0       0       0       0       0       0       0       
      +0       0       0       0       0       0       0       0       0       0       0       0       0       0       0       
      +0       0       0       0       0       0       0
  2195 ;;      Locals:         0       0       0       0       0       0       0       0       0       0       0       0       
      +0       0       0       0       0       0       0       0       0       0       0       0       0       0       0       
      +0       0       0       0       0       0       0
  2196 ;;      Temps:          0       0       0       0       0       0       0       0       0       0       0       0       
      +0       0       0       0       0       0       0       0       0       0       0       0       0       0       0       
      +0       0       0       0       0       0       0
  2197 ;;      Totals:         0       0       0       0       0       0       0       0       0       0       0       0       
      +0       0       0       0       0       0       0       0       0       0       0       0       0       0       0       
      +0       0       0       0       0       0       0
  2198 ;;Total ram usage:        0 bytes
  2199 ;; Hardware stack levels used:    1
  2200 ;; Hardware stack levels required when called:    3
  2201 ;; This function calls:
  2202 ;;		_CAN1_ISR
  2203 ;;		_TMR0_ISR
  2204 ;;		_TMR1_ISR
  2205 ;; This function is called by:
  2206 ;;		Interrupt level 2
  2207 ;; This function uses a non-reentrant model
  2208 ;;
  2209                           
  2210                           	psect	text27
  2211  002756                     __ptext27:
  2212                           	callstack 0
  2213  002756                     _INTERRUPT_InterruptManager:
  2214                           	callstack 120
  2215  002756                     
  2216                           ;mcc_generated_files/interrupt_manager.c: 61:     if(PIE0bits.CANIE == 1 && PIR0bits.CAN
      +                          IF == 1)
  2217  002756  AC9E               	btfss	158,6,c	;volatile
  2218  002758  EFB0  F013         	goto	i2u105_41
  2219  00275C  EFB2  F013         	goto	i2u105_40
  2220  002760                     i2u105_41:
  2221  002760  EFBD  F013         	goto	i2l433
  2222  002764                     i2u105_40:
  2223  002764  ACAE               	btfss	174,6,c	;volatile
  2224  002766  EFB7  F013         	goto	i2u106_41
  2225  00276A  EFB9  F013         	goto	i2u106_40
  2226  00276E                     i2u106_41:
  2227  00276E  EFBD  F013         	goto	i2l433
  2228  002772                     i2u106_40:
  2229  002772                     
  2230                           ;mcc_generated_files/interrupt_manager.c: 62:     {;mcc_generated_files/interrupt_manage
      +                          r.c: 63:         CAN1_ISR();
  2231  002772  EC07  F013         	call	_CAN1_ISR	;wreg free
  2232                           
  2233                           ;mcc_generated_files/interrupt_manager.c: 64:     }
  2234  002776  EFE1  F013         	goto	i2l439
  2235  00277A                     i2l433:
  2236  00277A  AEA1               	btfss	161,7,c	;volatile
  2237  00277C  EFC2  F013         	goto	i2u107_41
  2238  002780  EFC4  F013         	goto	i2u107_40
  2239  002784                     i2u107_41:
  2240  002784  EFCF  F013         	goto	i2l435
  2241  002788                     i2u107_40:
  2242  002788  AEB1               	btfss	177,7,c	;volatile
  2243  00278A  EFC9  F013         	goto	i2u108_41
  2244  00278E  EFCB  F013         	goto	i2u108_40
  2245  002792                     i2u108_41:
  2246  002792  EFCF  F013         	goto	i2l435
  2247  002796                     i2u108_40:
  2248  002796                     
  2249                           ;mcc_generated_files/interrupt_manager.c: 66:     {;mcc_generated_files/interrupt_manage
      +                          r.c: 67:         TMR0_ISR();
  2250  002796  EC46  F014         	call	_TMR0_ISR	;wreg free
  2251                           
  2252                           ;mcc_generated_files/interrupt_manager.c: 68:     }
  2253  00279A  EFE1  F013         	goto	i2l439
  2254  00279E                     i2l435:
  2255  00279E  A8A1               	btfss	161,4,c	;volatile
  2256  0027A0  EFD4  F013         	goto	i2u109_41
  2257  0027A4  EFD6  F013         	goto	i2u109_40
  2258  0027A8                     i2u109_41:
  2259  0027A8  EFE1  F013         	goto	i2l436
  2260  0027AC                     i2u109_40:
  2261  0027AC  A8B1               	btfss	177,4,c	;volatile
  2262  0027AE  EFDB  F013         	goto	i2u110_41
  2263  0027B2  EFDD  F013         	goto	i2u110_40
  2264  0027B6                     i2u110_41:
  2265  0027B6  EFE1  F013         	goto	i2l436
  2266  0027BA                     i2u110_40:
  2267  0027BA                     
  2268                           ;mcc_generated_files/interrupt_manager.c: 70:     {;mcc_generated_files/interrupt_manage
      +                          r.c: 71:         TMR1_ISR();
  2269  0027BA  EC2B  F015         	call	_TMR1_ISR	;wreg free
  2270                           
  2271                           ;mcc_generated_files/interrupt_manager.c: 72:     }
  2272  0027BE  EFE1  F013         	goto	i2l439
  2273  0027C2                     i2l436:
  2274  0027C2                     i2l439:
  2275  0027C2  0011               	retfie		f
  2276  0027C4                     __end_of_INTERRUPT_InterruptManager:
  2277                           	callstack 0
  2278                           
  2279 ;; *************** function _TMR1_ISR *****************
  2280 ;; Defined at:
  2281 ;;		line 164 in file "mcc_generated_files/tmr1.c"
  2282 ;; Parameters:    Size  Location     Type
  2283 ;;		None
  2284 ;; Auto vars:     Size  Location     Type
  2285 ;;		None
  2286 ;; Return value:  Size  Location     Type
  2287 ;;                  1    wreg      void 
  2288 ;; Registers used:
  2289 ;;		wreg, status,2, status,0, pclath, tosl, cstack
  2290 ;; Tracked objects:
  2291 ;;		On entry : 0/0
  2292 ;;		On exit  : 0/0
  2293 ;;		Unchanged: 0/0
  2294 ;; Data sizes:     COMRAM   BANK5   BANK6   BANK7   BANK8   BANK9  BANK10  BANK11  BANK12  BANK13  BANK14  BANK15  BANK1
      +6  BANK17  BANK18  BANK19  BANK20  BANK21  BANK22  BANK23  BANK24  BANK25  BANK26  BANK27  BANK28  BANK29  BANK30  BANK3
      +1  BANK32  BANK33  BANK34  BANK35  BANK36  BANK37
  2295 ;;      Params:         0       0       0       0       0       0       0       0       0       0       0       0       
      +0       0       0       0       0       0       0       0       0       0       0       0       0       0       0       
      +0       0       0       0       0       0       0
  2296 ;;      Locals:         0       0       0       0       0       0       0       0       0       0       0       0       
      +0       0       0       0       0       0       0       0       0       0       0       0       0       0       0       
      +0       0       0       0       0       0       0
  2297 ;;      Temps:          0       0       0       0       0       0       0       0       0       0       0       0       
      +0       0       0       0       0       0       0       0       0       0       0       0       0       0       0       
      +0       0       0       0       0       0       0
  2298 ;;      Totals:         0       0       0       0       0       0       0       0       0       0       0       0       
      +0       0       0       0       0       0       0       0       0       0       0       0       0       0       0       
      +0       0       0       0       0       0       0
  2299 ;;Total ram usage:        0 bytes
  2300 ;; Hardware stack levels used:    1
  2301 ;; Hardware stack levels required when called:    2
  2302 ;; This function calls:
  2303 ;;		_TMR1_CallBack
  2304 ;;		_TMR1_WriteTimer
  2305 ;; This function is called by:
  2306 ;;		_INTERRUPT_InterruptManager
  2307 ;; This function uses a non-reentrant model
  2308 ;;
  2309                           
  2310                           	psect	text28
  2311  002A56                     __ptext28:
  2312                           	callstack 0
  2313  002A56                     _TMR1_ISR:
  2314                           	callstack 120
  2315  002A56                     
  2316                           ;mcc_generated_files/tmr1.c: 166:     static volatile unsigned int CountCallBack = 0;;mc
      +                          c_generated_files/tmr1.c: 169:     PIR3bits.TMR1IF = 0;
  2317  002A56  98B1               	bcf	177,4,c	;volatile
  2318  002A58                     
  2319                           ;mcc_generated_files/tmr1.c: 170:     TMR1_WriteTimer(timer1ReloadVal);
  2320  002A58  C54B  F54D         	movff	_timer1ReloadVal,TMR1_WriteTimer@timerVal	;volatile
  2321  002A5C  C54C  F54E         	movff	_timer1ReloadVal+1,TMR1_WriteTimer@timerVal+1	;volatile
  2322  002A60  EC5D  F015         	call	_TMR1_WriteTimer	;wreg free
  2323  002A64                     
  2324                           ;mcc_generated_files/tmr1.c: 173:     if (++CountCallBack >= 5)
  2325  002A64  4A03               	infsnz	TMR1_ISR@CountCallBack^(0+1280),f,c	;volatile
  2326  002A66  2A04               	incf	(TMR1_ISR@CountCallBack+1)^(0+1280),f,c	;volatile
  2327  002A68  5004               	movf	(TMR1_ISR@CountCallBack+1)^(0+1280),w,c	;volatile
  2328  002A6A  E109               	bnz	i2u100_40
  2329  002A6C  0E05               	movlw	5
  2330  002A6E  5C03               	subwf	TMR1_ISR@CountCallBack^(0+1280),w,c	;volatile
  2331  002A70  A0D8               	btfss	status,0,c
  2332  002A72  EF3D  F015         	goto	i2u100_41
  2333  002A76  EF3F  F015         	goto	i2u100_40
  2334  002A7A                     i2u100_41:
  2335  002A7A  EF45  F015         	goto	i2l399
  2336  002A7E                     i2u100_40:
  2337  002A7E                     
  2338                           ;mcc_generated_files/tmr1.c: 177:         TMR1_CallBack();
  2339  002A7E  EC8A  F015         	call	_TMR1_CallBack	;wreg free
  2340  002A82                     
  2341                           ;mcc_generated_files/tmr1.c: 180:         CountCallBack = 0;
  2342  002A82  0E00               	movlw	0
  2343  002A84  6E04               	movwf	(TMR1_ISR@CountCallBack+1)^(0+1280),c	;volatile
  2344  002A86  0E00               	movlw	0
  2345  002A88  6E03               	movwf	TMR1_ISR@CountCallBack^(0+1280),c	;volatile
  2346  002A8A                     i2l399:
  2347  002A8A  0012               	return		;funcret
  2348  002A8C                     __end_of_TMR1_ISR:
  2349                           	callstack 0
  2350                           
  2351 ;; *************** function _TMR1_WriteTimer *****************
  2352 ;; Defined at:
  2353 ;;		line 127 in file "mcc_generated_files/tmr1.c"
  2354 ;; Parameters:    Size  Location     Type
  2355 ;;  timerVal        2    0[COMRAM] unsigned short 
  2356 ;; Auto vars:     Size  Location     Type
  2357 ;;		None
  2358 ;; Return value:  Size  Location     Type
  2359 ;;                  1    wreg      void 
  2360 ;; Registers used:
  2361 ;;		wreg, status,2
  2362 ;; Tracked objects:
  2363 ;;		On entry : 0/0
  2364 ;;		On exit  : 0/0
  2365 ;;		Unchanged: 0/0
  2366 ;; Data sizes:     COMRAM   BANK5   BANK6   BANK7   BANK8   BANK9  BANK10  BANK11  BANK12  BANK13  BANK14  BANK15  BANK1
      +6  BANK17  BANK18  BANK19  BANK20  BANK21  BANK22  BANK23  BANK24  BANK25  BANK26  BANK27  BANK28  BANK29  BANK30  BANK3
      +1  BANK32  BANK33  BANK34  BANK35  BANK36  BANK37
  2367 ;;      Params:         2       0       0       0       0       0       0       0       0       0       0       0       
      +0       0       0       0       0       0       0       0       0       0       0       0       0       0       0       
      +0       0       0       0       0       0       0
  2368 ;;      Locals:         0       0       0       0       0       0       0       0       0       0       0       0       
      +0       0       0       0       0       0       0       0       0       0       0       0       0       0       0       
      +0       0       0       0       0       0       0
  2369 ;;      Temps:          0       0       0       0       0       0       0       0       0       0       0       0       
      +0       0       0       0       0       0       0       0       0       0       0       0       0       0       0       
      +0       0       0       0       0       0       0
  2370 ;;      Totals:         2       0       0       0       0       0       0       0       0       0       0       0       
      +0       0       0       0       0       0       0       0       0       0       0       0       0       0       0       
      +0       0       0       0       0       0       0
  2371 ;;Total ram usage:        2 bytes
  2372 ;; Hardware stack levels used:    1
  2373 ;; This function calls:
  2374 ;;		Nothing
  2375 ;; This function is called by:
  2376 ;;		_TMR1_ISR
  2377 ;;		_TMR1_Reload
  2378 ;; This function uses a non-reentrant model
  2379 ;;
  2380                           
  2381                           	psect	text29
  2382  002ABA                     __ptext29:
  2383                           	callstack 0
  2384  002ABA                     _TMR1_WriteTimer:
  2385                           	callstack 121
  2386  002ABA                     
  2387                           ;mcc_generated_files/tmr1.c: 127: void TMR1_WriteTimer(uint16_t timerVal);mcc_generated_
      +                          files/tmr1.c: 128: {;mcc_generated_files/tmr1.c: 129:     if (T1CONbits.NOT_SYNC == 1)
  2388  002ABA  0103               	movlb	3	; () banked
  2389  002ABC  A51E               	btfss	30,2,b	;volatile
  2390  002ABE  EF63  F015         	goto	i2u95_41
  2391  002AC2  EF65  F015         	goto	i2u95_40
  2392  002AC6                     i2u95_41:
  2393  002AC6  EF6E  F015         	goto	i2l2057
  2394  002ACA                     i2u95_40:
  2395  002ACA                     
  2396                           ; BSR set to: 3
  2397                           ;mcc_generated_files/tmr1.c: 130:     {;mcc_generated_files/tmr1.c: 132:         T1CONbi
      +                          ts.TMR1ON = 0;
  2398  002ACA  911E               	bcf	30,0,b	;volatile
  2399  002ACC                     
  2400                           ; BSR set to: 3
  2401                           ;mcc_generated_files/tmr1.c: 135:         TMR1H = (uint8_t)(timerVal >> 8);
  2402  002ACC  504E               	movf	(TMR1_WriteTimer@timerVal+1)^(0+1280),w,c
  2403  002ACE  6F1D               	movwf	29,b	;volatile
  2404  002AD0                     
  2405                           ; BSR set to: 3
  2406                           ;mcc_generated_files/tmr1.c: 136:         TMR1L = (uint8_t)timerVal;
  2407  002AD0  0061  F534  F31C   	movff	TMR1_WriteTimer@timerVal,796	;volatile
  2408  002AD6                     
  2409                           ; BSR set to: 3
  2410                           ;mcc_generated_files/tmr1.c: 139:         T1CONbits.TMR1ON =1;
  2411  002AD6  811E               	bsf	30,0,b	;volatile
  2412                           
  2413                           ;mcc_generated_files/tmr1.c: 140:     }
  2414  002AD8  EF73  F015         	goto	i2l384
  2415  002ADC                     i2l2057:
  2416                           
  2417                           ; BSR set to: 3
  2418                           ;mcc_generated_files/tmr1.c: 142:     {;mcc_generated_files/tmr1.c: 144:         TMR1H =
      +                           (uint8_t)(timerVal >> 8);
  2419  002ADC  504E               	movf	(TMR1_WriteTimer@timerVal+1)^(0+1280),w,c
  2420  002ADE  6F1D               	movwf	29,b	;volatile
  2421  002AE0                     
  2422                           ; BSR set to: 3
  2423                           ;mcc_generated_files/tmr1.c: 145:         TMR1L = (uint8_t)timerVal;
  2424  002AE0  0061  F534  F31C   	movff	TMR1_WriteTimer@timerVal,796	;volatile
  2425  002AE6                     i2l384:
  2426                           
  2427                           ; BSR set to: 3
  2428  002AE6  0012               	return		;funcret
  2429  002AE8                     __end_of_TMR1_WriteTimer:
  2430                           	callstack 0
  2431                           
  2432 ;; *************** function _TMR1_CallBack *****************
  2433 ;; Defined at:
  2434 ;;		line 186 in file "mcc_generated_files/tmr1.c"
  2435 ;; Parameters:    Size  Location     Type
  2436 ;;		None
  2437 ;; Auto vars:     Size  Location     Type
  2438 ;;		None
  2439 ;; Return value:  Size  Location     Type
  2440 ;;                  1    wreg      void 
  2441 ;; Registers used:
  2442 ;;		wreg, status,2, status,0, pclath, tosl, cstack
  2443 ;; Tracked objects:
  2444 ;;		On entry : 0/0
  2445 ;;		On exit  : 0/0
  2446 ;;		Unchanged: 0/0
  2447 ;; Data sizes:     COMRAM   BANK5   BANK6   BANK7   BANK8   BANK9  BANK10  BANK11  BANK12  BANK13  BANK14  BANK15  BANK1
      +6  BANK17  BANK18  BANK19  BANK20  BANK21  BANK22  BANK23  BANK24  BANK25  BANK26  BANK27  BANK28  BANK29  BANK30  BANK3
      +1  BANK32  BANK33  BANK34  BANK35  BANK36  BANK37
  2448 ;;      Params:         0       0       0       0       0       0       0       0       0       0       0       0       
      +0       0       0       0       0       0       0       0       0       0       0       0       0       0       0       
      +0       0       0       0       0       0       0
  2449 ;;      Locals:         0       0       0       0       0       0       0       0       0       0       0       0       
      +0       0       0       0       0       0       0       0       0       0       0       0       0       0       0       
      +0       0       0       0       0       0       0
  2450 ;;      Temps:          0       0       0       0       0       0       0       0       0       0       0       0       
      +0       0       0       0       0       0       0       0       0       0       0       0       0       0       0       
      +0       0       0       0       0       0       0
  2451 ;;      Totals:         0       0       0       0       0       0       0       0       0       0       0       0       
      +0       0       0       0       0       0       0       0       0       0       0       0       0       0       0       
      +0       0       0       0       0       0       0
  2452 ;;Total ram usage:        0 bytes
  2453 ;; Hardware stack levels used:    1
  2454 ;; Hardware stack levels required when called:    1
  2455 ;; This function calls:
  2456 ;;		Absolute function
  2457 ;;		_TMR1_DefaultInterruptHandler
  2458 ;; This function is called by:
  2459 ;;		_TMR1_ISR
  2460 ;; This function uses a non-reentrant model
  2461 ;;
  2462                           
  2463                           	psect	text30
  2464  002B14                     __ptext30:
  2465                           	callstack 0
  2466  002B14                     _TMR1_CallBack:
  2467                           	callstack 120
  2468  002B14                     
  2469                           ;mcc_generated_files/tmr1.c: 189:     if(TMR1_InterruptHandler)
  2470  002B14  5049               	movf	_TMR1_InterruptHandler^(0+1280),w,c
  2471  002B16  104A               	iorwf	(_TMR1_InterruptHandler+1)^(0+1280),w,c
  2472  002B18  B4D8               	btfsc	status,2,c
  2473  002B1A  EF91  F015         	goto	i2u27_41
  2474  002B1E  EF93  F015         	goto	i2u27_40
  2475  002B22                     i2u27_41:
  2476  002B22  EF9F  F015         	goto	i2l403
  2477  002B26                     i2u27_40:
  2478  002B26                     
  2479                           ;mcc_generated_files/tmr1.c: 190:     {;mcc_generated_files/tmr1.c: 191:         TMR1_In
      +                          terruptHandler();
  2480  002B26  D802               	call	i2u28_48
  2481  002B28  EF9F  F015         	goto	i2u28_49
  2482  002B2C                     i2u28_48:
  2483  002B2C  0005               	push	
  2484  002B2E  6EFA               	movwf	pclath,c
  2485  002B30  5049               	movf	_TMR1_InterruptHandler^(0+1280),w,c
  2486  002B32  6EFD               	movwf	tosl,c
  2487  002B34  504A               	movf	(_TMR1_InterruptHandler+1)^(0+1280),w,c
  2488  002B36  6EFE               	movwf	tosh,c
  2489  002B38  6AFF               	clrf	tosu,c
  2490  002B3A  50FA               	movf	pclath,w,c
  2491  002B3C  0012               	return		;indir
  2492  002B3E                     i2u28_49:
  2493  002B3E                     i2l403:
  2494  002B3E  0012               	return		;funcret
  2495  002B40                     __end_of_TMR1_CallBack:
  2496                           	callstack 0
  2497                           
  2498 ;; *************** function _TMR1_DefaultInterruptHandler *****************
  2499 ;; Defined at:
  2500 ;;		line 199 in file "mcc_generated_files/tmr1.c"
  2501 ;; Parameters:    Size  Location     Type
  2502 ;;		None
  2503 ;; Auto vars:     Size  Location     Type
  2504 ;;		None
  2505 ;; Return value:  Size  Location     Type
  2506 ;;                  1    wreg      void 
  2507 ;; Registers used:
  2508 ;;		None
  2509 ;; Tracked objects:
  2510 ;;		On entry : 0/0
  2511 ;;		On exit  : 0/0
  2512 ;;		Unchanged: 0/0
  2513 ;; Data sizes:     COMRAM   BANK5   BANK6   BANK7   BANK8   BANK9  BANK10  BANK11  BANK12  BANK13  BANK14  BANK15  BANK1
      +6  BANK17  BANK18  BANK19  BANK20  BANK21  BANK22  BANK23  BANK24  BANK25  BANK26  BANK27  BANK28  BANK29  BANK30  BANK3
      +1  BANK32  BANK33  BANK34  BANK35  BANK36  BANK37
  2514 ;;      Params:         0       0       0       0       0       0       0       0       0       0       0       0       
      +0       0       0       0       0       0       0       0       0       0       0       0       0       0       0       
      +0       0       0       0       0       0       0
  2515 ;;      Locals:         0       0       0       0       0       0       0       0       0       0       0       0       
      +0       0       0       0       0       0       0       0       0       0       0       0       0       0       0       
      +0       0       0       0       0       0       0
  2516 ;;      Temps:          0       0       0       0       0       0       0       0       0       0       0       0       
      +0       0       0       0       0       0       0       0       0       0       0       0       0       0       0       
      +0       0       0       0       0       0       0
  2517 ;;      Totals:         0       0       0       0       0       0       0       0       0       0       0       0       
      +0       0       0       0       0       0       0       0       0       0       0       0       0       0       0       
      +0       0       0       0       0       0       0
  2518 ;;Total ram usage:        0 bytes
  2519 ;; Hardware stack levels used:    1
  2520 ;; This function calls:
  2521 ;;		Nothing
  2522 ;; This function is called by:
  2523 ;;		_TMR1_Initialize
  2524 ;;		_TMR1_CallBack
  2525 ;; This function uses a non-reentrant model
  2526 ;;
  2527                           
  2528                           	psect	text31
  2529  002CD8                     __ptext31:
  2530                           	callstack 0
  2531  002CD8                     _TMR1_DefaultInterruptHandler:
  2532                           	callstack 120
  2533  002CD8  0012               	return		;funcret
  2534  002CDA                     __end_of_TMR1_DefaultInterruptHandler:
  2535                           	callstack 0
  2536                           
  2537 ;; *************** function _TMR0_ISR *****************
  2538 ;; Defined at:
  2539 ;;		line 121 in file "mcc_generated_files/tmr0.c"
  2540 ;; Parameters:    Size  Location     Type
  2541 ;;		None
  2542 ;; Auto vars:     Size  Location     Type
  2543 ;;		None
  2544 ;; Return value:  Size  Location     Type
  2545 ;;                  1    wreg      void 
  2546 ;; Registers used:
  2547 ;;		wreg, status,2, status,0, pclath, tosl, cstack
  2548 ;; Tracked objects:
  2549 ;;		On entry : 0/0
  2550 ;;		On exit  : 0/0
  2551 ;;		Unchanged: 0/0
  2552 ;; Data sizes:     COMRAM   BANK5   BANK6   BANK7   BANK8   BANK9  BANK10  BANK11  BANK12  BANK13  BANK14  BANK15  BANK1
      +6  BANK17  BANK18  BANK19  BANK20  BANK21  BANK22  BANK23  BANK24  BANK25  BANK26  BANK27  BANK28  BANK29  BANK30  BANK3
      +1  BANK32  BANK33  BANK34  BANK35  BANK36  BANK37
  2553 ;;      Params:         0       0       0       0       0       0       0       0       0       0       0       0       
      +0       0       0       0       0       0       0       0       0       0       0       0       0       0       0       
      +0       0       0       0       0       0       0
  2554 ;;      Locals:         0       0       0       0       0       0       0       0       0       0       0       0       
      +0       0       0       0       0       0       0       0       0       0       0       0       0       0       0       
      +0       0       0       0       0       0       0
  2555 ;;      Temps:          0       0       0       0       0       0       0       0       0       0       0       0       
      +0       0       0       0       0       0       0       0       0       0       0       0       0       0       0       
      +0       0       0       0       0       0       0
  2556 ;;      Totals:         0       0       0       0       0       0       0       0       0       0       0       0       
      +0       0       0       0       0       0       0       0       0       0       0       0       0       0       0       
      +0       0       0       0       0       0       0
  2557 ;;Total ram usage:        0 bytes
  2558 ;; Hardware stack levels used:    1
  2559 ;; Hardware stack levels required when called:    2
  2560 ;; This function calls:
  2561 ;;		_SPEAKER
  2562 ;;		_TMR0_CallBack
  2563 ;; This function is called by:
  2564 ;;		_INTERRUPT_InterruptManager
  2565 ;; This function uses a non-reentrant model
  2566 ;;
  2567                           
  2568                           	psect	text32
  2569  00288C                     __ptext32:
  2570                           	callstack 0
  2571  00288C                     _TMR0_ISR:
  2572                           	callstack 120
  2573  00288C                     
  2574                           ;mcc_generated_files/tmr0.c: 123:     static volatile uint16_t CountCallBack = 0;;mcc_ge
      +                          nerated_files/tmr0.c: 126:     PIR3bits.TMR0IF = 0;
  2575  00288C  9EB1               	bcf	177,7,c	;volatile
  2576  00288E                     
  2577                           ;mcc_generated_files/tmr0.c: 128:     if (++CountCallBack >= 36)
  2578  00288E  4A01               	infsnz	TMR0_ISR@CountCallBack^(0+1280),f,c	;volatile
  2579  002890  2A02               	incf	(TMR0_ISR@CountCallBack+1)^(0+1280),f,c	;volatile
  2580  002892  5002               	movf	(TMR0_ISR@CountCallBack+1)^(0+1280),w,c	;volatile
  2581  002894  E109               	bnz	i2u101_40
  2582  002896  0E24               	movlw	36
  2583  002898  5C01               	subwf	TMR0_ISR@CountCallBack^(0+1280),w,c	;volatile
  2584  00289A  A0D8               	btfss	status,0,c
  2585  00289C  EF52  F014         	goto	i2u101_41
  2586  0028A0  EF54  F014         	goto	i2u101_40
  2587  0028A4                     i2u101_41:
  2588  0028A4  EF5A  F014         	goto	i2l2103
  2589  0028A8                     i2u101_40:
  2590  0028A8                     
  2591                           ;mcc_generated_files/tmr0.c: 129:     {;mcc_generated_files/tmr0.c: 133:         TMR0_Ca
      +                          llBack();
  2592  0028A8  ECA0  F015         	call	_TMR0_CallBack	;wreg free
  2593  0028AC                     
  2594                           ;mcc_generated_files/tmr0.c: 136:         CountCallBack = 0;
  2595  0028AC  0E00               	movlw	0
  2596  0028AE  6E02               	movwf	(TMR0_ISR@CountCallBack+1)^(0+1280),c	;volatile
  2597  0028B0  0E00               	movlw	0
  2598  0028B2  6E01               	movwf	TMR0_ISR@CountCallBack^(0+1280),c	;volatile
  2599  0028B4                     i2l2103:
  2600                           
  2601                           ;mcc_generated_files/tmr0.c: 142:     if (ucFlagEmergencySpeaker == 1)
  2602  0028B4  0415               	decf	_ucFlagEmergencySpeaker^(0+1280),w,c
  2603  0028B6  A4D8               	btfss	status,2,c
  2604  0028B8  EF60  F014         	goto	i2u102_41
  2605  0028BC  EF62  F014         	goto	i2u102_40
  2606  0028C0                     i2u102_41:
  2607  0028C0  EF72  F014         	goto	i2l497
  2608  0028C4                     i2u102_40:
  2609  0028C4                     
  2610                           ;mcc_generated_files/tmr0.c: 143:     {;mcc_generated_files/tmr0.c: 144:         if ( ++
      +                          ucSpeakerCount >= 36)
  2611  0028C4  2A14               	incf	_ucSpeakerCount^(0+1280),f,c
  2612  0028C6  0E23               	movlw	35
  2613  0028C8  6414               	cpfsgt	_ucSpeakerCount^(0+1280),c
  2614  0028CA  EF69  F014         	goto	i2u103_41
  2615  0028CE  EF6B  F014         	goto	i2u103_40
  2616  0028D2                     i2u103_41:
  2617  0028D2  EF70  F014         	goto	i2l2111
  2618  0028D6                     i2u103_40:
  2619  0028D6                     
  2620                           ;mcc_generated_files/tmr0.c: 145:         {;mcc_generated_files/tmr0.c: 146:            
      +                           ucFlagEmergencySpeaker = 0;
  2621  0028D6  0E00               	movlw	0
  2622  0028D8  6E15               	movwf	_ucFlagEmergencySpeaker^(0+1280),c
  2623                           
  2624                           ;mcc_generated_files/tmr0.c: 147:             ucSpeakerCount = 0;
  2625  0028DA  0E00               	movlw	0
  2626  0028DC  6E14               	movwf	_ucSpeakerCount^(0+1280),c
  2627  0028DE  96C0               	bcf	192,3,c	;volatile
  2628  0028E0                     i2l2111:
  2629                           
  2630                           ;mcc_generated_files/tmr0.c: 150:         SPEAKER();
  2631  0028E0  EC0E  F015         	call	_SPEAKER	;wreg free
  2632  0028E4                     i2l497:
  2633  0028E4  0012               	return		;funcret
  2634  0028E6                     __end_of_TMR0_ISR:
  2635                           	callstack 0
  2636                           
  2637 ;; *************** function _TMR0_CallBack *****************
  2638 ;; Defined at:
  2639 ;;		line 154 in file "mcc_generated_files/tmr0.c"
  2640 ;; Parameters:    Size  Location     Type
  2641 ;;		None
  2642 ;; Auto vars:     Size  Location     Type
  2643 ;;		None
  2644 ;; Return value:  Size  Location     Type
  2645 ;;                  1    wreg      void 
  2646 ;; Registers used:
  2647 ;;		wreg, status,2, status,0, pclath, tosl, cstack
  2648 ;; Tracked objects:
  2649 ;;		On entry : 0/0
  2650 ;;		On exit  : 0/0
  2651 ;;		Unchanged: 0/0
  2652 ;; Data sizes:     COMRAM   BANK5   BANK6   BANK7   BANK8   BANK9  BANK10  BANK11  BANK12  BANK13  BANK14  BANK15  BANK1
      +6  BANK17  BANK18  BANK19  BANK20  BANK21  BANK22  BANK23  BANK24  BANK25  BANK26  BANK27  BANK28  BANK29  BANK30  BANK3
      +1  BANK32  BANK33  BANK34  BANK35  BANK36  BANK37
  2653 ;;      Params:         0       0       0       0       0       0       0       0       0       0       0       0       
      +0       0       0       0       0       0       0       0       0       0       0       0       0       0       0       
      +0       0       0       0       0       0       0
  2654 ;;      Locals:         0       0       0       0       0       0       0       0       0       0       0       0       
      +0       0       0       0       0       0       0       0       0       0       0       0       0       0       0       
      +0       0       0       0       0       0       0
  2655 ;;      Temps:          0       0       0       0       0       0       0       0       0       0       0       0       
      +0       0       0       0       0       0       0       0       0       0       0       0       0       0       0       
      +0       0       0       0       0       0       0
  2656 ;;      Totals:         0       0       0       0       0       0       0       0       0       0       0       0       
      +0       0       0       0       0       0       0       0       0       0       0       0       0       0       0       
      +0       0       0       0       0       0       0
  2657 ;;Total ram usage:        0 bytes
  2658 ;; Hardware stack levels used:    1
  2659 ;; Hardware stack levels required when called:    1
  2660 ;; This function calls:
  2661 ;;		Absolute function
  2662 ;;		_TMR0_DefaultInterruptHandler
  2663 ;; This function is called by:
  2664 ;;		_TMR0_ISR
  2665 ;; This function uses a non-reentrant model
  2666 ;;
  2667                           
  2668                           	psect	text33
  2669  002B40                     __ptext33:
  2670                           	callstack 0
  2671  002B40                     _TMR0_CallBack:
  2672                           	callstack 120
  2673  002B40                     
  2674                           ;mcc_generated_files/tmr0.c: 158:     if(TMR0_InterruptHandler)
  2675  002B40  5047               	movf	_TMR0_InterruptHandler^(0+1280),w,c
  2676  002B42  1048               	iorwf	(_TMR0_InterruptHandler+1)^(0+1280),w,c
  2677  002B44  B4D8               	btfsc	status,2,c
  2678  002B46  EFA7  F015         	goto	i2u96_41
  2679  002B4A  EFA9  F015         	goto	i2u96_40
  2680  002B4E                     i2u96_41:
  2681  002B4E  EFB5  F015         	goto	i2l501
  2682  002B52                     i2u96_40:
  2683  002B52                     
  2684                           ;mcc_generated_files/tmr0.c: 159:     {;mcc_generated_files/tmr0.c: 160:         TMR0_In
      +                          terruptHandler();
  2685  002B52  D802               	call	i2u97_48
  2686  002B54  EFB5  F015         	goto	i2u97_49
  2687  002B58                     i2u97_48:
  2688  002B58  0005               	push	
  2689  002B5A  6EFA               	movwf	pclath,c
  2690  002B5C  5047               	movf	_TMR0_InterruptHandler^(0+1280),w,c
  2691  002B5E  6EFD               	movwf	tosl,c
  2692  002B60  5048               	movf	(_TMR0_InterruptHandler+1)^(0+1280),w,c
  2693  002B62  6EFE               	movwf	tosh,c
  2694  002B64  6AFF               	clrf	tosu,c
  2695  002B66  50FA               	movf	pclath,w,c
  2696  002B68  0012               	return		;indir
  2697  002B6A                     i2u97_49:
  2698  002B6A                     i2l501:
  2699  002B6A  0012               	return		;funcret
  2700  002B6C                     __end_of_TMR0_CallBack:
  2701                           	callstack 0
  2702                           
  2703 ;; *************** function _TMR0_DefaultInterruptHandler *****************
  2704 ;; Defined at:
  2705 ;;		line 168 in file "mcc_generated_files/tmr0.c"
  2706 ;; Parameters:    Size  Location     Type
  2707 ;;		None
  2708 ;; Auto vars:     Size  Location     Type
  2709 ;;		None
  2710 ;; Return value:  Size  Location     Type
  2711 ;;                  1    wreg      void 
  2712 ;; Registers used:
  2713 ;;		None
  2714 ;; Tracked objects:
  2715 ;;		On entry : 0/0
  2716 ;;		On exit  : 0/0
  2717 ;;		Unchanged: 0/0
  2718 ;; Data sizes:     COMRAM   BANK5   BANK6   BANK7   BANK8   BANK9  BANK10  BANK11  BANK12  BANK13  BANK14  BANK15  BANK1
      +6  BANK17  BANK18  BANK19  BANK20  BANK21  BANK22  BANK23  BANK24  BANK25  BANK26  BANK27  BANK28  BANK29  BANK30  BANK3
      +1  BANK32  BANK33  BANK34  BANK35  BANK36  BANK37
  2719 ;;      Params:         0       0       0       0       0       0       0       0       0       0       0       0       
      +0       0       0       0       0       0       0       0       0       0       0       0       0       0       0       
      +0       0       0       0       0       0       0
  2720 ;;      Locals:         0       0       0       0       0       0       0       0       0       0       0       0       
      +0       0       0       0       0       0       0       0       0       0       0       0       0       0       0       
      +0       0       0       0       0       0       0
  2721 ;;      Temps:          0       0       0       0       0       0       0       0       0       0       0       0       
      +0       0       0       0       0       0       0       0       0       0       0       0       0       0       0       
      +0       0       0       0       0       0       0
  2722 ;;      Totals:         0       0       0       0       0       0       0       0       0       0       0       0       
      +0       0       0       0       0       0       0       0       0       0       0       0       0       0       0       
      +0       0       0       0       0       0       0
  2723 ;;Total ram usage:        0 bytes
  2724 ;; Hardware stack levels used:    1
  2725 ;; This function calls:
  2726 ;;		Nothing
  2727 ;; This function is called by:
  2728 ;;		_TMR0_Initialize
  2729 ;;		_TMR0_CallBack
  2730 ;; This function uses a non-reentrant model
  2731 ;;
  2732                           
  2733                           	psect	text34
  2734  002CDA                     __ptext34:
  2735                           	callstack 0
  2736  002CDA                     _TMR0_DefaultInterruptHandler:
  2737                           	callstack 120
  2738  002CDA  0012               	return		;funcret
  2739  002CDC                     __end_of_TMR0_DefaultInterruptHandler:
  2740                           	callstack 0
  2741                           
  2742 ;; *************** function _SPEAKER *****************
  2743 ;; Defined at:
  2744 ;;		line 15 in file "SPEAKER.c"
  2745 ;; Parameters:    Size  Location     Type
  2746 ;;		None
  2747 ;; Auto vars:     Size  Location     Type
  2748 ;;		None
  2749 ;; Return value:  Size  Location     Type
  2750 ;;                  1    wreg      void 
  2751 ;; Registers used:
  2752 ;;		wreg, status,2, status,0
  2753 ;; Tracked objects:
  2754 ;;		On entry : 0/0
  2755 ;;		On exit  : 0/0
  2756 ;;		Unchanged: 0/0
  2757 ;; Data sizes:     COMRAM   BANK5   BANK6   BANK7   BANK8   BANK9  BANK10  BANK11  BANK12  BANK13  BANK14  BANK15  BANK1
      +6  BANK17  BANK18  BANK19  BANK20  BANK21  BANK22  BANK23  BANK24  BANK25  BANK26  BANK27  BANK28  BANK29  BANK30  BANK3
      +1  BANK32  BANK33  BANK34  BANK35  BANK36  BANK37
  2758 ;;      Params:         0       0       0       0       0       0       0       0       0       0       0       0       
      +0       0       0       0       0       0       0       0       0       0       0       0       0       0       0       
      +0       0       0       0       0       0       0
  2759 ;;      Locals:         0       0       0       0       0       0       0       0       0       0       0       0       
      +0       0       0       0       0       0       0       0       0       0       0       0       0       0       0       
      +0       0       0       0       0       0       0
  2760 ;;      Temps:          1       0       0       0       0       0       0       0       0       0       0       0       
      +0       0       0       0       0       0       0       0       0       0       0       0       0       0       0       
      +0       0       0       0       0       0       0
  2761 ;;      Totals:         1       0       0       0       0       0       0       0       0       0       0       0       
      +0       0       0       0       0       0       0       0       0       0       0       0       0       0       0       
      +0       0       0       0       0       0       0
  2762 ;;Total ram usage:        1 bytes
  2763 ;; Hardware stack levels used:    1
  2764 ;; This function calls:
  2765 ;;		Nothing
  2766 ;; This function is called by:
  2767 ;;		_TMR0_ISR
  2768 ;; This function uses a non-reentrant model
  2769 ;;
  2770                           
  2771                           	psect	text35
  2772  002A1C                     __ptext35:
  2773                           	callstack 0
  2774  002A1C                     _SPEAKER:
  2775                           	callstack 121
  2776  002A1C                     
  2777                           ;SPEAKER.c: 17:     if (ucASState == 3 )
  2778  002A1C  0E03               	movlw	3
  2779  002A1E  1813               	xorwf	_ucASState^(0+1280),w,c
  2780  002A20  A4D8               	btfss	status,2,c
  2781  002A22  EF15  F015         	goto	i2u98_41
  2782  002A26  EF17  F015         	goto	i2u98_40
  2783  002A2A                     i2u98_41:
  2784  002A2A  EF2A  F015         	goto	i2l618
  2785  002A2E                     i2u98_40:
  2786  002A2E  B6C0               	btfsc	192,3,c	;volatile
  2787  002A30  EF1C  F015         	goto	i2u99_41
  2788  002A34  EF1F  F015         	goto	i2u99_40
  2789  002A38                     i2u99_41:
  2790  002A38  0E01               	movlw	1
  2791  002A3A  EF20  F015         	goto	i2u99_46
  2792  002A3E                     i2u99_40:
  2793  002A3E  0E00               	movlw	0
  2794  002A40                     i2u99_46:
  2795  002A40  0AFF               	xorlw	255
  2796  002A42  6E4D               	movwf	??_SPEAKER^(0+1280),c
  2797  002A44  464D               	rlncf	??_SPEAKER^(0+1280),f,c
  2798  002A46  464D               	rlncf	??_SPEAKER^(0+1280),f,c
  2799  002A48  464D               	rlncf	??_SPEAKER^(0+1280),f,c
  2800  002A4A  50C0               	movf	192,w,c	;volatile
  2801  002A4C  184D               	xorwf	??_SPEAKER^(0+1280),w,c
  2802  002A4E  0BF7               	andlw	-9
  2803  002A50  184D               	xorwf	??_SPEAKER^(0+1280),w,c
  2804  002A52  6EC0               	movwf	192,c	;volatile
  2805  002A54                     i2l618:
  2806  002A54  0012               	return		;funcret
  2807  002A56                     __end_of_SPEAKER:
  2808                           	callstack 0
  2809                           
  2810 ;; *************** function _CAN1_ISR *****************
  2811 ;; Defined at:
  2812 ;;		line 618 in file "mcc_generated_files/can1.c"
  2813 ;; Parameters:    Size  Location     Type
  2814 ;;		None
  2815 ;; Auto vars:     Size  Location     Type
  2816 ;;		None
  2817 ;; Return value:  Size  Location     Type
  2818 ;;                  1    wreg      void 
  2819 ;; Registers used:
  2820 ;;		wreg, pclath, tosl, cstack
  2821 ;; Tracked objects:
  2822 ;;		On entry : 0/0
  2823 ;;		On exit  : 0/0
  2824 ;;		Unchanged: 0/0
  2825 ;; Data sizes:     COMRAM   BANK5   BANK6   BANK7   BANK8   BANK9  BANK10  BANK11  BANK12  BANK13  BANK14  BANK15  BANK1
      +6  BANK17  BANK18  BANK19  BANK20  BANK21  BANK22  BANK23  BANK24  BANK25  BANK26  BANK27  BANK28  BANK29  BANK30  BANK3
      +1  BANK32  BANK33  BANK34  BANK35  BANK36  BANK37
  2826 ;;      Params:         0       0       0       0       0       0       0       0       0       0       0       0       
      +0       0       0       0       0       0       0       0       0       0       0       0       0       0       0       
      +0       0       0       0       0       0       0
  2827 ;;      Locals:         0       0       0       0       0       0       0       0       0       0       0       0       
      +0       0       0       0       0       0       0       0       0       0       0       0       0       0       0       
      +0       0       0       0       0       0       0
  2828 ;;      Temps:          0       0       0       0       0       0       0       0       0       0       0       0       
      +0       0       0       0       0       0       0       0       0       0       0       0       0       0       0       
      +0       0       0       0       0       0       0
  2829 ;;      Totals:         0       0       0       0       0       0       0       0       0       0       0       0       
      +0       0       0       0       0       0       0       0       0       0       0       0       0       0       0       
      +0       0       0       0       0       0       0
  2830 ;;Total ram usage:        0 bytes
  2831 ;; Hardware stack levels used:    1
  2832 ;; Hardware stack levels required when called:    1
  2833 ;; This function calls:
  2834 ;;		Absolute function
  2835 ;;		_DefaultBusErrorHandler
  2836 ;;		_DefaultBusWakeUpActivityHandler
  2837 ;;		_DefaultInvalidMessageHandler
  2838 ;;		_DefaultModeChangeHandler
  2839 ;;		_DefaultRxBufferOverflowHandler
  2840 ;;		_DefaultSystemErrorHandler
  2841 ;;		_DefaultTxAttemptHandler
  2842 ;; This function is called by:
  2843 ;;		_INTERRUPT_InterruptManager
  2844 ;; This function uses a non-reentrant model
  2845 ;;
  2846                           
  2847                           	psect	text36
  2848  00260E                     __ptext36:
  2849                           	callstack 0
  2850  00260E                     _CAN1_ISR:
  2851                           	callstack 121
  2852  00260E                     
  2853                           ;mcc_generated_files/can1.c: 620:     if (1 == C1INTHbits.IVMIF)
  2854  00260E  0101               	movlb	1	; () banked
  2855  002610  AF1D               	btfss	29,7,b	;volatile
  2856  002612  EF0D  F013         	goto	i2u50_41
  2857  002616  EF0F  F013         	goto	i2u50_40
  2858  00261A                     i2u50_41:
  2859  00261A  EF1D  F013         	goto	i2l1693
  2860  00261E                     i2u50_40:
  2861  00261E                     
  2862                           ; BSR set to: 1
  2863                           ;mcc_generated_files/can1.c: 621:     {;mcc_generated_files/can1.c: 622:         CAN1_In
      +                          validMessageHandler();
  2864  00261E  D802               	call	i2u51_48
  2865  002620  EF1B  F013         	goto	i2u51_49
  2866  002624                     i2u51_48:
  2867  002624  0005               	push	
  2868  002626  6EFA               	movwf	pclath,c
  2869  002628  5011               	movf	_CAN1_InvalidMessageHandler^(0+1280),w,c
  2870  00262A  6EFD               	movwf	tosl,c
  2871  00262C  5012               	movf	(_CAN1_InvalidMessageHandler+1)^(0+1280),w,c
  2872  00262E  6EFE               	movwf	tosh,c
  2873  002630  6AFF               	clrf	tosu,c
  2874  002632  50FA               	movf	pclath,w,c
  2875  002634  0012               	return		;indir
  2876  002636                     i2u51_49:
  2877  002636                     
  2878                           ;mcc_generated_files/can1.c: 623:         C1INTHbits.IVMIF = 0;
  2879  002636  0101               	movlb	1	; () banked
  2880  002638  9F1D               	bcf	29,7,b	;volatile
  2881  00263A                     i2l1693:
  2882                           
  2883                           ; BSR set to: 1
  2884                           ;mcc_generated_files/can1.c: 626:     if (1 == C1INTHbits.WAKIF)
  2885  00263A  AD1D               	btfss	29,6,b	;volatile
  2886  00263C  EF22  F013         	goto	i2u52_41
  2887  002640  EF24  F013         	goto	i2u52_40
  2888  002644                     i2u52_41:
  2889  002644  EF32  F013         	goto	i2l1699
  2890  002648                     i2u52_40:
  2891  002648                     
  2892                           ; BSR set to: 1
  2893                           ;mcc_generated_files/can1.c: 627:     {;mcc_generated_files/can1.c: 628:         CAN1_Bu
      +                          sWakeUpActivityHandler();
  2894  002648  D802               	call	i2u53_48
  2895  00264A  EF30  F013         	goto	i2u53_49
  2896  00264E                     i2u53_48:
  2897  00264E  0005               	push	
  2898  002650  6EFA               	movwf	pclath,c
  2899  002652  500F               	movf	_CAN1_BusWakeUpActivityHandler^(0+1280),w,c
  2900  002654  6EFD               	movwf	tosl,c
  2901  002656  5010               	movf	(_CAN1_BusWakeUpActivityHandler+1)^(0+1280),w,c
  2902  002658  6EFE               	movwf	tosh,c
  2903  00265A  6AFF               	clrf	tosu,c
  2904  00265C  50FA               	movf	pclath,w,c
  2905  00265E  0012               	return		;indir
  2906  002660                     i2u53_49:
  2907  002660                     
  2908                           ;mcc_generated_files/can1.c: 629:         C1INTHbits.WAKIF = 0;
  2909  002660  0101               	movlb	1	; () banked
  2910  002662  9D1D               	bcf	29,6,b	;volatile
  2911  002664                     i2l1699:
  2912                           
  2913                           ; BSR set to: 1
  2914                           ;mcc_generated_files/can1.c: 632:     if (1 == C1INTHbits.CERRIF)
  2915  002664  AB1D               	btfss	29,5,b	;volatile
  2916  002666  EF37  F013         	goto	i2u54_41
  2917  00266A  EF39  F013         	goto	i2u54_40
  2918  00266E                     i2u54_41:
  2919  00266E  EF47  F013         	goto	i2l1705
  2920  002672                     i2u54_40:
  2921  002672                     
  2922                           ; BSR set to: 1
  2923                           ;mcc_generated_files/can1.c: 633:     {;mcc_generated_files/can1.c: 634:         CAN1_Bu
      +                          sErrorHandler();
  2924  002672  D802               	call	i2u55_48
  2925  002674  EF45  F013         	goto	i2u55_49
  2926  002678                     i2u55_48:
  2927  002678  0005               	push	
  2928  00267A  6EFA               	movwf	pclath,c
  2929  00267C  500D               	movf	_CAN1_BusErrorHandler^(0+1280),w,c
  2930  00267E  6EFD               	movwf	tosl,c
  2931  002680  500E               	movf	(_CAN1_BusErrorHandler+1)^(0+1280),w,c
  2932  002682  6EFE               	movwf	tosh,c
  2933  002684  6AFF               	clrf	tosu,c
  2934  002686  50FA               	movf	pclath,w,c
  2935  002688  0012               	return		;indir
  2936  00268A                     i2u55_49:
  2937  00268A                     
  2938                           ;mcc_generated_files/can1.c: 635:         C1INTHbits.CERRIF = 0;
  2939  00268A  0101               	movlb	1	; () banked
  2940  00268C  9B1D               	bcf	29,5,b	;volatile
  2941  00268E                     i2l1705:
  2942                           
  2943                           ; BSR set to: 1
  2944                           ;mcc_generated_files/can1.c: 638:     if (1 == C1INTLbits.MODIF)
  2945  00268E  A71C               	btfss	28,3,b	;volatile
  2946  002690  EF4C  F013         	goto	i2u56_41
  2947  002694  EF4E  F013         	goto	i2u56_40
  2948  002698                     i2u56_41:
  2949  002698  EF5C  F013         	goto	i2l1711
  2950  00269C                     i2u56_40:
  2951  00269C                     
  2952                           ; BSR set to: 1
  2953                           ;mcc_generated_files/can1.c: 639:     {;mcc_generated_files/can1.c: 640:         CAN1_Mo
      +                          deChangeHandler();
  2954  00269C  D802               	call	i2u57_48
  2955  00269E  EF5A  F013         	goto	i2u57_49
  2956  0026A2                     i2u57_48:
  2957  0026A2  0005               	push	
  2958  0026A4  6EFA               	movwf	pclath,c
  2959  0026A6  500B               	movf	_CAN1_ModeChangeHandler^(0+1280),w,c
  2960  0026A8  6EFD               	movwf	tosl,c
  2961  0026AA  500C               	movf	(_CAN1_ModeChangeHandler+1)^(0+1280),w,c
  2962  0026AC  6EFE               	movwf	tosh,c
  2963  0026AE  6AFF               	clrf	tosu,c
  2964  0026B0  50FA               	movf	pclath,w,c
  2965  0026B2  0012               	return		;indir
  2966  0026B4                     i2u57_49:
  2967  0026B4                     
  2968                           ;mcc_generated_files/can1.c: 641:         C1INTLbits.MODIF = 0;
  2969  0026B4  0101               	movlb	1	; () banked
  2970  0026B6  971C               	bcf	28,3,b	;volatile
  2971  0026B8                     i2l1711:
  2972                           
  2973                           ; BSR set to: 1
  2974                           ;mcc_generated_files/can1.c: 644:     if (1 == C1INTHbits.SERRIF)
  2975  0026B8  A91D               	btfss	29,4,b	;volatile
  2976  0026BA  EF61  F013         	goto	i2u58_41
  2977  0026BE  EF63  F013         	goto	i2u58_40
  2978  0026C2                     i2u58_41:
  2979  0026C2  EF71  F013         	goto	i2l1717
  2980  0026C6                     i2u58_40:
  2981  0026C6                     
  2982                           ; BSR set to: 1
  2983                           ;mcc_generated_files/can1.c: 645:     {;mcc_generated_files/can1.c: 646:         CAN1_Sy
      +                          stemErrorHandler();
  2984  0026C6  D802               	call	i2u59_48
  2985  0026C8  EF6F  F013         	goto	i2u59_49
  2986  0026CC                     i2u59_48:
  2987  0026CC  0005               	push	
  2988  0026CE  6EFA               	movwf	pclath,c
  2989  0026D0  5009               	movf	_CAN1_SystemErrorHandler^(0+1280),w,c
  2990  0026D2  6EFD               	movwf	tosl,c
  2991  0026D4  500A               	movf	(_CAN1_SystemErrorHandler+1)^(0+1280),w,c
  2992  0026D6  6EFE               	movwf	tosh,c
  2993  0026D8  6AFF               	clrf	tosu,c
  2994  0026DA  50FA               	movf	pclath,w,c
  2995  0026DC  0012               	return		;indir
  2996  0026DE                     i2u59_49:
  2997  0026DE                     
  2998                           ;mcc_generated_files/can1.c: 647:         C1INTHbits.SERRIF = 0;
  2999  0026DE  0101               	movlb	1	; () banked
  3000  0026E0  991D               	bcf	29,4,b	;volatile
  3001  0026E2                     i2l1717:
  3002                           
  3003                           ; BSR set to: 1
  3004                           ;mcc_generated_files/can1.c: 650:     if (1 == C1INTHbits.TXATIF)
  3005  0026E2  A51D               	btfss	29,2,b	;volatile
  3006  0026E4  EF76  F013         	goto	i2u60_41
  3007  0026E8  EF78  F013         	goto	i2u60_40
  3008  0026EC                     i2u60_41:
  3009  0026EC  EF8D  F013         	goto	i2l276
  3010  0026F0                     i2u60_40:
  3011  0026F0                     
  3012                           ; BSR set to: 1
  3013                           ;mcc_generated_files/can1.c: 651:     {;mcc_generated_files/can1.c: 652:         CAN1_Tx
      +                          AttemptHandler();
  3014  0026F0  D802               	call	i2u61_48
  3015  0026F2  EF84  F013         	goto	i2u61_49
  3016  0026F6                     i2u61_48:
  3017  0026F6  0005               	push	
  3018  0026F8  6EFA               	movwf	pclath,c
  3019  0026FA  5007               	movf	_CAN1_TxAttemptHandler^(0+1280),w,c
  3020  0026FC  6EFD               	movwf	tosl,c
  3021  0026FE  5008               	movf	(_CAN1_TxAttemptHandler+1)^(0+1280),w,c
  3022  002700  6EFE               	movwf	tosh,c
  3023  002702  6AFF               	clrf	tosu,c
  3024  002704  50FA               	movf	pclath,w,c
  3025  002706  0012               	return		;indir
  3026  002708                     i2u61_49:
  3027  002708                     
  3028                           ;mcc_generated_files/can1.c: 653:         if (1 == C1TXQSTALbits.TXATIF)
  3029  002708  0101               	movlb	1	; () banked
  3030  00270A  A954               	btfss	84,4,b	;volatile
  3031  00270C  EF8A  F013         	goto	i2u62_41
  3032  002710  EF8C  F013         	goto	i2u62_40
  3033  002714                     i2u62_41:
  3034  002714  EF8D  F013         	goto	i2l276
  3035  002718                     i2u62_40:
  3036  002718                     
  3037                           ; BSR set to: 1
  3038                           ;mcc_generated_files/can1.c: 654:         {;mcc_generated_files/can1.c: 655:            
      +                           C1TXQSTALbits.TXATIF = 0;
  3039  002718  9954               	bcf	84,4,b	;volatile
  3040  00271A                     i2l276:
  3041                           
  3042                           ; BSR set to: 1
  3043                           ;mcc_generated_files/can1.c: 659:     if (1 == C1INTHbits.RXOVIF)
  3044  00271A  A71D               	btfss	29,3,b	;volatile
  3045  00271C  EF92  F013         	goto	i2u63_41
  3046  002720  EF94  F013         	goto	i2u63_40
  3047  002724                     i2u63_41:
  3048  002724  EFA9  F013         	goto	i2l278
  3049  002728                     i2u63_40:
  3050  002728                     
  3051                           ; BSR set to: 1
  3052                           ;mcc_generated_files/can1.c: 660:     {;mcc_generated_files/can1.c: 661:         CAN1_Rx
      +                          BufferOverflowHandler();
  3053  002728  D802               	call	i2u64_48
  3054  00272A  EFA0  F013         	goto	i2u64_49
  3055  00272E                     i2u64_48:
  3056  00272E  0005               	push	
  3057  002730  6EFA               	movwf	pclath,c
  3058  002732  5005               	movf	_CAN1_RxBufferOverflowHandler^(0+1280),w,c
  3059  002734  6EFD               	movwf	tosl,c
  3060  002736  5006               	movf	(_CAN1_RxBufferOverflowHandler+1)^(0+1280),w,c
  3061  002738  6EFE               	movwf	tosh,c
  3062  00273A  6AFF               	clrf	tosu,c
  3063  00273C  50FA               	movf	pclath,w,c
  3064  00273E  0012               	return		;indir
  3065  002740                     i2u64_49:
  3066  002740                     
  3067                           ;mcc_generated_files/can1.c: 662:         if (1 == C1FIFOSTA1Lbits.RXOVIF)
  3068  002740  0101               	movlb	1	; () banked
  3069  002742  A760               	btfss	96,3,b	;volatile
  3070  002744  EFA6  F013         	goto	i2u65_41
  3071  002748  EFA8  F013         	goto	i2u65_40
  3072  00274C                     i2u65_41:
  3073  00274C  EFA9  F013         	goto	i2l278
  3074  002750                     i2u65_40:
  3075  002750                     
  3076                           ; BSR set to: 1
  3077                           ;mcc_generated_files/can1.c: 663:         {;mcc_generated_files/can1.c: 664:            
      +                           C1FIFOSTA1Lbits.RXOVIF = 0;
  3078  002750  9760               	bcf	96,3,b	;volatile
  3079  002752                     i2l278:
  3080                           
  3081                           ; BSR set to: 1
  3082                           ;mcc_generated_files/can1.c: 668:     PIR0bits.CANIF = 0;
  3083  002752  9CAE               	bcf	174,6,c	;volatile
  3084  002754                     
  3085                           ; BSR set to: 1
  3086  002754  0012               	return		;funcret
  3087  002756                     __end_of_CAN1_ISR:
  3088                           	callstack 0
  3089                           
  3090 ;; *************** function _DefaultTxAttemptHandler *****************
  3091 ;; Defined at:
  3092 ;;		line 141 in file "mcc_generated_files/can1.c"
  3093 ;; Parameters:    Size  Location     Type
  3094 ;;		None
  3095 ;; Auto vars:     Size  Location     Type
  3096 ;;		None
  3097 ;; Return value:  Size  Location     Type
  3098 ;;                  1    wreg      void 
  3099 ;; Registers used:
  3100 ;;		None
  3101 ;; Tracked objects:
  3102 ;;		On entry : 0/0
  3103 ;;		On exit  : 0/0
  3104 ;;		Unchanged: 0/0
  3105 ;; Data sizes:     COMRAM   BANK5   BANK6   BANK7   BANK8   BANK9  BANK10  BANK11  BANK12  BANK13  BANK14  BANK15  BANK1
      +6  BANK17  BANK18  BANK19  BANK20  BANK21  BANK22  BANK23  BANK24  BANK25  BANK26  BANK27  BANK28  BANK29  BANK30  BANK3
      +1  BANK32  BANK33  BANK34  BANK35  BANK36  BANK37
  3106 ;;      Params:         0       0       0       0       0       0       0       0       0       0       0       0       
      +0       0       0       0       0       0       0       0       0       0       0       0       0       0       0       
      +0       0       0       0       0       0       0
  3107 ;;      Locals:         0       0       0       0       0       0       0       0       0       0       0       0       
      +0       0       0       0       0       0       0       0       0       0       0       0       0       0       0       
      +0       0       0       0       0       0       0
  3108 ;;      Temps:          0       0       0       0       0       0       0       0       0       0       0       0       
      +0       0       0       0       0       0       0       0       0       0       0       0       0       0       0       
      +0       0       0       0       0       0       0
  3109 ;;      Totals:         0       0       0       0       0       0       0       0       0       0       0       0       
      +0       0       0       0       0       0       0       0       0       0       0       0       0       0       0       
      +0       0       0       0       0       0       0
  3110 ;;Total ram usage:        0 bytes
  3111 ;; Hardware stack levels used:    1
  3112 ;; This function calls:
  3113 ;;		Nothing
  3114 ;; This function is called by:
  3115 ;;		_CAN1_ErrorNotificationInterruptEnable
  3116 ;;		_CAN1_ISR
  3117 ;; This function uses a non-reentrant model
  3118 ;;
  3119                           
  3120                           	psect	text37
  3121  002CDC                     __ptext37:
  3122                           	callstack 0
  3123  002CDC                     _DefaultTxAttemptHandler:
  3124                           	callstack 121
  3125  002CDC  0012               	return		;funcret
  3126  002CDE                     __end_of_DefaultTxAttemptHandler:
  3127                           	callstack 0
  3128                           
  3129 ;; *************** function _DefaultSystemErrorHandler *****************
  3130 ;; Defined at:
  3131 ;;		line 137 in file "mcc_generated_files/can1.c"
  3132 ;; Parameters:    Size  Location     Type
  3133 ;;		None
  3134 ;; Auto vars:     Size  Location     Type
  3135 ;;		None
  3136 ;; Return value:  Size  Location     Type
  3137 ;;                  1    wreg      void 
  3138 ;; Registers used:
  3139 ;;		None
  3140 ;; Tracked objects:
  3141 ;;		On entry : 0/0
  3142 ;;		On exit  : 0/0
  3143 ;;		Unchanged: 0/0
  3144 ;; Data sizes:     COMRAM   BANK5   BANK6   BANK7   BANK8   BANK9  BANK10  BANK11  BANK12  BANK13  BANK14  BANK15  BANK1
      +6  BANK17  BANK18  BANK19  BANK20  BANK21  BANK22  BANK23  BANK24  BANK25  BANK26  BANK27  BANK28  BANK29  BANK30  BANK3
      +1  BANK32  BANK33  BANK34  BANK35  BANK36  BANK37
  3145 ;;      Params:         0       0       0       0       0       0       0       0       0       0       0       0       
      +0       0       0       0       0       0       0       0       0       0       0       0       0       0       0       
      +0       0       0       0       0       0       0
  3146 ;;      Locals:         0       0       0       0       0       0       0       0       0       0       0       0       
      +0       0       0       0       0       0       0       0       0       0       0       0       0       0       0       
      +0       0       0       0       0       0       0
  3147 ;;      Temps:          0       0       0       0       0       0       0       0       0       0       0       0       
      +0       0       0       0       0       0       0       0       0       0       0       0       0       0       0       
      +0       0       0       0       0       0       0
  3148 ;;      Totals:         0       0       0       0       0       0       0       0       0       0       0       0       
      +0       0       0       0       0       0       0       0       0       0       0       0       0       0       0       
      +0       0       0       0       0       0       0
  3149 ;;Total ram usage:        0 bytes
  3150 ;; Hardware stack levels used:    1
  3151 ;; This function calls:
  3152 ;;		Nothing
  3153 ;; This function is called by:
  3154 ;;		_CAN1_ErrorNotificationInterruptEnable
  3155 ;;		_CAN1_ISR
  3156 ;; This function uses a non-reentrant model
  3157 ;;
  3158                           
  3159                           	psect	text38
  3160  002CDE                     __ptext38:
  3161                           	callstack 0
  3162  002CDE                     _DefaultSystemErrorHandler:
  3163                           	callstack 121
  3164  002CDE  0012               	return		;funcret
  3165  002CE0                     __end_of_DefaultSystemErrorHandler:
  3166                           	callstack 0
  3167                           
  3168 ;; *************** function _DefaultRxBufferOverflowHandler *****************
  3169 ;; Defined at:
  3170 ;;		line 145 in file "mcc_generated_files/can1.c"
  3171 ;; Parameters:    Size  Location     Type
  3172 ;;		None
  3173 ;; Auto vars:     Size  Location     Type
  3174 ;;		None
  3175 ;; Return value:  Size  Location     Type
  3176 ;;                  1    wreg      void 
  3177 ;; Registers used:
  3178 ;;		None
  3179 ;; Tracked objects:
  3180 ;;		On entry : 0/0
  3181 ;;		On exit  : 0/0
  3182 ;;		Unchanged: 0/0
  3183 ;; Data sizes:     COMRAM   BANK5   BANK6   BANK7   BANK8   BANK9  BANK10  BANK11  BANK12  BANK13  BANK14  BANK15  BANK1
      +6  BANK17  BANK18  BANK19  BANK20  BANK21  BANK22  BANK23  BANK24  BANK25  BANK26  BANK27  BANK28  BANK29  BANK30  BANK3
      +1  BANK32  BANK33  BANK34  BANK35  BANK36  BANK37
  3184 ;;      Params:         0       0       0       0       0       0       0       0       0       0       0       0       
      +0       0       0       0       0       0       0       0       0       0       0       0       0       0       0       
      +0       0       0       0       0       0       0
  3185 ;;      Locals:         0       0       0       0       0       0       0       0       0       0       0       0       
      +0       0       0       0       0       0       0       0       0       0       0       0       0       0       0       
      +0       0       0       0       0       0       0
  3186 ;;      Temps:          0       0       0       0       0       0       0       0       0       0       0       0       
      +0       0       0       0       0       0       0       0       0       0       0       0       0       0       0       
      +0       0       0       0       0       0       0
  3187 ;;      Totals:         0       0       0       0       0       0       0       0       0       0       0       0       
      +0       0       0       0       0       0       0       0       0       0       0       0       0       0       0       
      +0       0       0       0       0       0       0
  3188 ;;Total ram usage:        0 bytes
  3189 ;; Hardware stack levels used:    1
  3190 ;; This function calls:
  3191 ;;		Nothing
  3192 ;; This function is called by:
  3193 ;;		_CAN1_ErrorNotificationInterruptEnable
  3194 ;;		_CAN1_ISR
  3195 ;; This function uses a non-reentrant model
  3196 ;;
  3197                           
  3198                           	psect	text39
  3199  002CE0                     __ptext39:
  3200                           	callstack 0
  3201  002CE0                     _DefaultRxBufferOverflowHandler:
  3202                           	callstack 121
  3203  002CE0  0012               	return		;funcret
  3204  002CE2                     __end_of_DefaultRxBufferOverflowHandler:
  3205                           	callstack 0
  3206                           
  3207 ;; *************** function _DefaultModeChangeHandler *****************
  3208 ;; Defined at:
  3209 ;;		line 133 in file "mcc_generated_files/can1.c"
  3210 ;; Parameters:    Size  Location     Type
  3211 ;;		None
  3212 ;; Auto vars:     Size  Location     Type
  3213 ;;		None
  3214 ;; Return value:  Size  Location     Type
  3215 ;;                  1    wreg      void 
  3216 ;; Registers used:
  3217 ;;		None
  3218 ;; Tracked objects:
  3219 ;;		On entry : 0/0
  3220 ;;		On exit  : 0/0
  3221 ;;		Unchanged: 0/0
  3222 ;; Data sizes:     COMRAM   BANK5   BANK6   BANK7   BANK8   BANK9  BANK10  BANK11  BANK12  BANK13  BANK14  BANK15  BANK1
      +6  BANK17  BANK18  BANK19  BANK20  BANK21  BANK22  BANK23  BANK24  BANK25  BANK26  BANK27  BANK28  BANK29  BANK30  BANK3
      +1  BANK32  BANK33  BANK34  BANK35  BANK36  BANK37
  3223 ;;      Params:         0       0       0       0       0       0       0       0       0       0       0       0       
      +0       0       0       0       0       0       0       0       0       0       0       0       0       0       0       
      +0       0       0       0       0       0       0
  3224 ;;      Locals:         0       0       0       0       0       0       0       0       0       0       0       0       
      +0       0       0       0       0       0       0       0       0       0       0       0       0       0       0       
      +0       0       0       0       0       0       0
  3225 ;;      Temps:          0       0       0       0       0       0       0       0       0       0       0       0       
      +0       0       0       0       0       0       0       0       0       0       0       0       0       0       0       
      +0       0       0       0       0       0       0
  3226 ;;      Totals:         0       0       0       0       0       0       0       0       0       0       0       0       
      +0       0       0       0       0       0       0       0       0       0       0       0       0       0       0       
      +0       0       0       0       0       0       0
  3227 ;;Total ram usage:        0 bytes
  3228 ;; Hardware stack levels used:    1
  3229 ;; This function calls:
  3230 ;;		Nothing
  3231 ;; This function is called by:
  3232 ;;		_CAN1_ErrorNotificationInterruptEnable
  3233 ;;		_CAN1_ISR
  3234 ;; This function uses a non-reentrant model
  3235 ;;
  3236                           
  3237                           	psect	text40
  3238  002CE2                     __ptext40:
  3239                           	callstack 0
  3240  002CE2                     _DefaultModeChangeHandler:
  3241                           	callstack 121
  3242  002CE2  0012               	return		;funcret
  3243  002CE4                     __end_of_DefaultModeChangeHandler:
  3244                           	callstack 0
  3245                           
  3246 ;; *************** function _DefaultInvalidMessageHandler *****************
  3247 ;; Defined at:
  3248 ;;		line 121 in file "mcc_generated_files/can1.c"
  3249 ;; Parameters:    Size  Location     Type
  3250 ;;		None
  3251 ;; Auto vars:     Size  Location     Type
  3252 ;;		None
  3253 ;; Return value:  Size  Location     Type
  3254 ;;                  1    wreg      void 
  3255 ;; Registers used:
  3256 ;;		None
  3257 ;; Tracked objects:
  3258 ;;		On entry : 0/0
  3259 ;;		On exit  : 0/0
  3260 ;;		Unchanged: 0/0
  3261 ;; Data sizes:     COMRAM   BANK5   BANK6   BANK7   BANK8   BANK9  BANK10  BANK11  BANK12  BANK13  BANK14  BANK15  BANK1
      +6  BANK17  BANK18  BANK19  BANK20  BANK21  BANK22  BANK23  BANK24  BANK25  BANK26  BANK27  BANK28  BANK29  BANK30  BANK3
      +1  BANK32  BANK33  BANK34  BANK35  BANK36  BANK37
  3262 ;;      Params:         0       0       0       0       0       0       0       0       0       0       0       0       
      +0       0       0       0       0       0       0       0       0       0       0       0       0       0       0       
      +0       0       0       0       0       0       0
  3263 ;;      Locals:         0       0       0       0       0       0       0       0       0       0       0       0       
      +0       0       0       0       0       0       0       0       0       0       0       0       0       0       0       
      +0       0       0       0       0       0       0
  3264 ;;      Temps:          0       0       0       0       0       0       0       0       0       0       0       0       
      +0       0       0       0       0       0       0       0       0       0       0       0       0       0       0       
      +0       0       0       0       0       0       0
  3265 ;;      Totals:         0       0       0       0       0       0       0       0       0       0       0       0       
      +0       0       0       0       0       0       0       0       0       0       0       0       0       0       0       
      +0       0       0       0       0       0       0
  3266 ;;Total ram usage:        0 bytes
  3267 ;; Hardware stack levels used:    1
  3268 ;; This function calls:
  3269 ;;		Nothing
  3270 ;; This function is called by:
  3271 ;;		_CAN1_ErrorNotificationInterruptEnable
  3272 ;;		_CAN1_ISR
  3273 ;; This function uses a non-reentrant model
  3274 ;;
  3275                           
  3276                           	psect	text41
  3277  002CE4                     __ptext41:
  3278                           	callstack 0
  3279  002CE4                     _DefaultInvalidMessageHandler:
  3280                           	callstack 121
  3281  002CE4  0012               	return		;funcret
  3282  002CE6                     __end_of_DefaultInvalidMessageHandler:
  3283                           	callstack 0
  3284                           
  3285 ;; *************** function _DefaultBusWakeUpActivityHandler *****************
  3286 ;; Defined at:
  3287 ;;		line 125 in file "mcc_generated_files/can1.c"
  3288 ;; Parameters:    Size  Location     Type
  3289 ;;		None
  3290 ;; Auto vars:     Size  Location     Type
  3291 ;;		None
  3292 ;; Return value:  Size  Location     Type
  3293 ;;                  1    wreg      void 
  3294 ;; Registers used:
  3295 ;;		None
  3296 ;; Tracked objects:
  3297 ;;		On entry : 0/0
  3298 ;;		On exit  : 0/0
  3299 ;;		Unchanged: 0/0
  3300 ;; Data sizes:     COMRAM   BANK5   BANK6   BANK7   BANK8   BANK9  BANK10  BANK11  BANK12  BANK13  BANK14  BANK15  BANK1
      +6  BANK17  BANK18  BANK19  BANK20  BANK21  BANK22  BANK23  BANK24  BANK25  BANK26  BANK27  BANK28  BANK29  BANK30  BANK3
      +1  BANK32  BANK33  BANK34  BANK35  BANK36  BANK37
  3301 ;;      Params:         0       0       0       0       0       0       0       0       0       0       0       0       
      +0       0       0       0       0       0       0       0       0       0       0       0       0       0       0       
      +0       0       0       0       0       0       0
  3302 ;;      Locals:         0       0       0       0       0       0       0       0       0       0       0       0       
      +0       0       0       0       0       0       0       0       0       0       0       0       0       0       0       
      +0       0       0       0       0       0       0
  3303 ;;      Temps:          0       0       0       0       0       0       0       0       0       0       0       0       
      +0       0       0       0       0       0       0       0       0       0       0       0       0       0       0       
      +0       0       0       0       0       0       0
  3304 ;;      Totals:         0       0       0       0       0       0       0       0       0       0       0       0       
      +0       0       0       0       0       0       0       0       0       0       0       0       0       0       0       
      +0       0       0       0       0       0       0
  3305 ;;Total ram usage:        0 bytes
  3306 ;; Hardware stack levels used:    1
  3307 ;; This function calls:
  3308 ;;		Nothing
  3309 ;; This function is called by:
  3310 ;;		_CAN1_ErrorNotificationInterruptEnable
  3311 ;;		_CAN1_ISR
  3312 ;; This function uses a non-reentrant model
  3313 ;;
  3314                           
  3315                           	psect	text42
  3316  002CE6                     __ptext42:
  3317                           	callstack 0
  3318  002CE6                     _DefaultBusWakeUpActivityHandler:
  3319                           	callstack 121
  3320  002CE6  0012               	return		;funcret
  3321  002CE8                     __end_of_DefaultBusWakeUpActivityHandler:
  3322                           	callstack 0
  3323                           
  3324 ;; *************** function _DefaultBusErrorHandler *****************
  3325 ;; Defined at:
  3326 ;;		line 129 in file "mcc_generated_files/can1.c"
  3327 ;; Parameters:    Size  Location     Type
  3328 ;;		None
  3329 ;; Auto vars:     Size  Location     Type
  3330 ;;		None
  3331 ;; Return value:  Size  Location     Type
  3332 ;;                  1    wreg      void 
  3333 ;; Registers used:
  3334 ;;		None
  3335 ;; Tracked objects:
  3336 ;;		On entry : 0/0
  3337 ;;		On exit  : 0/0
  3338 ;;		Unchanged: 0/0
  3339 ;; Data sizes:     COMRAM   BANK5   BANK6   BANK7   BANK8   BANK9  BANK10  BANK11  BANK12  BANK13  BANK14  BANK15  BANK1
      +6  BANK17  BANK18  BANK19  BANK20  BANK21  BANK22  BANK23  BANK24  BANK25  BANK26  BANK27  BANK28  BANK29  BANK30  BANK3
      +1  BANK32  BANK33  BANK34  BANK35  BANK36  BANK37
  3340 ;;      Params:         0       0       0       0       0       0       0       0       0       0       0       0       
      +0       0       0       0       0       0       0       0       0       0       0       0       0       0       0       
      +0       0       0       0       0       0       0
  3341 ;;      Locals:         0       0       0       0       0       0       0       0       0       0       0       0       
      +0       0       0       0       0       0       0       0       0       0       0       0       0       0       0       
      +0       0       0       0       0       0       0
  3342 ;;      Temps:          0       0       0       0       0       0       0       0       0       0       0       0       
      +0       0       0       0       0       0       0       0       0       0       0       0       0       0       0       
      +0       0       0       0       0       0       0
  3343 ;;      Totals:         0       0       0       0       0       0       0       0       0       0       0       0       
      +0       0       0       0       0       0       0       0       0       0       0       0       0       0       0       
      +0       0       0       0       0       0       0
  3344 ;;Total ram usage:        0 bytes
  3345 ;; Hardware stack levels used:    1
  3346 ;; This function calls:
  3347 ;;		Nothing
  3348 ;; This function is called by:
  3349 ;;		_CAN1_ErrorNotificationInterruptEnable
  3350 ;;		_CAN1_ISR
  3351 ;; This function uses a non-reentrant model
  3352 ;;
  3353                           
  3354                           	psect	text43
  3355  002CE8                     __ptext43:
  3356                           	callstack 0
  3357  002CE8                     _DefaultBusErrorHandler:
  3358                           	callstack 121
  3359  002CE8  0012               	return		;funcret
  3360  002CEA                     __end_of_DefaultBusErrorHandler:
  3361                           	callstack 0
  3362                           
  3363                           ;
  3364                           ; Interrupt Vector Table @ 0x8
  3365                           ;
  3366                           
  3367                           	psect	ivt0x8
  3368  000008                     __pivt0x8:
  3369                           	callstack 0
  3370  000008                     ivt0x8_base:
  3371                           	callstack 0
  3372                           
  3373                           ; high-priority vector
  3374  000008  EFAB  F013         	goto	_INTERRUPT_InterruptManager
  3375  000018                     	org	16
  3376                           
  3377                           ; low-priority vector
  3378  000018  00FF               	reset	
  3379                           
  3380                           	psect	text44
  3381  000000                     __ptext44:
  3382                           	callstack 0
  3383  000000                     
  3384                           	psect	rparam
  3385  0000                     
  3386                           	psect	idloc
  3387                           
  3388                           ;Config register IDLOC0 @ 0x200000
  3389                           ;	unspecified, using default values
  3390  200000                     	org	2097152
  3391  200000  0FFF               	dw	4095
  3392                           
  3393                           ;Config register IDLOC1 @ 0x200002
  3394                           ;	unspecified, using default values
  3395  200002                     	org	2097154
  3396  200002  0FFF               	dw	4095
  3397                           
  3398                           ;Config register IDLOC2 @ 0x200004
  3399                           ;	unspecified, using default values
  3400  200004                     	org	2097156
  3401  200004  0FFF               	dw	4095
  3402                           
  3403                           ;Config register IDLOC3 @ 0x200006
  3404                           ;	unspecified, using default values
  3405  200006                     	org	2097158
  3406  200006  0FFF               	dw	4095
  3407                           
  3408                           ;Config register IDLOC4 @ 0x200008
  3409                           ;	unspecified, using default values
  3410  200008                     	org	2097160
  3411  200008  0FFF               	dw	4095
  3412                           
  3413                           ;Config register IDLOC5 @ 0x20000A
  3414                           ;	unspecified, using default values
  3415  20000A                     	org	2097162
  3416  20000A  0FFF               	dw	4095
  3417                           
  3418                           ;Config register IDLOC6 @ 0x20000C
  3419                           ;	unspecified, using default values
  3420  20000C                     	org	2097164
  3421  20000C  0FFF               	dw	4095
  3422                           
  3423                           ;Config register IDLOC7 @ 0x20000E
  3424                           ;	unspecified, using default values
  3425  20000E                     	org	2097166
  3426  20000E  0FFF               	dw	4095
  3427                           
  3428                           ;Config register IDLOC8 @ 0x200010
  3429                           ;	unspecified, using default values
  3430  200010                     	org	2097168
  3431  200010  0FFF               	dw	4095
  3432                           
  3433                           ;Config register IDLOC9 @ 0x200012
  3434                           ;	unspecified, using default values
  3435  200012                     	org	2097170
  3436  200012  0FFF               	dw	4095
  3437                           
  3438                           ;Config register IDLOC10 @ 0x200014
  3439                           ;	unspecified, using default values
  3440  200014                     	org	2097172
  3441  200014  0FFF               	dw	4095
  3442                           
  3443                           ;Config register IDLOC11 @ 0x200016
  3444                           ;	unspecified, using default values
  3445  200016                     	org	2097174
  3446  200016  0FFF               	dw	4095
  3447                           
  3448                           ;Config register IDLOC12 @ 0x200018
  3449                           ;	unspecified, using default values
  3450  200018                     	org	2097176
  3451  200018  0FFF               	dw	4095
  3452                           
  3453                           ;Config register IDLOC13 @ 0x20001A
  3454                           ;	unspecified, using default values
  3455  20001A                     	org	2097178
  3456  20001A  0FFF               	dw	4095
  3457                           
  3458                           ;Config register IDLOC14 @ 0x20001C
  3459                           ;	unspecified, using default values
  3460  20001C                     	org	2097180
  3461  20001C  0FFF               	dw	4095
  3462                           
  3463                           ;Config register IDLOC15 @ 0x20001E
  3464                           ;	unspecified, using default values
  3465  20001E                     	org	2097182
  3466  20001E  0FFF               	dw	4095
  3467                           
  3468                           	psect	config
  3469                           
  3470                           ;Config register CONFIG1 @ 0x300000
  3471                           ;	External Oscillator Selection
  3472                           ;	FEXTOSC = HS, HS (crystal oscillator) above 8 MHz
  3473                           ;	Reset Oscillator Selection
  3474                           ;	RSTOSC = EXTOSC, EXTOSC operating per FEXTOSC bits (device manufacturing default)
  3475  300000                     	org	3145728
  3476  300000  FA                 	db	250
  3477                           
  3478                           ;Config register CONFIG2 @ 0x300001
  3479                           ;	Clock out Enable bit
  3480                           ;	CLKOUTEN = OFF, CLKOUT function is disabled
  3481                           ;	PRLOCKED One-Way Set Enable bit
  3482                           ;	PR1WAY = ON, PRLOCKED bit can be cleared and set only once
  3483                           ;	Clock Switch Enable bit
  3484                           ;	CSWEN = ON, Writing to NOSC and NDIV is allowed
  3485                           ;	JTAG Enable bit
  3486                           ;	JTAGEN = OFF, Disable JTAG Boundary Scan mode, JTAG pins revert to user functions
  3487                           ;	Fail-Safe Clock Monitor Enable bit
  3488                           ;	FCMEN = ON, Fail-Safe Clock Monitor enabled
  3489                           ;	Fail-Safe Clock Monitor -Primary XTAL Enable bit
  3490                           ;	FCMENP = ON, FSCM timer will set FSCMP bit and OSFIF interrupt on Primary XTAL failure
  3491                           ;	Fail-Safe Clock Monitor -Secondary XTAL Enable bit
  3492                           ;	FCMENS = ON, FSCM timer will set FSCMS bit and OSFIF interrupt on Secondary XTAL failu
      +                          re
  3493  300001                     	org	3145729
  3494  300001  EF                 	db	239
  3495                           
  3496                           ;Config register CONFIG3 @ 0x300002
  3497                           ;	MCLR Enable bit
  3498                           ;	MCLRE = EXTMCLR, If LVP = 0, MCLR pin is MCLR; If LVP = 1, RE3 pin function is MCLR
  3499                           ;	Power-up timer selection bits
  3500                           ;	PWRTS = PWRT_OFF, PWRT is disabled
  3501                           ;	Multi-vector enable bit
  3502                           ;	MVECEN = OFF, Interrupt contoller does not use vector table to prioritze interrupts
  3503                           ;	IVTLOCK bit One-way set enable bit
  3504                           ;	IVT1WAY = ON, IVTLOCKED bit can be cleared and set only once
  3505                           ;	Low Power BOR Enable bit
  3506                           ;	LPBOREN = OFF, Low-Power BOR disabled
  3507                           ;	Brown-out Reset Enable bits
  3508                           ;	BOREN = SBORDIS, Brown-out Reset enabled , SBOREN bit is ignored
  3509  300002                     	org	3145730
  3510  300002  F7                 	db	247
  3511                           
  3512                           ;Config register CONFIG4 @ 0x300003
  3513                           ;	Brown-out Reset Voltage Selection bits
  3514                           ;	BORV = VBOR_1P9, Brown-out Reset Voltage (VBOR) set to 1.9V
  3515                           ;	ZCD Disable bit
  3516                           ;	ZCD = OFF, ZCD module is disabled. ZCD can be enabled by setting the ZCDSEN bit of ZCD
      +                          CON
  3517                           ;	PPSLOCK bit One-Way Set Enable bit
  3518                           ;	PPS1WAY = ON, PPSLOCKED bit can be cleared and set only once; PPS registers remain loc
      +                          ked after one clear/set cycle
  3519                           ;	Stack Full/Underflow Reset Enable bit
  3520                           ;	STVREN = ON, Stack full/underflow will cause Reset
  3521                           ;	Low Voltage Programming Enable bit
  3522                           ;	LVP = OFF, HV on MCLR/VPP must be used for programming
  3523                           ;	Extended Instruction Set Enable bit
  3524                           ;	XINST = OFF, Extended Instruction Set and Indexed Addressing Mode disabled
  3525  300003                     	org	3145731
  3526  300003  DF                 	db	223
  3527                           
  3528                           ;Config register CONFIG5 @ 0x300004
  3529                           ;	WDT Period selection bits
  3530                           ;	WDTCPS = WDTCPS_31, Divider ratio 1:65536; software control of WDTPS
  3531                           ;	WDT operating mode
  3532                           ;	WDTE = OFF, WDT Disabled; SWDTEN is ignored
  3533  300004                     	org	3145732
  3534  300004  9F                 	db	159
  3535                           
  3536                           ;Config register CONFIG6 @ 0x300005
  3537                           ;	WDT Window Select bits
  3538                           ;	WDTCWS = WDTCWS_7, window always open (100%); software control; keyed access not requi
      +                          red
  3539                           ;	WDT input clock selector
  3540                           ;	WDTCCS = SC, Software Control
  3541  300005                     	org	3145733
  3542  300005  FF                 	db	255
  3543                           
  3544                           ;Config register CONFIG7 @ 0x300006
  3545                           ;	Boot Block Size selection bits
  3546                           ;	BBSIZE = BBSIZE_512, Boot Block size is 512 words
  3547                           ;	Boot Block enable bit
  3548                           ;	BBEN = OFF, Boot block disabled
  3549                           ;	Storage Area Flash enable bit
  3550                           ;	SAFEN = OFF, SAF disabled
  3551  300006                     	org	3145734
  3552  300006  FF                 	db	255
  3553                           
  3554                           ;Config register CONFIG8 @ 0x300007
  3555                           ;	Boot Block Write Protection bit
  3556                           ;	WRTB = OFF, Boot Block not Write protected
  3557                           ;	Configuration Register Write Protection bit
  3558                           ;	WRTC = OFF, Configuration registers not Write protected
  3559                           ;	Data EEPROM Write Protection bit
  3560                           ;	WRTD = OFF, Data EEPROM not Write protected
  3561                           ;	SAF Write protection bit
  3562                           ;	WRTSAF = OFF, SAF not Write Protected
  3563                           ;	Application Block write protection bit
  3564                           ;	WRTAPP = OFF, Application Block not write protected
  3565  300007                     	org	3145735
  3566  300007  FF                 	db	255
  3567                           
  3568                           ;Config register CONFIG9 @ 0x300008
  3569                           ;	CRC on boot output pin selection
  3570                           ;	BOOTPINSEL = RC5, CRC on boot output pin is RC5
  3571                           ;	CRC on boot output pin enable bit
  3572                           ;	BPEN = OFF, CRC on boot output pin disabled
  3573                           ;	CRC on boot output pin open drain bit
  3574                           ;	ODCON = OFF, Pin drives both high-going and low-going signals
  3575  300008                     	org	3145736
  3576  300008  FF                 	db	255
  3577                           
  3578                           ;Config register CONFIG10 @ 0x300009
  3579                           ;	PFM and Data EEPROM Code Protection bit
  3580                           ;	CP = OFF, PFM and Data EEPROM code protection disabled
  3581  300009                     	org	3145737
  3582  300009  FF                 	db	255
  3583                           
  3584                           ;Config register CONFIG11 @ 0x30000A
  3585                           ;	CRC on boot scan enable for boot area
  3586                           ;	BOOTSCEN = OFF, CRC on boot will not include the boot area of program memory in its ca
      +                          lculation
  3587                           ;	CRC on boot Continue on Error for boot areas bit
  3588                           ;	BOOTCOE = HALT, CRC on boot will stop device if error is detected in boot areas
  3589                           ;	CRC on boot application code scan enable
  3590                           ;	APPSCEN = OFF, CRC on boot will not include the application area of program memory in 
      +                          its calculation
  3591                           ;	CRC on boot SAF area scan enable
  3592                           ;	SAFSCEN = OFF, CRC on boot will not include the SAF area of program memory in its calc
      +                          ulation
  3593                           ;	CRC on boot Data EEPROM scan enable
  3594                           ;	DATASCEN = OFF, CRC on boot will not include data EEPROM in its calculation
  3595                           ;	CRC on boot Config fuses scan enable
  3596                           ;	CFGSCEN = OFF, CRC on boot will not include the configuration fuses in its calculation
  3597                           ;	CRC on boot Continue on Error for non-boot areas bit
  3598                           ;	COE = HALT, CRC on boot will stop device if error is detected in non-boot areas
  3599                           ;	Boot on CRC Enable bit
  3600                           ;	BOOTPOR = OFF, CRC on boot will not run
  3601  30000A                     	org	3145738
  3602  30000A  FF                 	db	255
  3603                           
  3604                           ;Config register CONFIG12 @ 0x30000B
  3605                           ;	Boot Sector Polynomial for CRC on boot bits 31-24
  3606                           ;	BCRCPOLT = hFF, Bits 31:24 of BCRCPOL are 0xFF
  3607  30000B                     	org	3145739
  3608  30000B  FF                 	db	255
  3609                           
  3610                           ;Config register CONFIG13 @ 0x30000C
  3611                           ;	Boot Sector Polynomial for CRC on boot bits 23-16
  3612                           ;	BCRCPOLU = hFF, Bits 23:16 of BCRCPOL are 0xFF
  3613  30000C                     	org	3145740
  3614  30000C  FF                 	db	255
  3615                           
  3616                           ;Config register CONFIG14 @ 0x30000D
  3617                           ;	Boot Sector Polynomial for CRC on boot bits 15-8
  3618                           ;	BCRCPOLH = hFF, Bits 15:8 of BCRCPOL are 0xFF
  3619  30000D                     	org	3145741
  3620  30000D  FF                 	db	255
  3621                           
  3622                           ;Config register CONFIG15 @ 0x30000E
  3623                           ;	Boot Sector Polynomial for CRC on boot bits 7-0
  3624                           ;	BCRCPOLL = hFF, Bits 7:0 of BCRCPOL are 0xFF
  3625  30000E                     	org	3145742
  3626  30000E  FF                 	db	255
  3627                           
  3628                           ;Config register CONFIG16 @ 0x30000F
  3629                           ;	Boot Sector Seed for CRC on boot bits 31-24
  3630                           ;	BCRCSEEDT = hFF, Bits 31:24 of BCRCSEED are 0xFF
  3631  30000F                     	org	3145743
  3632  30000F  FF                 	db	255
  3633                           
  3634                           ;Config register CONFIG17 @ 0x300010
  3635                           ;	Boot Sector Seed for CRC on boot bits 23-16
  3636                           ;	BCRCSEEDU = hFF, Bits 23:16 of BCRCSEED are 0xFF
  3637  300010                     	org	3145744
  3638  300010  FF                 	db	255
  3639                           
  3640                           ;Config register CONFIG18 @ 0x300011
  3641                           ;	Boot Sector Seed for CRC on boot bits 15-8
  3642                           ;	BCRCSEEDH = hFF, Bits 15:8 of BCRCSEED are 0xFF
  3643  300011                     	org	3145745
  3644  300011  FF                 	db	255
  3645                           
  3646                           ;Config register CONFIG19 @ 0x300012
  3647                           ;	Boot Sector Seed for CRC on boot bits 7-0
  3648                           ;	BCRCSEEDL = hFF, Bits 7:0 of BCRCSEED are 0xFF
  3649  300012                     	org	3145746
  3650  300012  FF                 	db	255
  3651                           
  3652                           ;Config register CONFIG20 @ 0x300013
  3653                           ;	unspecified, using default values
  3654                           ;	Boot Sector Expected Result for CRC on boot bits 31-24
  3655                           ;	BCRCEREST = 0xFF, unprogrammed default
  3656  300013                     	org	3145747
  3657  300013  FF                 	db	255
  3658                           
  3659                           ;Config register CONFIG21 @ 0x300014
  3660                           ;	unspecified, using default values
  3661                           ;	Boot Sector Expected Result for CRC on boot bits 23-16
  3662                           ;	BCRCERESU = 0xFF, unprogrammed default
  3663  300014                     	org	3145748
  3664  300014  FF                 	db	255
  3665                           
  3666                           ;Config register CONFIG22 @ 0x300015
  3667                           ;	unspecified, using default values
  3668                           ;	Boot Sector Expected Result for CRC on boot bits 15-8
  3669                           ;	BCRCERESH = 0xFF, unprogrammed default
  3670  300015                     	org	3145749
  3671  300015  FF                 	db	255
  3672                           
  3673                           ;Config register CONFIG23 @ 0x300016
  3674                           ;	unspecified, using default values
  3675                           ;	Boot Sector Expected Result for CRC on boot bits 7-0
  3676                           ;	BCRCERESL = 0xFF, unprogrammed default
  3677  300016                     	org	3145750
  3678  300016  FF                 	db	255
  3679                           
  3680                           ;Config register CONFIG24 @ 0x300017
  3681                           ;	Non-Boot Sector Polynomial for CRC on boot bits 31-24
  3682                           ;	CRCPOLT = hFF, Bits 31:24 of CRCPOL are 0xFF
  3683  300017                     	org	3145751
  3684  300017  FF                 	db	255
  3685                           
  3686                           ;Config register CONFIG25 @ 0x300018
  3687                           ;	Non-Boot Sector Polynomial for CRC on boot bits 23-16
  3688                           ;	CRCPOLU = hFF, Bits 23:16 of CRCPOL are 0xFF
  3689  300018                     	org	3145752
  3690  300018  FF                 	db	255
  3691                           
  3692                           ;Config register CONFIG26 @ 0x300019
  3693                           ;	Non-Boot Sector Polynomial for CRC on boot bits 15-8
  3694                           ;	CRCPOLH = hFF, Bits 15:8 of CRCPOL are 0xFF
  3695  300019                     	org	3145753
  3696  300019  FF                 	db	255
  3697                           
  3698                           ;Config register CONFIG27 @ 0x30001A
  3699                           ;	Non-Boot Sector Polynomial for CRC on boot bits 7-0
  3700                           ;	CRCPOLL = hFF, Bits 7:0 of CRCPOL are 0xFF
  3701  30001A                     	org	3145754
  3702  30001A  FF                 	db	255
  3703                           
  3704                           ;Config register CONFIG28 @ 0x30001B
  3705                           ;	Non-Boot Sector Seed for CRC on boot bits 31-24
  3706                           ;	CRCSEEDT = hFF, Bits 31:24 of CRCSEED are 0xFF
  3707  30001B                     	org	3145755
  3708  30001B  FF                 	db	255
  3709                           
  3710                           ;Config register CONFIG29 @ 0x30001C
  3711                           ;	Non-Boot Sector Seed for CRC on boot bits 23-16
  3712                           ;	CRCSEEDU = hFF, Bits 23:16 of CRCSEED are 0xFF
  3713  30001C                     	org	3145756
  3714  30001C  FF                 	db	255
  3715                           
  3716                           ;Config register CONFIG30 @ 0x30001D
  3717                           ;	Non-Boot Sector Seed for CRC on boot bits 15-8
  3718                           ;	CRCSEEDH = hFF, Bits 15:8 of CRCSEED are 0xFF
  3719  30001D                     	org	3145757
  3720  30001D  FF                 	db	255
  3721                           
  3722                           ;Config register CONFIG31 @ 0x30001E
  3723                           ;	Non-Boot Sector Seed for CRC on boot bits 7-0
  3724                           ;	CRCSEEDL = hFF, Bits 7:0 of CRCSEED are 0xFF
  3725  30001E                     	org	3145758
  3726  30001E  FF                 	db	255
  3727                           
  3728                           ;Config register CONFIG32 @ 0x30001F
  3729                           ;	unspecified, using default values
  3730                           ;	Non-Boot Sector Expected Result for CRC on boot bits 31-24
  3731                           ;	CRCEREST = 0xFF, unprogrammed default
  3732  30001F                     	org	3145759
  3733  30001F  FF                 	db	255
  3734                           
  3735                           ;Config register CONFIG33 @ 0x300020
  3736                           ;	unspecified, using default values
  3737                           ;	Non-Boot Sector Expected Result for CRC on boot bits 23-16
  3738                           ;	CRCERESU = 0xFF, unprogrammed default
  3739  300020                     	org	3145760
  3740  300020  FF                 	db	255
  3741                           
  3742                           ;Config register CONFIG34 @ 0x300021
  3743                           ;	unspecified, using default values
  3744                           ;	Non-Boot Sector Expected Result for CRC on boot bits 15-8
  3745                           ;	CRCERESH = 0xFF, unprogrammed default
  3746  300021                     	org	3145761
  3747  300021  FF                 	db	255
  3748                           
  3749                           ;Config register CONFIG35 @ 0x300022
  3750                           ;	unspecified, using default values
  3751                           ;	Non-Boot Sector Expected Result for CRC on boot bits 7-0
  3752                           ;	CRCERESL = 0xFF, unprogrammed default
  3753  300022                     	org	3145762
  3754  300022  FF                 	db	255
  3755                           
  3756                           ; Padding undefined space
  3757  300023                     	org	3145763
  3758  300023  FF                 	db	255
  3759                           tosu	equ	0x4FF
  3760                           tosh	equ	0x4FE
  3761                           tosl	equ	0x4FD
  3762                           stkptr	equ	0x4FC
  3763                           pclatu	equ	0x4FB
  3764                           pclath	equ	0x4FA
  3765                           pcl	equ	0x4F9
  3766                           tblptru	equ	0x4F8
  3767                           tblptrh	equ	0x4F7
  3768                           tblptrl	equ	0x4F6
  3769                           tablat	equ	0x4F5
  3770                           prodh	equ	0x4F4
  3771                           prodl	equ	0x4F3
  3772                           indf0	equ	0x4EF
  3773                           postinc0	equ	0x4EE
  3774                           postdec0	equ	0x4ED
  3775                           preinc0	equ	0x4EC
  3776                           plusw0	equ	0x4EB
  3777                           fsr0h	equ	0x4EA
  3778                           fsr0l	equ	0x4E9
  3779                           wreg	equ	0x4E8
  3780                           indf1	equ	0x4E7
  3781                           postinc1	equ	0x4E6
  3782                           postdec1	equ	0x4E5
  3783                           preinc1	equ	0x4E4
  3784                           plusw1	equ	0x4E3
  3785                           fsr1h	equ	0x4E2
  3786                           fsr1l	equ	0x4E1
  3787                           bsr	equ	0x4E0
  3788                           indf2	equ	0x4DF
  3789                           postinc2	equ	0x4DE
  3790                           postdec2	equ	0x4DD
  3791                           preinc2	equ	0x4DC
  3792                           plusw2	equ	0x4DB
  3793                           fsr2h	equ	0x4DA
  3794                           fsr2l	equ	0x4D9
  3795                           status	equ	0x4D8

Data Sizes:
    Strings     0
    Constant    11
    Data        34
    BSS         36
    Persistent  6
    Stack       0

Auto Spaces:
    Space          Size  Autos    Used
    COMRAM           95      6      82
    BANK5           160      0       0
    BANK6           256      0       0
    BANK7           256      0       0
    BANK8           256      0       0
    BANK9           256      0       0
    BANK10          256      0       0
    BANK11          256      0       0
    BANK12          256      0       0
    BANK13          256      0       0
    BANK14          256      0       0
    BANK15          256      0       0
    BANK16          256      0       0
    BANK17          256      0       0
    BANK18          256      0       0
    BANK19          256      0       0
    BANK20          256      0       0
    BANK21          256      0       0
    BANK22          256      0       0
    BANK23          256      0       0
    BANK24          256      0       0
    BANK25          256      0       0
    BANK26          256      0       0
    BANK27          256      0       0
    BANK28          256      0       0
    BANK29          256      0       0
    BANK30          256      0       0
    BANK31          256      0       0
    BANK32          256      0       0
    BANK33          256      0       0
    BANK34          256      0       0
    BANK35          256      0       0
    BANK36          256      0       0
    BANK37          256      0       0

Pointer List with Targets:

    msg.data	PTR unsigned char  size(2) Largest target is 32
		 -> CANDATAdata(COMRAM[32]), rxMsgData(COMRAM[8]), 

    TMR0_SetInterruptHandler@InterruptHandler	PTR FTN()void  size(2) Largest target is 1
		 -> TMR0_DefaultInterruptHandler(), 

    TMR0_InterruptHandler	PTR FTN()void  size(2) Largest target is 1
		 -> TMR0_DefaultInterruptHandler(), Absolute function(), 

    TMR1_SetInterruptHandler@InterruptHandler	PTR FTN()void  size(2) Largest target is 1
		 -> TMR1_DefaultInterruptHandler(), 

    TMR1_InterruptHandler	PTR FTN()void  size(2) Largest target is 1
		 -> Absolute function(), TMR1_DefaultInterruptHandler(), 

    CAN1_SetRxBufferOverFlowInterruptHandler@handler	PTR FTN()void  size(2) Largest target is 1
		 -> DefaultRxBufferOverflowHandler(), 

    CAN1_RxBufferOverflowHandler	PTR FTN()void  size(2) Largest target is 1
		 -> Absolute function(), DefaultRxBufferOverflowHandler(), 

    CAN1_SetTxAttemptInterruptHandler@handler	PTR FTN()void  size(2) Largest target is 1
		 -> DefaultTxAttemptHandler(), 

    CAN1_TxAttemptHandler	PTR FTN()void  size(2) Largest target is 1
		 -> Absolute function(), DefaultTxAttemptHandler(), 

    CAN1_SetSystemErrorInterruptHandler@handler	PTR FTN()void  size(2) Largest target is 1
		 -> DefaultSystemErrorHandler(), 

    CAN1_SystemErrorHandler	PTR FTN()void  size(2) Largest target is 1
		 -> Absolute function(), DefaultSystemErrorHandler(), 

    CAN1_SetModeChangeInterruptHandler@handler	PTR FTN()void  size(2) Largest target is 1
		 -> DefaultModeChangeHandler(), 

    CAN1_ModeChangeHandler	PTR FTN()void  size(2) Largest target is 1
		 -> Absolute function(), DefaultModeChangeHandler(), 

    CAN1_SetBusErrorInterruptHandler@handler	PTR FTN()void  size(2) Largest target is 1
		 -> DefaultBusErrorHandler(), 

    CAN1_BusErrorHandler	PTR FTN()void  size(2) Largest target is 1
		 -> Absolute function(), DefaultBusErrorHandler(), 

    CAN1_SetBusWakeUpActivityInterruptHandler@handler	PTR FTN()void  size(2) Largest target is 1
		 -> DefaultBusWakeUpActivityHandler(), 

    CAN1_BusWakeUpActivityHandler	PTR FTN()void  size(2) Largest target is 1
		 -> Absolute function(), DefaultBusWakeUpActivityHandler(), 

    CAN1_SetInvalidMessageInterruptHandler@handler	PTR FTN()void  size(2) Largest target is 1
		 -> DefaultInvalidMessageHandler(), 

    CAN1_InvalidMessageHandler	PTR FTN()void  size(2) Largest target is 1
		 -> Absolute function(), DefaultInvalidMessageHandler(), 

    ValidateTransmission@txCanMsg.data	PTR unsigned char  size(2) Largest target is 32
		 -> CANDATAdata(COMRAM[32]), rxMsgData(COMRAM[8]), 

    WriteMessageToFifo@txCanMsg.data	PTR unsigned char  size(2) Largest target is 32
		 -> CANDATAdata(COMRAM[32]), rxMsgData(COMRAM[8]), 

    sp__memcpy	PTR void  size(2) Largest target is 9727
		 -> RAM(DATA[9727]), rxMsgData(COMRAM[8]), 

    S271$data	PTR unsigned char  size(2) Largest target is 32
		 -> CANDATAdata(COMRAM[32]), rxMsgData(COMRAM[8]), 

    ReadMessageFromFifo@rxCanMsg.data	PTR unsigned char  size(2) Largest target is 32
		 -> CANDATAdata(COMRAM[32]), rxMsgData(COMRAM[8]), 

    FIFO	const PTR volatile struct CAN_FIFOREG size(2) Largest target is 1
		 -> C1TXQCONL(SFR_1[1]), 


Critical Paths under _main in COMRAM

    _SYSTEM_Initialize->_TMR1_Initialize
    _TMR1_Initialize->_TMR1_SetInterruptHandler
    _TMR0_Initialize->_TMR0_SetInterruptHandler
    _CAN1_Initialize->_CAN1_OperationModeSet
    _CAN1_ErrorNotificationInterruptEnable->_CAN1_SetBusErrorInterruptHandler
    _CAN1_ErrorNotificationInterruptEnable->_CAN1_SetBusWakeUpActivityInterruptHandler
    _CAN1_ErrorNotificationInterruptEnable->_CAN1_SetInvalidMessageInterruptHandler
    _CAN1_ErrorNotificationInterruptEnable->_CAN1_SetModeChangeInterruptHandler
    _CAN1_ErrorNotificationInterruptEnable->_CAN1_SetRxBufferOverFlowInterruptHandler
    _CAN1_ErrorNotificationInterruptEnable->_CAN1_SetSystemErrorInterruptHandler
    _CAN1_ErrorNotificationInterruptEnable->_CAN1_SetTxAttemptInterruptHandler

Critical Paths under _INTERRUPT_InterruptManager in COMRAM

    _TMR1_ISR->_TMR1_WriteTimer
    _TMR0_ISR->_SPEAKER

Critical Paths under _main in BANK5

    None.

Critical Paths under _INTERRUPT_InterruptManager in BANK5

    None.

Critical Paths under _main in BANK6

    None.

Critical Paths under _INTERRUPT_InterruptManager in BANK6

    None.

Critical Paths under _main in BANK7

    None.

Critical Paths under _INTERRUPT_InterruptManager in BANK7

    None.

Critical Paths under _main in BANK8

    None.

Critical Paths under _INTERRUPT_InterruptManager in BANK8

    None.

Critical Paths under _main in BANK9

    None.

Critical Paths under _INTERRUPT_InterruptManager in BANK9

    None.

Critical Paths under _main in BANK10

    None.

Critical Paths under _INTERRUPT_InterruptManager in BANK10

    None.

Critical Paths under _main in BANK11

    None.

Critical Paths under _INTERRUPT_InterruptManager in BANK11

    None.

Critical Paths under _main in BANK12

    None.

Critical Paths under _INTERRUPT_InterruptManager in BANK12

    None.

Critical Paths under _main in BANK13

    None.

Critical Paths under _INTERRUPT_InterruptManager in BANK13

    None.

Critical Paths under _main in BANK14

    None.

Critical Paths under _INTERRUPT_InterruptManager in BANK14

    None.

Critical Paths under _main in BANK15

    None.

Critical Paths under _INTERRUPT_InterruptManager in BANK15

    None.

Critical Paths under _main in BANK16

    None.

Critical Paths under _INTERRUPT_InterruptManager in BANK16

    None.

Critical Paths under _main in BANK17

    None.

Critical Paths under _INTERRUPT_InterruptManager in BANK17

    None.

Critical Paths under _main in BANK18

    None.

Critical Paths under _INTERRUPT_InterruptManager in BANK18

    None.

Critical Paths under _main in BANK19

    None.

Critical Paths under _INTERRUPT_InterruptManager in BANK19

    None.

Critical Paths under _main in BANK20

    None.

Critical Paths under _INTERRUPT_InterruptManager in BANK20

    None.

Critical Paths under _main in BANK21

    None.

Critical Paths under _INTERRUPT_InterruptManager in BANK21

    None.

Critical Paths under _main in BANK22

    None.

Critical Paths under _INTERRUPT_InterruptManager in BANK22

    None.

Critical Paths under _main in BANK23

    None.

Critical Paths under _INTERRUPT_InterruptManager in BANK23

    None.

Critical Paths under _main in BANK24

    None.

Critical Paths under _INTERRUPT_InterruptManager in BANK24

    None.

Critical Paths under _main in BANK25

    None.

Critical Paths under _INTERRUPT_InterruptManager in BANK25

    None.

Critical Paths under _main in BANK26

    None.

Critical Paths under _INTERRUPT_InterruptManager in BANK26

    None.

Critical Paths under _main in BANK27

    None.

Critical Paths under _INTERRUPT_InterruptManager in BANK27

    None.

Critical Paths under _main in BANK28

    None.

Critical Paths under _INTERRUPT_InterruptManager in BANK28

    None.

Critical Paths under _main in BANK29

    None.

Critical Paths under _INTERRUPT_InterruptManager in BANK29

    None.

Critical Paths under _main in BANK30

    None.

Critical Paths under _INTERRUPT_InterruptManager in BANK30

    None.

Critical Paths under _main in BANK31

    None.

Critical Paths under _INTERRUPT_InterruptManager in BANK31

    None.

Critical Paths under _main in BANK32

    None.

Critical Paths under _INTERRUPT_InterruptManager in BANK32

    None.

Critical Paths under _main in BANK33

    None.

Critical Paths under _INTERRUPT_InterruptManager in BANK33

    None.

Critical Paths under _main in BANK34

    None.

Critical Paths under _INTERRUPT_InterruptManager in BANK34

    None.

Critical Paths under _main in BANK35

    None.

Critical Paths under _INTERRUPT_InterruptManager in BANK35

    None.

Critical Paths under _main in BANK36

    None.

Critical Paths under _INTERRUPT_InterruptManager in BANK36

    None.

Critical Paths under _main in BANK37

    None.

Critical Paths under _INTERRUPT_InterruptManager in BANK37

    None.

Call Graph Tables:

 ---------------------------------------------------------------------------------
 (Depth) Function   	        Calls       Base Space   Used Autos Params    Refs
 ---------------------------------------------------------------------------------
 (0) _main                                                 0     0      0    1100
                 _DELAY_milliseconds
                  _SYSTEM_Initialize
 ---------------------------------------------------------------------------------
 (1) _SYSTEM_Initialize                                    0     0      0    1002
                    _CAN1_Initialize
               _INTERRUPT_Initialize
              _OSCILLATOR_Initialize
             _PIN_MANAGER_Initialize
                     _PMD_Initialize
                    _TMR0_Initialize
                    _TMR1_Initialize
 ---------------------------------------------------------------------------------
 (2) _TMR1_Initialize                                      2     2      0      98
                                              4 COMRAM     2     2      0
           _TMR1_SetInterruptHandler
 ---------------------------------------------------------------------------------
 (3) _TMR1_SetInterruptHandler                             2     0      2      98
                                              2 COMRAM     2     0      2
 ---------------------------------------------------------------------------------
 (2) _TMR0_Initialize                                      0     0      0      98
           _TMR0_SetInterruptHandler
 ---------------------------------------------------------------------------------
 (3) _TMR0_SetInterruptHandler                             2     0      2      98
                                              2 COMRAM     2     0      2
 ---------------------------------------------------------------------------------
 (2) _PMD_Initialize                                       0     0      0       0
 ---------------------------------------------------------------------------------
 (2) _PIN_MANAGER_Initialize                               0     0      0       0
 ---------------------------------------------------------------------------------
 (2) _OSCILLATOR_Initialize                                0     0      0       0
 ---------------------------------------------------------------------------------
 (2) _INTERRUPT_Initialize                                 0     0      0       0
 ---------------------------------------------------------------------------------
 (2) _CAN1_Initialize                                      0     0      0     806
          _CAN1_BitRateConfiguration
_CAN1_ErrorNotificationInterruptEnab
              _CAN1_OperationModeSet
         _CAN1_RX_FIFO_Configuration
_CAN1_RX_FIFO_FilterMaskConfiguratio
             _CAN1_RX_FIFO_ResetInfo
         _CAN1_TX_FIFO_Configuration
 ---------------------------------------------------------------------------------
 (3) _CAN1_TX_FIFO_Configuration                           0     0      0       0
 ---------------------------------------------------------------------------------
 (3) _CAN1_RX_FIFO_ResetInfo                               1     1      0      45
                                              2 COMRAM     1     1      0
 ---------------------------------------------------------------------------------
 (3) _CAN1_RX_FIFO_FilterMaskConfiguration                 0     0      0       0
 ---------------------------------------------------------------------------------
 (3) _CAN1_RX_FIFO_Configuration                           0     0      0       0
 ---------------------------------------------------------------------------------
 (3) _CAN1_OperationModeSet                                3     3      0      75
                                              2 COMRAM     3     3      0
              _CAN1_OperationModeGet
 ---------------------------------------------------------------------------------
 (4) _CAN1_OperationModeGet                                0     0      0       0
 ---------------------------------------------------------------------------------
 (3) _CAN1_ErrorNotificationInterruptEnable                0     0      0     686
   _CAN1_SetBusErrorInterruptHandler
_CAN1_SetBusWakeUpActivityInterruptH
_CAN1_SetInvalidMessageInterruptHand
 _CAN1_SetModeChangeInterruptHandler
_CAN1_SetRxBufferOverFlowInterruptHa
_CAN1_SetSystemErrorInterruptHandler
  _CAN1_SetTxAttemptInterruptHandler
 ---------------------------------------------------------------------------------
 (4) _CAN1_SetTxAttemptInterruptHandler                    2     0      2      98
                                              2 COMRAM     2     0      2
 ---------------------------------------------------------------------------------
 (4) _CAN1_SetSystemErrorInterruptHandler                  2     0      2      98
                                              2 COMRAM     2     0      2
 ---------------------------------------------------------------------------------
 (4) _CAN1_SetRxBufferOverFlowInterruptHandler             2     0      2      98
                                              2 COMRAM     2     0      2
 ---------------------------------------------------------------------------------
 (4) _CAN1_SetModeChangeInterruptHandler                   2     0      2      98
                                              2 COMRAM     2     0      2
 ---------------------------------------------------------------------------------
 (4) _CAN1_SetInvalidMessageInterruptHandler               2     0      2      98
                                              2 COMRAM     2     0      2
 ---------------------------------------------------------------------------------
 (4) _CAN1_SetBusWakeUpActivityInterruptHandler            2     0      2      98
                                              2 COMRAM     2     0      2
 ---------------------------------------------------------------------------------
 (4) _CAN1_SetBusErrorInterruptHandler                     2     0      2      98
                                              2 COMRAM     2     0      2
 ---------------------------------------------------------------------------------
 (3) _CAN1_BitRateConfiguration                            0     0      0       0
 ---------------------------------------------------------------------------------
 (1) _DELAY_milliseconds                                   3     1      2      98
                                              2 COMRAM     3     1      2
 ---------------------------------------------------------------------------------
 Estimated maximum stack depth 4
 ---------------------------------------------------------------------------------
 (Depth) Function   	        Calls       Base Space   Used Autos Params    Refs
 ---------------------------------------------------------------------------------
 (5) _INTERRUPT_InterruptManager                           0     0      0     240
                           _CAN1_ISR
                           _TMR0_ISR
                           _TMR1_ISR
 ---------------------------------------------------------------------------------
 (6) _TMR1_ISR                                             0     0      0     240
                      _TMR1_CallBack
                    _TMR1_WriteTimer
 ---------------------------------------------------------------------------------
 (7) _TMR1_WriteTimer                                      2     0      2     240
                                              0 COMRAM     2     0      2
 ---------------------------------------------------------------------------------
 (7) _TMR1_CallBack                                        0     0      0       0
                   Absolute function *
       _TMR1_DefaultInterruptHandler *
 ---------------------------------------------------------------------------------
 (8) _TMR1_DefaultInterruptHandler                         0     0      0       0
 ---------------------------------------------------------------------------------
 (6) _TMR0_ISR                                             0     0      0       0
                            _SPEAKER
                      _TMR0_CallBack
 ---------------------------------------------------------------------------------
 (7) _TMR0_CallBack                                        0     0      0       0
                   Absolute function *
       _TMR0_DefaultInterruptHandler *
 ---------------------------------------------------------------------------------
 (8) _TMR0_DefaultInterruptHandler                         0     0      0       0
 ---------------------------------------------------------------------------------
 (7) _SPEAKER                                              1     1      0       0
                                              0 COMRAM     1     1      0
 ---------------------------------------------------------------------------------
 (6) _CAN1_ISR                                             0     0      0       0
                   Absolute function *
             _DefaultBusErrorHandler *
    _DefaultBusWakeUpActivityHandler *
       _DefaultInvalidMessageHandler *
           _DefaultModeChangeHandler *
     _DefaultRxBufferOverflowHandler *
          _DefaultSystemErrorHandler *
            _DefaultTxAttemptHandler *
 ---------------------------------------------------------------------------------
 (7) _DefaultTxAttemptHandler                              0     0      0       0
 ---------------------------------------------------------------------------------
 (7) _DefaultSystemErrorHandler                            0     0      0       0
 ---------------------------------------------------------------------------------
 (7) _DefaultRxBufferOverflowHandler                       0     0      0       0
 ---------------------------------------------------------------------------------
 (7) _DefaultModeChangeHandler                             0     0      0       0
 ---------------------------------------------------------------------------------
 (7) _DefaultInvalidMessageHandler                         0     0      0       0
 ---------------------------------------------------------------------------------
 (7) _DefaultBusWakeUpActivityHandler                      0     0      0       0
 ---------------------------------------------------------------------------------
 (7) _DefaultBusErrorHandler                               0     0      0       0
 ---------------------------------------------------------------------------------
 (8) Absolute function(Fake)                               0     0      0       0
 ---------------------------------------------------------------------------------
 Estimated maximum stack depth 8
 ---------------------------------------------------------------------------------

 Call Graph Graphs:

 _main (ROOT)
   _DELAY_milliseconds
   _SYSTEM_Initialize
     _CAN1_Initialize
       _CAN1_BitRateConfiguration
       _CAN1_ErrorNotificationInterruptEnable
         _CAN1_SetBusErrorInterruptHandler
         _CAN1_SetBusWakeUpActivityInterruptHandler
         _CAN1_SetInvalidMessageInterruptHandler
         _CAN1_SetModeChangeInterruptHandler
         _CAN1_SetRxBufferOverFlowInterruptHandler
         _CAN1_SetSystemErrorInterruptHandler
         _CAN1_SetTxAttemptInterruptHandler
       _CAN1_OperationModeSet
         _CAN1_OperationModeGet
       _CAN1_RX_FIFO_Configuration
       _CAN1_RX_FIFO_FilterMaskConfiguration
       _CAN1_RX_FIFO_ResetInfo
       _CAN1_TX_FIFO_Configuration
     _INTERRUPT_Initialize
     _OSCILLATOR_Initialize
     _PIN_MANAGER_Initialize
     _PMD_Initialize
     _TMR0_Initialize
       _TMR0_SetInterruptHandler
     _TMR1_Initialize
       _TMR1_SetInterruptHandler

 _INTERRUPT_InterruptManager (ROOT)
   _CAN1_ISR
     Absolute function(Fake) *
     _DefaultBusErrorHandler *
     _DefaultBusWakeUpActivityHandler *
     _DefaultInvalidMessageHandler *
     _DefaultModeChangeHandler *
     _DefaultRxBufferOverflowHandler *
     _DefaultSystemErrorHandler *
     _DefaultTxAttemptHandler *
   _TMR0_ISR
     _SPEAKER
     _TMR0_CallBack
       Absolute function(Fake) *
       _TMR0_DefaultInterruptHandler *
   _TMR1_ISR
     _TMR1_CallBack
       Absolute function(Fake) *
       _TMR1_DefaultInterruptHandler *
     _TMR1_WriteTimer

 Address spaces:
Name               Size   Autos  Total    Cost      Usage
BIGRAM            20FF      0       0      71        0.0%
EEDATA             400      0       0       0        0.0%
BITBANK37          100      0       0      70        0.0%
BANK37             100      0       0      68        0.0%
BITBANK36          100      0       0      66        0.0%
BANK36             100      0       0      67        0.0%
BITBANK35          100      0       0      64        0.0%
BANK35             100      0       0      65        0.0%
BITBANK34          100      0       0      62        0.0%
BANK34             100      0       0      63        0.0%
BITBANK33          100      0       0      60        0.0%
BANK33             100      0       0      61        0.0%
BITBANK32          100      0       0      58        0.0%
BANK32             100      0       0      59        0.0%
BITBANK31          100      0       0      56        0.0%
BANK31             100      0       0      57        0.0%
BITBANK30          100      0       0      54        0.0%
BANK30             100      0       0      55        0.0%
BITBANK29          100      0       0      52        0.0%
BANK29             100      0       0      53        0.0%
BITBANK28          100      0       0      50        0.0%
BANK28             100      0       0      51        0.0%
BITBANK27          100      0       0      48        0.0%
BANK27             100      0       0      49        0.0%
BITBANK26          100      0       0      46        0.0%
BANK26             100      0       0      47        0.0%
BITBANK25          100      0       0      44        0.0%
BANK25             100      0       0      45        0.0%
BITBANK24          100      0       0      42        0.0%
BANK24             100      0       0      43        0.0%
BITBANK23          100      0       0      40        0.0%
BANK23             100      0       0      41        0.0%
BITBANK22          100      0       0      38        0.0%
BANK22             100      0       0      39        0.0%
BITBANK21          100      0       0      36        0.0%
BANK21             100      0       0      37        0.0%
BITBANK20          100      0       0      34        0.0%
BANK20             100      0       0      35        0.0%
BITBANK19          100      0       0      32        0.0%
BANK19             100      0       0      33        0.0%
BITBANK18          100      0       0      30        0.0%
BANK18             100      0       0      31        0.0%
BITBANK17          100      0       0      28        0.0%
BANK17             100      0       0      29        0.0%
BITBANK16          100      0       0      26        0.0%
BANK16             100      0       0      27        0.0%
BITBANK15          100      0       0      24        0.0%
BANK15             100      0       0      25        0.0%
BITBANK14          100      0       0      22        0.0%
BANK14             100      0       0      23        0.0%
BITBANK13          100      0       0      20        0.0%
BANK13             100      0       0      21        0.0%
BITBANK12          100      0       0      18        0.0%
BANK12             100      0       0      19        0.0%
BITBANK11          100      0       0      16        0.0%
BANK11             100      0       0      17        0.0%
BITBANK10          100      0       0      14        0.0%
BANK10             100      0       0      15        0.0%
BITBANK9           100      0       0      12        0.0%
BANK9              100      0       0      13        0.0%
BITBANK8           100      0       0      10        0.0%
BANK8              100      0       0      11        0.0%
BITBANK7           100      0       0       8        0.0%
BANK7              100      0       0       9        0.0%
BITBANK6           100      0       0       6        0.0%
BANK6              100      0       0       7        0.0%
BITBANK5            A0      0       0       4        0.0%
BANK5               A0      0       0       5        0.0%
BITCOMRAM           5F      0       0       0        0.0%
COMRAM              5F      6      52       1       86.3%
BITSFR_5             0      0       0     200        0.0%
SFR_5                0      0       0     200        0.0%
BITSFR_4             0      0       0     200        0.0%
SFR_4                0      0       0     200        0.0%
BITSFR_3             0      0       0     200        0.0%
SFR_3                0      0       0     200        0.0%
BITSFR_2             0      0       0     200        0.0%
SFR_2                0      0       0     200        0.0%
BITSFR_1             0      0       0     200        0.0%
SFR_1                0      0       0     200        0.0%
BITSFR               0      0       0     200        0.0%
SFR                  0      0       0     200        0.0%
STACK                0      0       0       2        0.0%
NULL                 0      0       0       0        0.0%
ABS                  0      0      52      69        0.0%
DATA                 0      0      52       3        0.0%
CODE                 0      0       0       0        0.0%


Microchip Technology PIC18 Macro Assembler V2.31 build 20201012212115 
Symbol Table                                                                                   Tue Nov 09 14:27:38 2021

                                                u10 2B12                                                  u11 2B0E  
                                                u20 295C                                                  u21 2958  
                                                u30 296C                                                  u31 2968  
                                                u40 297E                                                  u41 297A  
                                               l130 2B12                                                 l133 2C58  
                                               l142 2C6C                                                 l136 2CD6  
                                               l145 282E                                                 l250 2CBC  
                                               l155 2992                                                 l139 2C44  
                                               l156 2994                                                 l332 2C30  
                                               l253 2CC6                                                 l149 293C  
                                               l262 2C9E                                                 l406 2C76  
                                               l159 2C8A                                                 l335 2B92  
                                               l256 2CD0                                                 l504 2C80  
                                               l265 2C94                                                 l329 2BFA  
                                               l370 29DA                                                 l259 2CB2  
                                               l268 2CA8                                                 l428 2CD4  
                                               l472 2BB8                                                 l562 288A  
                                               l573 2AB8                                                 u940 2900  
                                               u941 28FC                          __end_of_DELAY_milliseconds 2ABA  
                                   _timer1ReloadVal 054B                            ?_DefaultTxAttemptHandler 054D  
                                               _msg 051E                             __size_of_PMD_Initialize 0028  
                                               prod 0004F3                                                 tosl 0004FD  
                                               wreg 0004E8                          _CAN1_InvalidMessageHandler 0511  
                                              l2001 282C                                                l2011 2900  
                                              l2003 2C6E                                                l2021 2932  
                                              l2013 291E                                                l2005 2C78  
                                              l2023 2936                                                l2015 2922  
                                              l2007 28E6                                                l2031 29C6  
                                              l2113 2A8C                                                l2017 2926  
                                              l2009 28EA                                                l2041 2BA4  
                                              l2033 29C8                                                l2025 2996  
                                              l2115 2A90                                                l1411 295C  
                                              l2019 292E                                                l2043 2BA6  
                                              l2035 29D4                                                l2027 29AC  
                                              l2117 2A9E                                                l1413 296C  
                                              l1405 2940                                                l2045 2BB2  
                                              l2037 2B94                                                l2029 29AE  
                                              l2141 2C04                                                l1415 297E  
                                              l1407 2944                                                l2039 2BA2  
                                              l2071 2BE0                                                l2143 2C10  
                                              l2135 2BFC                                                l1417 298E  
                                              l1409 294A                                                l2081 2BF2  
                                              l2073 2BE2                                                l2137 2C00  
                                              l1371 2C82                                                l2083 2BF6  
                                              l2075 2BE6                                                l2139 2C02  
                                              l1381 2B00                                                l1533 2CD2  
                                              l1541 284A                                                l2077 2BEA  
                                              l2069 2BDC                                                l1383 2B02  
                                              l1375 2AE8                                                l1551 2876  
                                              l1543 2852                                                l1535 2B6C  
                                              l2079 2BEE                                                l1385 2C46  
                                              l1553 2878                                                l1545 2870  
                                              l1537 2830                                                l1379 2AEC  
                                              l1387 2C32                                                l1555 287A  
                                              l1547 2872                                                l1539 2840  
                                              l1389 2C5A                                                l1557 2C1A  
                                              l1549 2874                                                l1981 2CAA  
                                              l1975 2CB4                                                l1983 2C96  
                                              l1991 2818                                                l1977 2CBE  
                                              l1985 2C8C                                                l1993 281A  
                                              l1979 2CC8                                                l1987 2CA0  
                                              l1995 2820                                                l1997 2824  
                                              l1989 27C4                                                l1999 2828  
                                              _FIFO 260A                                                u1040 2AB8  
                                              u1041 2AB4                                                u1117 2A96  
                                              _LATA 0004BE                                                _LATB 0004BF  
                                              _LATC 0004C0                                                _PMD0 000060  
                                              _PMD1 000061                                                _PMD2 000062  
                                              _PMD3 000063                                                _PMD4 000064  
                                              _PMD5 000065                                                _PMD6 000066  
                                              _PMD7 000067                                                _PMD8 000068  
                                              _WPUA 000401                                                _WPUB 000409  
                                              _WPUC 000411                                                _WPUE 000421  
                                   __end_of_SPEAKER 2A56                                    __end_of_CAN1_ISR 2756  
         __end_of_CAN1_SetTxAttemptInterruptHandler 2C96          __size_of_CAN1_SetTxAttemptInterruptHandler 000A  
               ??_CAN1_SetTxAttemptInterruptHandler 0551                  ?_CAN1_SetTxAttemptInterruptHandler 054F  
                 _CAN1_SetTxAttemptInterruptHandler 2C8C                                                _main 2BFC  
                                              indf2 0004DF                                                fsr1l 0004E1  
                                              fsr2l 0004D9                                                prodl 0004F3  
                                              start 001A                          ??_TMR1_SetInterruptHandler 0551  
                                      ___param_bank 000000                __end_of_DefaultInvalidMessageHandler 2CE6  
             __size_of_DefaultInvalidMessageHandler 0002                        _DefaultInvalidMessageHandler 2CE4  
        CAN1_SetSystemErrorInterruptHandler@handler 054F                             __end_of_TMR0_Initialize 2BBA  
                    ??_TMR0_DefaultInterruptHandler 054D                      __size_of_OSCILLATOR_Initialize 0018  
                     __end_of_OSCILLATOR_Initialize 2C32                                               ?_main 054D  
          __end_of_CAN1_SetBusErrorInterruptHandler 2CD2           __size_of_CAN1_SetBusErrorInterruptHandler 000A  
                ??_CAN1_SetBusErrorInterruptHandler 0551                   ?_CAN1_SetBusErrorInterruptHandler 054F  
                                             _T1CLK 000321                    _CAN1_SetBusErrorInterruptHandler 2CC8  
                                             _T1CON 00031E                                               i2l110 2CE6  
                                             i2l113 2CE8                                               i2l122 2CDC  
                                             i2l107 2CE4                                               i2l116 2CE2  
                                             i2l125 2CE0                                               i2l119 2CDE  
                                             i2l403 2B3E                                               i2l501 2B6A  
                                             i2l280 2754                                               i2l409 2CD8  
                                             i2l433 277A                                               i2l507 2CDA  
                                             i2l435 279E                                               i2l276 271A  
                                             i2l436 27C2                                               i2l278 2752  
                                             i2l439 27C2                                               i2l384 2AE6  
                                             i2l618 2A54                                               i2l399 2A8A  
                                             i2l497 28E4                                               _OSCEN 0000B3  
                                             _TMR0H 000319                                               _TMR1H 00031D  
                                             _TMR0L 000318                                               _TMR1L 00031C  
                                             _TRISA 0004C6                                               _TRISB 0004C7  
                                             _TRISC 0004C8                                               _TRISE 0004CA  
                          ??_DefaultBusErrorHandler 054D                   __size_of_TMR0_SetInterruptHandler 000A  
                         ?_TMR0_SetInterruptHandler 054F                            __size_of_CAN1_Initialize 0058  
                                  __end_of_TMR0_ISR 28E6                                    __end_of_TMR1_ISR 2A8C  
                           __end_of_TMR1_Initialize 29DC                                               pclath 0004FA  
                                             tablat 0004F5                                               status 0004D8  
          CAN1_SetTxAttemptInterruptHandler@handler 054F                                     _TMR1_WriteTimer 2ABA  
                      ??_CAN1_TX_FIFO_Configuration 054F                                        __end_of_FIFO 260C  
                                   __initialization 29DC                                   __end_of_DLC_BYTES 260A  
                                      __end_of_main 2C1A                         CAN1_RX_FIFO_ResetInfo@index 054F  
                   __end_of_DefaultTxAttemptHandler 2CDE                         ?_INTERRUPT_InterruptManager 054D  
                   fp__DefaultInvalidMessageHandler 0000                       ?_DefaultInvalidMessageHandler 054D  
                                            ??_main 0553                                       __activetblptr 000003  
    __end_of_CAN1_SetInvalidMessageInterruptHandler 2CBE     __size_of_CAN1_SetInvalidMessageInterruptHandler 000A  
          ??_CAN1_SetInvalidMessageInterruptHandler 0551             ?_CAN1_SetInvalidMessageInterruptHandler 054F  
            _CAN1_SetInvalidMessageInterruptHandler 2CB4                                           ??_SPEAKER 054D  
                                            _C1CONH 000101                                              _C1CONL 000100  
                                            _C1CONU 000102                                              _C1INTH 00011D  
                                            _C1INTL 00011C                                              _C1INTT 00011F  
                                            _C1INTU 00011E                   __size_of_DefaultModeChangeHandler 0002  
     CAN1_SetInvalidMessageInterruptHandler@handler 054F                           ?_DefaultModeChangeHandler 054D  
               __size_of_CAN1_TX_FIFO_Configuration 0014                                              _ANSELA 000400  
                                            _ANSELB 000408                                              _ANSELC 000410  
                                            _T0CON0 00031A                                              _T0CON1 00031B  
                                            _T1GATE 000320                   fp__DefaultRxBufferOverflowHandler 0000  
                  ??_DefaultRxBufferOverflowHandler 054D                     ?_DefaultRxBufferOverflowHandler 054D  
                                            _T1GCON 00031F                                              _RB4PPS 00020D  
                           TMR1_WriteTimer@timerVal 054D                                              _ODCONA 000402  
                                            _ODCONB 00040A                                              _ODCONC 000412  
                                            i2l2101 28AC                                              i2l2111 28E0  
                                            i2l2103 28B4                                              i2l2105 28C4  
                                            i2l2121 2756                                              i2l2107 28D6  
                                            i2l2051 2ACC                                              i2l2131 27AC  
                                            i2l2123 2764                                              i2l2061 2B40  
                                            i2l2109 28DE                                              i2l2053 2AD0  
                                            i2l2133 27BA                                              i2l2125 2772  
                                            i2l2063 2B52                                              i2l2055 2AD6  
                                            i2l2047 2ABA                                              i2l2127 2788  
                                            i2l2065 2A1C                                              i2l2049 2ACA  
                                            i2l2057 2ADC                                              i2l2129 2796  
                                            i2l2067 2A2E                                              i2l2059 2AE0  
                                            i2l2091 2A7E                                              i2l1701 2672  
                                            i2l2093 2A82                                              i2l2085 2A56  
                                            i2l1711 26B8                                              i2l1703 268A  
                                            i2l2095 288C                                              i2l2087 2A58  
                                            i2l1721 2708                                              i2l1713 26C6  
                                            i2l1705 268E                                              i2l2097 288E  
                                            i2l2089 2A64                                              i2l1723 2718  
                                            i2l1715 26DE                                              i2l1707 269C  
                                            i2l2099 28A8                                              i2l1725 2728  
                                            i2l1717 26E2                                              i2l1709 26B4  
                                            i2l1727 2740                                              i2l1719 26F0  
                                            i2l1729 2750                                              i2l1691 2636  
                                            i2l1595 2B14                                              i2l1693 263A  
                                            i2l1597 2B26                                              i2l1695 2648  
                                            i2l1687 260E                                              i2l1697 2660  
                                            i2l1689 261E                                              i2l1699 2664  
                                            _INLVLA 000404                                              _INLVLB 00040C  
                                            _INLVLC 000414                                              _INLVLE 000424  
                           ??_CAN1_OperationModeGet 054F                                              _OSCFRQ 0000B1  
                           ??_CAN1_OperationModeSet 054F                         ??_CAN1_BitRateConfiguration 054F  
              __end_of_TMR1_DefaultInterruptHandler 2CDA               __size_of_TMR1_DefaultInterruptHandler 0002  
                      _TMR1_DefaultInterruptHandler 2CD8                  __size_of_DefaultSystemErrorHandler 0002  
                                  ?_TMR0_Initialize 054D                                              clear_0 2A02  
                          ??_CAN1_RX_FIFO_ResetInfo 054F           CAN1_SetModeChangeInterruptHandler@handler 054F  
                                         ?_CAN1_ISR 054D                                      _PMD_Initialize 2B6C  
                                      __pdataCOMRAM 0525                                        __mediumconst 0000  
                   __size_of_DefaultBusErrorHandler 0002                                              tblptrh 0004F7  
                                            tblptrl 0004F6                                              tblptru 0004F8  
                             __end_of_TMR0_CallBack 2B6C            TMR0_SetInterruptHandler@InterruptHandler 054F  
          TMR1_SetInterruptHandler@InterruptHandler 054F                             __end_of_TMR1_WriteTimer 2AE8  
                     __size_of_INTERRUPT_Initialize 0004                               __end_of_TMR1_CallBack 2B40  
                                  ?_TMR1_Initialize 054D                                   _SYSTEM_Initialize 2BDC  
                                        __accesstop 0560                             __end_of__initialization 2A16  
                                 ??_CAN1_Initialize 0552                                _CAN1_BusErrorHandler 050D  
                                ?_SYSTEM_Initialize 054D                                       ___rparam_used 000001  
                            _CAN1_ModeChangeHandler 050B                                      __pcstackCOMRAM 054D  
                               ??_SYSTEM_Initialize 0553                                           ?_TMR0_ISR 054D  
                                         ?_TMR1_ISR 054D                     fp__TMR1_DefaultInterruptHandler 0000  
                     ?_TMR1_DefaultInterruptHandler 054D    __end_of_CAN1_SetRxBufferOverFlowInterruptHandler 2CAA  
 __size_of_CAN1_SetRxBufferOverFlowInterruptHandler 000A          ??_CAN1_SetRxBufferOverFlowInterruptHandler 0551  
         ?_CAN1_SetRxBufferOverFlowInterruptHandler 054F            _CAN1_SetRxBufferOverFlowInterruptHandler 2CA0  
                            __end_of_PMD_Initialize 2B94                                          ??_CAN1_ISR 054D  
                             TMR0_ISR@CountCallBack 0501                           _CAN1_BitRateConfiguration 2C5A  
       __end_of_CAN1_SetSystemErrorInterruptHandler 2CA0        __size_of_CAN1_SetSystemErrorInterruptHandler 000A  
             ??_CAN1_SetSystemErrorInterruptHandler 0551                ?_CAN1_SetSystemErrorInterruptHandler 054F  
               _CAN1_SetSystemErrorInterruptHandler 2C96                           __end_of_SYSTEM_Initialize 2BFC  
                                _DELAY_milliseconds 2A8C                                          __pnvCOMRAM 0547  
                  __size_of_DefaultTxAttemptHandler 0002                  __end_of_CAN1_TX_FIFO_Configuration 2C46  
                        _CAN1_TX_FIFO_Configuration 2C32                                             IVTBASEH 00045E  
                                           IVTBASEL 00045D                                             IVTBASEU 00045F  
                            _DefaultBusErrorHandler 2CE8                                 ?_DELAY_milliseconds 054F  
                  __end_of_TMR0_SetInterruptHandler 2C82                       _CAN1_BusWakeUpActivityHandler 050F  
                                        ??_TMR0_ISR 054E                                          ??_TMR1_ISR 054F  
                                         _C1NBTCFGH 000105                                           _C1NBTCFGL 000104  
                                         _C1NBTCFGT 000107                                           _C1NBTCFGU 000106  
                                   ?_PMD_Initialize 054D                     __size_of_CAN1_RX_FIFO_ResetInfo 002C  
                              ??_DELAY_milliseconds 0551                                             _OSCCON1 0000AD  
                                           _OSCCON3 0000AF                                           _C1TXQCONH 000151  
                                         _C1TXQCONL 000150                                             i2u50_40 261E  
                                           i2u50_41 261A                               _CAN1_TxAttemptHandler 0507  
                                         _C1TXQCONT 000153                                           _C1TXQCONU 000152  
                                           i2u27_40 2B26                                             i2u27_41 2B22  
                                           i2u60_40 26F0                                             i2u52_40 2648  
                                           i2u51_48 2624                                             i2u60_41 26EC  
                                           i2u52_41 2644                                             i2u51_49 2636  
                                           i2u28_48 2B2C                                             i2u28_49 2B3E  
                                           _SPEAKER 2A1C                                             i2u62_40 2718  
                                           i2u61_48 26F6                                             i2u54_40 2672  
                                           i2u53_48 264E                                             i2u62_41 2714  
                                           i2u61_49 2708                                             i2u54_41 266E  
                                           i2u53_49 2660                                             _OSCTUNE 0000B0  
                                           i2u63_40 2728                                             i2u63_41 2724  
                                           i2u56_40 269C                                             i2u55_48 2678  
                                           i2u56_41 2698                                             i2u55_49 268A  
                                           i2u65_40 2750                                             i2u64_48 272E  
                                           i2u65_41 274C                                             i2u64_49 2740  
                                           i2u58_40 26C6                                             i2u57_48 26A2  
                                           i2u58_41 26C2                                             i2u57_49 26B4  
                                           i2u59_48 26CC                                             i2u59_49 26DE  
                                       _C1FIFOCON1H 00015D                                             i2u95_40 2ACA  
                                           i2u95_41 2AC6                                         _C1FIFOCON1L 00015C  
                                           i2u96_40 2B52                                             i2u96_41 2B4E  
                                       _C1FIFOCON1T 00015F                                         _C1FIFOCON1U 00015E  
                                           i2u98_40 2A2E                                             i2u97_48 2B58  
                                           i2u98_41 2A2A                                             i2u97_49 2B6A  
                                           i2u99_40 2A3E                                             i2u99_41 2A38  
                                           _SLRCONA 000403                                             i2u99_46 2A40  
                                           _SLRCONB 00040B                                             _SLRCONC 000413  
                                  ?_TMR1_WriteTimer 054D                                             __Hparam 0000  
                                           __Lparam 0000                        fp__DefaultSystemErrorHandler 0000  
                                      __psmallconst 2600                    __end_of_DefaultModeChangeHandler 2CE4  
                                         _DLC_BYTES 2601                                             __pcinit 29DC  
                                           __ramtop 2600                                             __ptext0 2BFC  
                                           __ptext1 2BDC                                             __ptext2 2996  
                                           __ptext3 2C6E                                             __ptext4 2B94  
                                           __ptext5 2C78                                             __ptext6 2B6C  
                                           __ptext7 2830                                             __ptext8 2C1A  
                                           __ptext9 2CD2                      ??_TMR1_DefaultInterruptHandler 054D  
                                         _T1CONbits 00031E                               _OSCILLATOR_Initialize 2C1A  
                 __size_of_TMR1_SetInterruptHandler 000A                            ??_PIN_MANAGER_Initialize 054F  
                         ?_TMR1_SetInterruptHandler 054F                                             _rxFifos 0525  
  CAN1_SetBusWakeUpActivityInterruptHandler@handler 054F                          __size_of_SYSTEM_Initialize 0020  
 __end_of_CAN1_SetBusWakeUpActivityInterruptHandler 2CC8  __size_of_CAN1_SetBusWakeUpActivityInterruptHandler 000A  
       ??_CAN1_SetBusWakeUpActivityInterruptHandler 0551          ?_CAN1_SetBusWakeUpActivityInterruptHandler 054F  
         _CAN1_SetBusWakeUpActivityInterruptHandler 2CBE                                end_of_initialization 2A16  
                            _CAN1_RX_FIFO_ResetInfo 2AE8                                         _C1TRECUbits 000136  
                    __size_of_CAN1_OperationModeGet 000A                      __size_of_CAN1_OperationModeSet 0058  
                     __end_of_CAN1_OperationModeGet 2C8C                       __end_of_CAN1_OperationModeSet 2996  
                      ??_CAN1_RX_FIFO_Configuration 054F                                             postdec1 0004E5  
            __end_of_DefaultRxBufferOverflowHandler 2CE2             __size_of_DefaultRxBufferOverflowHandler 0002  
                    _DefaultRxBufferOverflowHandler 2CE0                                             postinc0 0004EE  
                          _TMR0_SetInterruptHandler 2C78                  fp__DefaultBusWakeUpActivityHandler 0000  
           __end_of_DefaultBusWakeUpActivityHandler 2CE8            __size_of_DefaultBusWakeUpActivityHandler 0002  
                 ??_DefaultBusWakeUpActivityHandler 054D                    ?_DefaultBusWakeUpActivityHandler 054D  
                   _DefaultBusWakeUpActivityHandler 2CE6                                     _CAN1_Initialize 28E6  
                                 __size_of_CAN1_ISR 0148                 __size_of_CAN1_RX_FIFO_Configuration 0014  
      __end_of_CAN1_RX_FIFO_FilterMaskConfiguration 2CD8       __size_of_CAN1_RX_FIFO_FilterMaskConfiguration 0002  
            ??_CAN1_RX_FIFO_FilterMaskConfiguration 054F               ?_CAN1_RX_FIFO_FilterMaskConfiguration 054D  
              _CAN1_RX_FIFO_FilterMaskConfiguration 2CD6                             _DefaultTxAttemptHandler 2CDC  
                        fp__DefaultTxAttemptHandler 0000                                         _CANDATAdata 0527  
                         fp__DefaultBusErrorHandler 0000                        __end_of_INTERRUPT_Initialize 2CD6  
                                     __pidataCOMRAM 2BBA                                   __size_of_TMR0_ISR 005A  
                                 __size_of_TMR1_ISR 0036                              ?_OSCILLATOR_Initialize 054D  
     __end_of_CAN1_ErrorNotificationInterruptEnable 2830      __size_of_CAN1_ErrorNotificationInterruptEnable 006C  
           ??_CAN1_ErrorNotificationInterruptEnable 0551              ?_CAN1_ErrorNotificationInterruptEnable 054D  
             _CAN1_ErrorNotificationInterruptEnable 27C4                            _DefaultModeChangeHandler 2CE2  
                       fp__DefaultModeChangeHandler 0000                                 start_initialization 29DC  
                          __size_of_TMR0_Initialize 0026                     __size_of_PIN_MANAGER_Initialize 005C  
                                        ivt0x8_base 0008                             ?_DefaultBusErrorHandler 054D  
        __end_of_CAN1_SetModeChangeInterruptHandler 2CB4         __size_of_CAN1_SetModeChangeInterruptHandler 000A  
              ??_CAN1_SetModeChangeInterruptHandler 0551                 ?_CAN1_SetModeChangeInterruptHandler 054F  
                _CAN1_SetModeChangeInterruptHandler 2CAA                         ?_CAN1_TX_FIFO_Configuration 054D  
                          __size_of_TMR1_Initialize 0046                                    ??_PMD_Initialize 054F  
                            __size_of_TMR0_CallBack 002C                             __end_of_CAN1_Initialize 293E  
                            __size_of_TMR1_CallBack 002C                          ?_DefaultSystemErrorHandler 054D  
                             TMR1_ISR@CountCallBack 0503                                         __pbssCOMRAM 0501  
           CAN1_SetBusErrorInterruptHandler@handler 054F                                            ?_SPEAKER 054D  
                         ??_DefaultTxAttemptHandler 054D                      __end_of_DefaultBusErrorHandler 2CEA  
                __end_of_CAN1_RX_FIFO_Configuration 2C5A                          _CAN1_RX_FIFO_Configuration 2C46  
                             _TMR0_InterruptHandler 0547                              _PIN_MANAGER_Initialize 2830  
                                          _C1FIFOBA 00014C                    __end_of_TMR1_SetInterruptHandler 2C78  
                                         _ucASState 0513                        ??_INTERRUPT_InterruptManager 054F  
                                    _ucSpeakerCount 0514                                            _CAN1_ISR 260E  
                 __end_of_DefaultSystemErrorHandler 2CE0                                         __smallconst 2600  
                                        _C1CONHbits 000101                    CAN1_OperationModeSet@requestMode 0551  
                                          _CANRXPPS 00023D                                          _C1CONTbits 000103  
                                        _C1CONUbits 000102                         __size_of_DELAY_milliseconds 002E  
                    ??_DefaultInvalidMessageHandler 054D                             ?_CAN1_RX_FIFO_ResetInfo 054D  
                                     _TMR0_CallBack 2B40                                          _C1INTHbits 00011D  
                                        _C1INTLbits 00011C                                _INTERRUPT_Initialize 2CD2  
                                        _C1INTTbits 00011F                                       _TMR1_CallBack 2B14  
                                 ??_TMR0_Initialize 0551                                            _LATBbits 0004BF  
                                          _LATCbits 0004C0                                            _PIE0bits 00049E  
                                          _PIE3bits 0004A1                                            i2u100_40 2A7E  
                                          i2u100_41 2A7A                                            i2u101_40 28A8  
                                          i2u101_41 28A4                                            i2u102_40 28C4  
                                          i2u110_40 27BA                                            i2u102_41 28C0  
                                          i2u110_41 27B6                            __size_of_TMR1_WriteTimer 002E  
                                          i2u103_40 28D6                                            i2u103_41 28D2  
                                          i2u105_40 2764                                            i2u105_41 2760  
                                          i2u106_40 2772                                            i2u106_41 276E  
                                          i2u107_40 2788                                            i2u107_41 2784  
                                          i2u108_40 2796                                            i2u108_41 2792  
                                          i2u109_40 27AC                                            i2u109_41 27A8  
               __size_of_INTERRUPT_InterruptManager 006E                          ??_TMR0_SetInterruptHandler 0551  
                                          _PIR0bits 0004AE                                           _rxMsgData 0516  
                                          _PIR3bits 0004B1                      DELAY_milliseconds@milliseconds 054F  
                                          _TMR0_ISR 288C                                            _TMR1_ISR 2A56  
                                  ?_CAN1_Initialize 054D                                   ??_TMR1_Initialize 0551  
                    __end_of_CAN1_RX_FIFO_ResetInfo 2B14                                      ?_TMR0_CallBack 054D  
                                  __size_of_SPEAKER 003A                                         _INTCON0bits 0004D6  
                                         copy_data0 29F0                               ?_INTERRUPT_Initialize 054D  
                                    ?_TMR1_CallBack 054D                              _ucFlagEmergencySpeaker 0515  
                                          __Hrparam 0000                               _CAN1_OperationModeGet 2C82  
                                          __Lrparam 0000                               _CAN1_OperationModeSet 293E  
                           _CAN1_SystemErrorHandler 0509                          ??_DefaultModeChangeHandler 054D  
                           ??_OSCILLATOR_Initialize 054F                            _TMR1_SetInterruptHandler 2C6E  
                             _TMR1_InterruptHandler 0549                                          _T0CON0bits 00031A  
                                          __pivt0x8 0008                                            __ptext10 28E6  
                                          __ptext11 2C32                                            __ptext20 2CA0  
                                          __ptext12 2AE8                                            __ptext21 2CAA  
                                          __ptext13 2CD6                                          _T1GCONbits 00031F  
                                          __ptext30 2B14                                            __ptext22 2CB4  
                                          __ptext14 2C46                                            __ptext31 2CD8  
                                          __ptext23 2CBE                                            __ptext15 293E  
                                          __ptext40 2CE2                                            __ptext32 288C  
                                          __ptext24 2CC8                                            __ptext16 2C82  
                                          __ptext41 2CE4                                            __ptext33 2B40  
                                          __ptext25 2C5A                                            __ptext17 27C4  
                                          __ptext42 2CE6                                            __ptext34 2CDA  
                                          __ptext26 2A8C                                            __ptext18 2C8C  
                                          __ptext43 2CE8                                            __ptext35 2A1C  
                                          __ptext27 2756                                            __ptext19 2C96  
                                          __ptext44 0000                                            __ptext36 260E  
                                          __ptext28 2A56                                            __ptext37 2CDC  
                                          __ptext29 2ABA                                            __ptext38 2CDE  
                                          __ptext39 2CE0                         CAN1_OperationModeSet@opMode 054F  
                       CAN1_OperationModeSet@status 0550                                       __size_of_main 001E  
              __end_of_TMR0_DefaultInterruptHandler 2CDC               __size_of_TMR0_DefaultInterruptHandler 0002  
                      _TMR0_DefaultInterruptHandler 2CDA                  __end_of_INTERRUPT_InterruptManager 27C4  
                        _INTERRUPT_InterruptManager 2756                                   ??_TMR1_WriteTimer 054F  
                       ??_DefaultSystemErrorHandler 054D                                     ??_TMR0_CallBack 054D  
                      _CAN1_RxBufferOverflowHandler 0505                              ??_INTERRUPT_Initialize 054F  
                                   ??_TMR1_CallBack 054D                                            intlevel2 0000  
                                     _C1TXQSTALbits 000154                             ?_PIN_MANAGER_Initialize 054D  
                       ?_CAN1_RX_FIFO_Configuration 054D                  __size_of_CAN1_BitRateConfiguration 0014  
                            ?_CAN1_OperationModeGet 054D                          ?_CAN1_BitRateConfiguration 054D  
                            ?_CAN1_OperationModeSet 054D                     fp__TMR0_DefaultInterruptHandler 0000  
                     ?_TMR0_DefaultInterruptHandler 054D                                     _TMR0_Initialize 2B94  
   CAN1_SetRxBufferOverFlowInterruptHandler@handler 054F                                     _C1FIFOSTA1Lbits 000160  
                    __end_of_PIN_MANAGER_Initialize 288C                           _DefaultSystemErrorHandler 2CDE  
                                   _TMR1_Initialize 2996                   __end_of_CAN1_BitRateConfiguration 2C6E  
