

Microchip MPLAB XC8 Assembler V2.31 build 20201012212115 
                                                                                               Sun Dec 26 11:29:27 2021

Microchip MPLAB XC8 C Compiler v2.31 (Free license) build 20201012212115 Og1 
     1                           	processor	18F26Q84
     2                           	fnconf	rparam,??,?,0
     3                           	pagewidth 120
     4                           	opt	flic
     5                           	psect	idataBANK5,global,class=CODE,delta=1,noexec
     6                           	psect	smallconst,global,reloc=2,class=SMALLCONST,delta=1,noexec
     7                           	psect	nvCOMRAM,global,class=COMRAM,space=1,delta=1,lowdata,noexec
     8                           	psect	nvBANK5,global,class=BANK5,space=1,delta=1,lowdata,noexec
     9                           	psect	cinit,global,reloc=2,class=CODE,delta=1
    10                           	psect	bssCOMRAM,global,class=COMRAM,space=1,delta=1,lowdata,noexec
    11                           	psect	bssBANK5,global,class=BANK5,space=1,delta=1,lowdata,noexec
    12                           	psect	dataBANK5,global,class=BANK5,space=1,delta=1,lowdata,noexec
    13                           	psect	cstackBANK5,global,class=BANK5,space=1,delta=1,lowdata,noexec
    14                           	psect	cstackCOMRAM,global,class=COMRAM,space=1,delta=1,lowdata,noexec
    15                           	psect	text0,global,reloc=2,class=CODE,delta=1
    16                           	psect	text1,global,reloc=2,class=CODE,delta=1
    17                           	psect	text2,global,reloc=2,class=CODE,delta=1
    18                           	psect	text3,global,reloc=2,class=CODE,delta=1
    19                           	psect	text4,global,reloc=2,class=CODE,delta=1
    20                           	psect	text5,global,reloc=2,class=CODE,delta=1
    21                           	psect	text6,global,reloc=2,class=CODE,delta=1
    22                           	psect	text7,global,reloc=2,class=CODE,delta=1
    23                           	psect	text8,global,reloc=2,class=CODE,delta=1
    24                           	psect	text9,global,reloc=2,class=CODE,delta=1
    25                           	psect	text10,global,reloc=2,class=CODE,delta=1
    26                           	psect	text11,global,reloc=2,class=CODE,delta=1
    27                           	psect	text12,global,reloc=2,class=CODE,delta=1
    28                           	psect	text13,global,reloc=2,class=CODE,delta=1
    29                           	psect	text14,global,reloc=2,class=CODE,delta=1
    30                           	psect	text15,global,reloc=2,class=CODE,delta=1
    31                           	psect	text16,global,reloc=2,class=CODE,delta=1
    32                           	psect	text17,global,reloc=2,class=CODE,delta=1
    33                           	psect	text18,global,reloc=2,class=CODE,delta=1
    34                           	psect	text19,global,reloc=2,class=CODE,delta=1
    35                           	psect	text20,global,reloc=2,class=CODE,delta=1
    36                           	psect	text21,global,reloc=2,class=CODE,delta=1
    37                           	psect	text22,global,reloc=2,class=CODE,delta=1
    38                           	psect	text23,global,reloc=2,class=CODE,delta=1
    39                           	psect	text24,global,reloc=2,class=CODE,delta=1
    40                           	psect	text25,global,reloc=2,class=CODE,delta=1
    41                           	psect	text26,global,reloc=2,class=CODE,delta=1
    42                           	psect	text27,global,reloc=2,class=CODE,delta=1
    43                           	psect	text28,global,reloc=2,class=CODE,delta=1
    44                           	psect	text29,global,reloc=2,class=CODE,delta=1
    45                           	psect	text30,global,reloc=2,class=CODE,delta=1
    46                           	psect	text31,global,reloc=2,class=CODE,delta=1
    47                           	psect	text32,global,reloc=2,class=CODE,delta=1
    48                           	psect	text33,global,reloc=2,class=CODE,delta=1
    49                           	psect	text34,global,reloc=2,class=CODE,delta=1
    50                           	psect	text35,global,reloc=2,class=CODE,delta=1
    51                           	psect	text36,global,reloc=2,class=CODE,delta=1
    52                           	psect	text37,global,reloc=2,class=CODE,delta=1
    53                           	psect	text38,global,reloc=2,class=CODE,delta=1
    54                           	psect	text39,global,reloc=2,class=CODE,delta=1
    55                           	psect	text40,global,reloc=2,class=CODE,delta=1
    56                           	psect	text41,global,reloc=2,class=CODE,delta=1
    57                           	psect	text42,global,reloc=2,class=CODE,delta=1
    58                           	psect	text43,global,reloc=2,class=CODE,delta=1
    59                           	psect	text44,global,reloc=2,class=CODE,delta=1
    60                           	psect	text45,global,reloc=2,class=CODE,delta=1
    61                           	psect	text46,global,reloc=2,class=CODE,delta=1
    62                           	psect	text47,global,reloc=2,class=CODE,delta=1
    63                           	psect	text48,global,reloc=2,class=CODE,delta=1
    64                           	psect	text49,global,reloc=2,class=CODE,delta=1
    65                           	psect	text50,global,reloc=2,class=CODE,delta=1
    66                           	psect	text51,global,reloc=2,class=CODE,delta=1
    67                           	psect	text52,global,reloc=2,class=CODE,delta=1
    68                           	psect	text53,global,reloc=2,class=CODE,delta=1
    69                           	psect	text54,global,reloc=2,class=CODE,delta=1
    70                           	psect	text55,global,reloc=2,class=CODE,delta=1
    71                           	psect	text56,global,reloc=2,class=CODE,delta=1
    72                           	psect	text57,global,reloc=2,class=CODE,delta=1
    73                           	psect	text58,global,reloc=2,class=CODE,delta=1
    74                           	psect	text59,global,reloc=2,class=CODE,delta=1
    75                           	psect	text60,global,reloc=2,class=CODE,delta=1
    76                           	psect	text61,global,reloc=2,class=CODE,delta=1
    77                           	psect	text62,global,reloc=2,class=CODE,delta=1
    78                           	psect	text63,global,reloc=2,class=CODE,delta=1
    79                           	psect	text64,global,reloc=2,class=CODE,delta=1
    80                           	psect	text65,global,reloc=2,class=CODE,delta=1,group=2
    81                           	psect	text66,global,reloc=2,class=CODE,delta=1
    82                           	psect	text67,global,reloc=2,class=CODE,delta=1
    83                           	psect	text68,global,reloc=2,class=CODE,delta=1
    84                           	psect	text69,global,reloc=2,class=CODE,delta=1
    85                           	psect	text70,global,reloc=2,class=CODE,delta=1
    86                           	psect	text71,global,reloc=2,class=CODE,delta=1
    87                           	psect	text72,global,reloc=2,class=CODE,delta=1
    88                           	psect	text73,global,reloc=2,class=CODE,delta=1
    89                           	psect	text74,global,reloc=2,class=CODE,delta=1
    90                           	psect	text75,global,reloc=2,class=CODE,delta=1
    91                           	psect	ivt0x8,global,reloc=2,class=CODE,delta=1,noexec,keep,optim=
    92                           	psect	intsave_regs,global,class=BIGRAM,space=1,delta=1,noexec
    93                           	psect	text76,global,reloc=2,class=CODE,delta=1
    94                           	psect	rparam,global,class=COMRAM,space=1,delta=1,noexec
    95                           	psect	idloc,global,abs,ovrld,class=IDLOC,space=5,delta=1,noexec
    96                           	psect	config,global,abs,ovrld,class=CONFIG,space=4,delta=1,noexec
    97  0000                     
    98                           ; Version 2.32
    99                           ; Generated 10/02/2021 GMT
   100                           ; 
   101                           ; Copyright © 2021, Microchip Technology Inc. and its subsidiaries ("Microchip")
   102                           ; All rights reserved.
   103                           ; 
   104                           ; This software is developed by Microchip Technology Inc. and its subsidiaries ("Microch
      +                          ip").
   105                           ; 
   106                           ; Redistribution and use in source and binary forms, with or without modification, are
   107                           ; permitted provided that the following conditions are met:
   108                           ; 
   109                           ;     1. Redistributions of source code must retain the above copyright notice, this lis
      +                          t of
   110                           ;        conditions and the following disclaimer.
   111                           ; 
   112                           ;     2. Redistributions in binary form must reproduce the above copyright notice, this 
      +                          list
   113                           ;        of conditions and the following disclaimer in the documentation and/or other
   114                           ;        materials provided with the distribution. Publication is not required when
   115                           ;        this file is used in an embedded application.
   116                           ; 
   117                           ;     3. Microchip's name may not be used to endorse or promote products derived from th
      +                          is
   118                           ;        software without specific prior written permission.
   119                           ; 
   120                           ; THIS SOFTWARE IS PROVIDED BY MICROCHIP "AS IS" AND ANY EXPRESS OR IMPLIED WARRANTIES,
   121                           ; INCLUDING, BUT NOT LIMITED TO, THE IMPLIED WARRANTIES OF MERCHANTABILITY AND FITNESS F
      +                          OR
   122                           ; PURPOSE ARE DISCLAIMED.  IN NO EVENT SHALL MICROCHIP BE LIABLE FOR ANY DIRECT, INDIREC
      +                          T,
   123                           ; INCIDENTAL, SPECIAL, EXEMPLARY, OR CONSEQUENTIAL DAMAGES (INCLUDING BUT NOT LIMITED TO
   124                           ; PROCUREMENT OF SUBSTITUTE GOODS OR SERVICES; LOSS OF USE, DATA OR PROFITS; OR BUSINESS
   125                           ; INTERRUPTION) HOWSOEVER CAUSED AND ON ANY THEORY OF LIABILITY, WHETHER IN CONTRACT, ST
      +                          RICT
   126                           ; LIABILITY, OR TORT (INCLUDING NEGLIGENCE OR OTHERWISE) ARISING IN ANY WAY OUT OF THE U
      +                          SE OF
   127                           ; THIS SOFTWARE, EVEN IF ADVISED OF THE POSSIBILITY OF SUCH DAMAGE.
   128                           ; 
   129                           ; 
   130                           ; Code-generator required, PIC18F26Q84 Definitions
   131                           ; 
   132                           ; SFR Addresses
   133  0000                     
   134                           	psect	idataBANK5
   135  003BD2                     __pidataBANK5:
   136                           	callstack 0
   137                           
   138                           ;initializer for _rxFifos
   139  003BD2  01                 	db	1
   140  003BD3  00                 	db	0
   141                           
   142                           	psect	smallconst
   143  002600                     __psmallconst:
   144                           	callstack 0
   145  002600  00                 	db	0
   146  002601                     _DLC_BYTES:
   147                           	callstack 0
   148  002601  00                 	db	0
   149  002602  01                 	db	1
   150  002603  02                 	db	2
   151  002604  03                 	db	3
   152  002605  04                 	db	4
   153  002606  05                 	db	5
   154  002607  06                 	db	6
   155  002608  07                 	db	7
   156  002609  08                 	db	8
   157  00260A                     __end_of_DLC_BYTES:
   158                           	callstack 0
   159  00260A  50                 	db	80
   160  00260B  01                 	db	1
   161  00260C                     __end_of_FIFO:
   162                           	callstack 0
   163  00260C  00                 	db	0	; dummy byte at the end
   164  0000                     
   165                           	psect	nvCOMRAM
   166  00055D                     __pnvCOMRAM:
   167                           	callstack 0
   168  00055D                     _timer1ReloadVal:
   169                           	callstack 0
   170  00055D                     	ds	2
   171                           
   172                           	psect	nvBANK5
   173  00057E                     __pnvBANK5:
   174                           	callstack 0
   175  00057E                     _TMR0_InterruptHandler:
   176                           	callstack 0
   177  00057E                     	ds	2
   178  000580                     _TMR1_InterruptHandler:
   179                           	callstack 0
   180  000580                     	ds	2
   181  0000                     _PMD8	set	104
   182  0000                     _PMD7	set	103
   183  0000                     _PMD6	set	102
   184  0000                     _PMD5	set	101
   185  0000                     _PMD4	set	100
   186  0000                     _PMD3	set	99
   187  0000                     _PMD2	set	98
   188  0000                     _PMD1	set	97
   189  0000                     _PMD0	set	96
   190  0000                     _OSCTUNE	set	176
   191  0000                     _OSCFRQ	set	177
   192  0000                     _OSCEN	set	179
   193  0000                     _OSCCON3	set	175
   194  0000                     _OSCCON1	set	173
   195  0000                     _C1FIFOBA	set	332
   196  0000                     _C1FIFOSTA1Lbits	set	352
   197  0000                     _C1TXQSTALbits	set	340
   198  0000                     _C1INTLbits	set	284
   199  0000                     _C1INTTbits	set	287
   200  0000                     _C1TRECUbits	set	310
   201  0000                     _C1CONUbits	set	258
   202  0000                     _C1INTHbits	set	285
   203  0000                     _C1CONTbits	set	259
   204  0000                     _C1CONU	set	258
   205  0000                     _C1CONH	set	257
   206  0000                     _C1CONL	set	256
   207  0000                     _C1CONHbits	set	257
   208  0000                     _C1INTT	set	287
   209  0000                     _C1INTU	set	286
   210  0000                     _C1INTH	set	285
   211  0000                     _C1INTL	set	284
   212  0000                     _C1NBTCFGT	set	263
   213  0000                     _C1NBTCFGU	set	262
   214  0000                     _C1NBTCFGH	set	261
   215  0000                     _C1NBTCFGL	set	260
   216  0000                     _C1TXQCONT	set	339
   217  0000                     _C1TXQCONU	set	338
   218  0000                     _C1TXQCONH	set	337
   219  0000                     _C1FLTCON0H	set	385
   220  0000                     _C1MASK1T	set	411
   221  0000                     _C1MASK1U	set	410
   222  0000                     _C1MASK1H	set	409
   223  0000                     _C1MASK1L	set	408
   224  0000                     _C1FLTOBJ1T	set	407
   225  0000                     _C1FLTOBJ1U	set	406
   226  0000                     _C1FLTOBJ1H	set	405
   227  0000                     _C1FLTOBJ1L	set	404
   228  0000                     _C1INTUbits	set	286
   229  0000                     _C1FIFOCON1T	set	351
   230  0000                     _C1FIFOCON1U	set	350
   231  0000                     _C1FIFOCON1H	set	349
   232  0000                     _C1FIFOCON1L	set	348
   233  0000                     _C1TXQCONL	set	336
   234  0000                     _RB4PPS	set	525
   235  0000                     _CANRXPPS	set	573
   236  0000                     _T0CON0bits	set	794
   237  0000                     _T0CON0	set	794
   238  0000                     _TMR0L	set	792
   239  0000                     _TMR0H	set	793
   240  0000                     _T0CON1	set	795
   241  0000                     _T1GCONbits	set	799
   242  0000                     _T1CONbits	set	798
   243  0000                     _T1CON	set	798
   244  0000                     _TMR1L	set	796
   245  0000                     _TMR1H	set	797
   246  0000                     _T1CLK	set	801
   247  0000                     _T1GATE	set	800
   248  0000                     _T1GCON	set	799
   249  0000                     _INLVLE	set	1060
   250  0000                     _INLVLC	set	1044
   251  0000                     _INLVLB	set	1036
   252  0000                     _INLVLA	set	1028
   253  0000                     _SLRCONC	set	1043
   254  0000                     _SLRCONB	set	1035
   255  0000                     _SLRCONA	set	1027
   256  0000                     _ODCONC	set	1042
   257  0000                     _ODCONB	set	1034
   258  0000                     _ODCONA	set	1026
   259  0000                     _WPUC	set	1041
   260  0000                     _WPUA	set	1025
   261  0000                     _WPUB	set	1033
   262  0000                     _WPUE	set	1057
   263  0000                     _ANSELA	set	1024
   264  0000                     _ANSELB	set	1032
   265  0000                     _ANSELC	set	1040
   266  0000                     _LATBbits	set	1215
   267  0000                     _TRISC	set	1224
   268  0000                     _TRISB	set	1223
   269  0000                     _TRISA	set	1222
   270  0000                     _TRISE	set	1226
   271  0000                     _LATC	set	1216
   272  0000                     _LATB	set	1215
   273  0000                     _LATA	set	1214
   274  0000                     _INTCON0bits	set	1238
   275  0000                     _PIE3bits	set	1185
   276  0000                     _PIR3bits	set	1201
   277  0000                     _LATCbits	set	1216
   278  0000                     _PIE0bits	set	1182
   279  0000                     _PIR0bits	set	1198
   280  0000                     _PIE4bits	set	1186
   281  0000                     _PIR4bits	set	1202
   282                           
   283                           ; #config settings
   284                           
   285                           	psect	cinit
   286  0036DA                     __pcinit:
   287                           	callstack 0
   288  0036DA                     start_initialization:
   289                           	callstack 0
   290  0036DA                     __initialization:
   291                           	callstack 0
   292                           
   293                           ; Initialize objects allocated to BANK5 (2 bytes)
   294                           ; load TBLPTR registers with __pidataBANK5
   295  0036DA  0ED2               	movlw	low __pidataBANK5
   296  0036DC  6EF6               	movwf	tblptrl,c
   297  0036DE  0E3B               	movlw	high __pidataBANK5
   298  0036E0  6EF7               	movwf	tblptrh,c
   299  0036E2  0E00               	movlw	low (__pidataBANK5 shr (0+16))
   300  0036E4  6EF8               	movwf	tblptru,c
   301  0036E6  0009               	tblrd		*+	;fetch initializer
   302  0036E8  0061 F3D4  F586    	movff	tablat,__pdataBANK5
   303  0036EE  0009               	tblrd		*+	;fetch initializer
   304  0036F0  0061 F3D4  F587    	movff	tablat,__pdataBANK5+1
   305                           
   306                           ; Clear objects allocated to BANK5 (30 bytes)
   307  0036F6  EE01  F160         	lfsr	0,__pbssBANK5
   308  0036FA  0E1E               	movlw	30
   309  0036FC                     clear_0:
   310  0036FC  6AEE               	clrf	postinc0,c
   311  0036FE  06E8               	decf	wreg,f,c
   312  003700  E1FD               	bnz	clear_0
   313                           
   314                           ; Clear objects allocated to COMRAM (33 bytes)
   315  003702  EE01  F13C         	lfsr	0,__pbssCOMRAM
   316  003706  0E21               	movlw	33
   317  003708                     clear_1:
   318  003708  6AEE               	clrf	postinc0,c
   319  00370A  06E8               	decf	wreg,f,c
   320  00370C  E1FD               	bnz	clear_1
   321                           
   322                           ;
   323                           ; Setup IVTBASE
   324                           ;
   325  00370E  0104               	movlb	4
   326  003710  0E08               	movlw	(ivt0x8_base shr 0)& (0+255)
   327  003712  6F5D               	movwf	93,b
   328  003714  0E00               	movlw	(ivt0x8_base shr (0+8))& (0+255)
   329  003716  6F5E               	movwf	94,b
   330  003718  0E00               	movlw	(ivt0x8_base shr (0+16))& (0+255)
   331  00371A  6F5F               	movwf	95,b
   332  00371C                     end_of_initialization:
   333                           	callstack 0
   334  00371C                     __end_of__initialization:
   335                           	callstack 0
   336  00371C  0100               	movlb	0
   337  00371E  EF62  F01D         	goto	_main	;jump to C main() function
   338                           
   339                           	psect	bssCOMRAM
   340  00053C                     __pbssCOMRAM:
   341                           	callstack 0
   342  00053C                     TMR0_ISR@CountCallBack:
   343                           	callstack 0
   344  00053C                     	ds	2
   345  00053E                     _uiCount5s:
   346                           	callstack 0
   347  00053E                     	ds	2
   348  000540                     _uiCount1min:
   349                           	callstack 0
   350  000540                     	ds	2
   351  000542                     _uiCount15min:
   352                           	callstack 0
   353  000542                     	ds	2
   354  000544                     _uiCount30min:
   355                           	callstack 0
   356  000544                     	ds	2
   357  000546                     TMR1_ISR@CountCallBack:
   358                           	callstack 0
   359  000546                     	ds	2
   360  000548                     _CAN1_FIFO1NotEmptyHandler:
   361                           	callstack 0
   362  000548                     	ds	2
   363  00054A                     _ucASSIName:
   364                           	callstack 0
   365  00054A                     	ds	1
   366  00054B                     _ucASState_prev:
   367                           	callstack 0
   368  00054B                     	ds	1
   369  00054C                     _ucASState:
   370                           	callstack 0
   371  00054C                     	ds	1
   372  00054D                     _ucSpeakerCount:
   373                           	callstack 0
   374  00054D                     	ds	1
   375  00054E                     _ucFlagEmergencySpeaker:
   376                           	callstack 0
   377  00054E                     	ds	1
   378  00054F                     _msgReceipt:
   379                           	callstack 0
   380  00054F                     	ds	7
   381  000556                     _msgTransmit:
   382                           	callstack 0
   383  000556                     	ds	7
   384                           
   385                           	psect	bssBANK5
   386  000560                     __pbssBANK5:
   387                           	callstack 0
   388  000560                     _CAN1_RxBufferOverflowHandler:
   389                           	callstack 0
   390  000560                     	ds	2
   391  000562                     _CAN1_TxAttemptHandler:
   392                           	callstack 0
   393  000562                     	ds	2
   394  000564                     _CAN1_SystemErrorHandler:
   395                           	callstack 0
   396  000564                     	ds	2
   397  000566                     _CAN1_ModeChangeHandler:
   398                           	callstack 0
   399  000566                     	ds	2
   400  000568                     _CAN1_BusErrorHandler:
   401                           	callstack 0
   402  000568                     	ds	2
   403  00056A                     _CAN1_BusWakeUpActivityHandler:
   404                           	callstack 0
   405  00056A                     	ds	2
   406  00056C                     _CAN1_InvalidMessageHandler:
   407                           	callstack 0
   408  00056C                     	ds	2
   409  00056E                     _rxMsgData:
   410                           	callstack 0
   411  00056E                     	ds	8
   412  000576                     _CANDATAdata:
   413                           	callstack 0
   414  000576                     	ds	8
   415                           
   416                           	psect	dataBANK5
   417  000586                     __pdataBANK5:
   418                           	callstack 0
   419  000586                     _rxFifos:
   420                           	callstack 0
   421  000586                     	ds	2
   422                           
   423                           	psect	cstackBANK5
   424  000582                     __pcstackBANK5:
   425                           	callstack 0
   426  000582                     CAN1_RX_FIFO_ResetInfo@index:
   427                           	callstack 0
   428  000582                     CAN1_OperationModeSet@opMode:
   429                           	callstack 0
   430  000582                     CAN1_SetInvalidMessageInterruptHandler@handler:
   431                           	callstack 0
   432  000582                     CAN1_SetBusWakeUpActivityInterruptHandler@handler:
   433                           	callstack 0
   434  000582                     CAN1_SetBusErrorInterruptHandler@handler:
   435                           	callstack 0
   436  000582                     CAN1_SetModeChangeInterruptHandler@handler:
   437                           	callstack 0
   438  000582                     CAN1_SetSystemErrorInterruptHandler@handler:
   439                           	callstack 0
   440  000582                     CAN1_SetTxAttemptInterruptHandler@handler:
   441                           	callstack 0
   442  000582                     CAN1_SetRxBufferOverFlowInterruptHandler@handler:
   443                           	callstack 0
   444  000582                     CAN1_SetFIFO1NotEmptyHandler@handler:
   445                           	callstack 0
   446  000582                     TMR1_SetInterruptHandler@InterruptHandler:
   447                           	callstack 0
   448  000582                     TMR0_SetInterruptHandler@InterruptHandler:
   449                           	callstack 0
   450  000582                     DELAY_milliseconds@milliseconds:
   451                           	callstack 0
   452                           
   453                           ; 2 bytes @ 0x0
   454  000582                     	ds	1
   455  000583                     CAN1_OperationModeSet@status:
   456                           	callstack 0
   457                           
   458                           ; 1 bytes @ 0x1
   459  000583                     	ds	1
   460  000584                     ??_TMR1_Initialize:
   461  000584                     ??_DELAY_milliseconds:
   462  000584                     CAN1_OperationModeSet@requestMode:
   463                           	callstack 0
   464                           
   465                           ; 1 bytes @ 0x2
   466  000584                     	ds	1
   467  000585                     
   468                           ; 1 bytes @ 0x3
   469  000585                     	ds	1
   470  000586                     
   471                           ; 1 bytes @ 0x4
   472                           
   473                           	psect	cstackCOMRAM
   474  000501                     __pcstackCOMRAM:
   475                           	callstack 0
   476  000501                     ??_LEDS:
   477  000501                     ??_GetRxFifoDepth:
   478  000501                     GetRxFifoStatus@validChannel:
   479                           	callstack 0
   480  000501                     _isTxChannel$718:
   481                           	callstack 0
   482  000501                     GetTxFifoStatus@validChannel:
   483                           	callstack 0
   484  000501                     TMR1_WriteTimer@timerVal:
   485                           	callstack 0
   486  000501                     memcpy@d1:
   487                           	callstack 0
   488                           
   489                           ; 2 bytes @ 0x0
   490  000501                     	ds	1
   491  000502                     GetRxFifoDepth@validChannel:
   492                           	callstack 0
   493  000502                     isTxChannel@channel:
   494                           	callstack 0
   495  000502                     ValidateTransmission@txCanMsg:
   496                           	callstack 0
   497                           
   498                           ; 2 bytes @ 0x1
   499  000502                     	ds	1
   500  000503                     CAN1_ReceivedMessageCountGet@totalMsgObj:
   501                           	callstack 0
   502  000503                     CAN1_TransmitFIFOStatusGet@status:
   503                           	callstack 0
   504  000503                     memcpy@s1:
   505                           	callstack 0
   506                           
   507                           ; 2 bytes @ 0x2
   508  000503                     	ds	1
   509  000504                     ??_ValidateTransmission:
   510  000504                     CAN1_ReceivedMessageCountGet@numOfMsg:
   511                           	callstack 0
   512  000504                     CAN1_TransmitFIFOStatusGet@fifoChannel:
   513                           	callstack 0
   514                           
   515                           ; 1 bytes @ 0x3
   516  000504                     	ds	1
   517  000505                     CAN1_ReceivedMessageCountGet@rxMsgStatus:
   518                           	callstack 0
   519  000505                     memcpy@n:
   520                           	callstack 0
   521                           
   522                           ; 2 bytes @ 0x4
   523  000505                     	ds	1
   524  000506                     CAN1_ReceivedMessageCountGet@channel:
   525                           	callstack 0
   526                           
   527                           ; 1 bytes @ 0x5
   528  000506                     	ds	1
   529  000507                     CAN1_ReceivedMessageCountGet@fifoDepth:
   530                           	callstack 0
   531  000507                     ValidateTransmission@validChannel:
   532                           	callstack 0
   533  000507                     memcpy@d:
   534                           	callstack 0
   535                           
   536                           ; 2 bytes @ 0x6
   537  000507                     	ds	1
   538  000508                     CAN1_ReceivedMessageCountGet@fifoTail:
   539                           	callstack 0
   540                           
   541                           ; 1 bytes @ 0x7
   542  000508                     	ds	1
   543  000509                     CAN1_ReceivedMessageCountGet@fifoHead:
   544                           	callstack 0
   545  000509                     ValidateTransmission@txMsgStatus:
   546                           	callstack 0
   547  000509                     memcpy@s:
   548                           	callstack 0
   549                           
   550                           ; 2 bytes @ 0x8
   551  000509                     	ds	1
   552  00050A                     CAN1_ReceivedMessageCountGet@index:
   553                           	callstack 0
   554  00050A                     ValidateTransmission@field:
   555                           	callstack 0
   556                           
   557                           ; 1 bytes @ 0x9
   558  00050A                     	ds	1
   559  00050B                     memcpy@tmp:
   560                           	callstack 0
   561                           
   562                           ; 1 bytes @ 0xA
   563  00050B                     	ds	1
   564  00050C                     ReadMessageFromFifo@rxFifoObj:
   565                           	callstack 0
   566  00050C                     WriteMessageToFifo@txFifoObj:
   567                           	callstack 0
   568                           
   569                           ; 2 bytes @ 0xB
   570  00050C                     	ds	2
   571  00050E                     ReadMessageFromFifo@rxCanMsg:
   572                           	callstack 0
   573  00050E                     WriteMessageToFifo@txCanMsg:
   574                           	callstack 0
   575                           
   576                           ; 2 bytes @ 0xD
   577  00050E                     	ds	2
   578  000510                     ??_ReadMessageFromFifo:
   579  000510                     ??_WriteMessageToFifo:
   580                           
   581                           ; 1 bytes @ 0xF
   582  000510                     	ds	3
   583  000513                     WriteMessageToFifo@status:
   584                           	callstack 0
   585  000513                     ReadMessageFromFifo@msgId:
   586                           	callstack 0
   587                           
   588                           ; 4 bytes @ 0x12
   589  000513                     	ds	1
   590  000514                     WriteMessageToFifo@msgId:
   591                           	callstack 0
   592                           
   593                           ; 4 bytes @ 0x13
   594  000514                     	ds	3
   595  000517                     ReadMessageFromFifo@status:
   596                           	callstack 0
   597                           
   598                           ; 1 bytes @ 0x16
   599  000517                     	ds	1
   600  000518                     Receive@channel:
   601                           	callstack 0
   602  000518                     CAN1_Transmit@txCanMsg:
   603                           	callstack 0
   604                           
   605                           ; 2 bytes @ 0x17
   606  000518                     	ds	1
   607  000519                     Receive@rxCanMsg:
   608                           	callstack 0
   609                           
   610                           ; 2 bytes @ 0x18
   611  000519                     	ds	1
   612  00051A                     CAN1_Transmit@status:
   613                           	callstack 0
   614                           
   615                           ; 1 bytes @ 0x19
   616  00051A                     	ds	1
   617  00051B                     ??_Receive:
   618  00051B                     CAN1_Transmit@txFifoObj:
   619                           	callstack 0
   620                           
   621                           ; 2 bytes @ 0x1A
   622  00051B                     	ds	2
   623  00051D                     Receive@status:
   624                           	callstack 0
   625  00051D                     CAN1_Transmit@fifoChannel:
   626                           	callstack 0
   627                           
   628                           ; 1 bytes @ 0x1C
   629  00051D                     	ds	1
   630  00051E                     Receive@rxFifoObj:
   631                           	callstack 0
   632  00051E                     CANWriteMessage@id:
   633                           	callstack 0
   634                           
   635                           ; 4 bytes @ 0x1D
   636  00051E                     	ds	2
   637  000520                     Receive@rxMsgStatus:
   638                           	callstack 0
   639                           
   640                           ; 1 bytes @ 0x1F
   641  000520                     	ds	1
   642  000521                     Receive@index:
   643                           	callstack 0
   644                           
   645                           ; 1 bytes @ 0x20
   646  000521                     	ds	1
   647  000522                     CANWriteMessage@dataLength:
   648                           	callstack 0
   649  000522                     CAN1_Receive@rxCanMsg:
   650                           	callstack 0
   651                           
   652                           ; 2 bytes @ 0x21
   653  000522                     	ds	1
   654  000523                     CANWriteMessage@data1:
   655                           	callstack 0
   656                           
   657                           ; 1 bytes @ 0x22
   658  000523                     	ds	1
   659  000524                     CAN1_Receive@status:
   660                           	callstack 0
   661  000524                     CANWriteMessage@data2:
   662                           	callstack 0
   663                           
   664                           ; 1 bytes @ 0x23
   665  000524                     	ds	1
   666  000525                     CAN1_Receive@index:
   667                           	callstack 0
   668  000525                     CANWriteMessage@data3:
   669                           	callstack 0
   670                           
   671                           ; 1 bytes @ 0x24
   672  000525                     	ds	1
   673  000526                     ??_CANReadMessage:
   674  000526                     CANWriteMessage@data4:
   675                           	callstack 0
   676                           
   677                           ; 1 bytes @ 0x25
   678  000526                     	ds	1
   679  000527                     CANWriteMessage@data5:
   680                           	callstack 0
   681                           
   682                           ; 1 bytes @ 0x26
   683  000527                     	ds	1
   684  000528                     CANWriteMessage@data6:
   685                           	callstack 0
   686                           
   687                           ; 1 bytes @ 0x27
   688  000528                     	ds	1
   689  000529                     CANWriteMessage@data7:
   690                           	callstack 0
   691                           
   692                           ; 1 bytes @ 0x28
   693  000529                     	ds	1
   694  00052A                     CANWriteMessage@data8:
   695                           	callstack 0
   696                           
   697                           ; 1 bytes @ 0x29
   698  00052A                     	ds	1
   699  00052B                     ??_CANWriteMessage:
   700                           
   701                           ; 1 bytes @ 0x2A
   702  00052B                     	ds	1
   703  00052C                     ??_MESSSAGES_ASSIState:
   704                           
   705                           ; 1 bytes @ 0x2B
   706  00052C                     	ds	2
   707  00052E                     ??_TEMPORIZATION_1s:
   708  00052E                     
   709                           ; 1 bytes @ 0x2D
   710  00052E                     	ds	2
   711  000530                     ??_TMR0_ISR:
   712                           
   713                           ; 1 bytes @ 0x2F
   714  000530                     	ds	3
   715  000533                     CANReadMessage@id:
   716                           	callstack 0
   717                           
   718                           ; 4 bytes @ 0x32
   719  000533                     	ds	4
   720  000537                     CANReadMessage@data1:
   721                           	callstack 0
   722                           
   723                           ; 1 bytes @ 0x36
   724  000537                     	ds	1
   725  000538                     ??_INTERRUPT_InterruptManager:
   726                           
   727                           ; 1 bytes @ 0x37
   728  000538                     	ds	4
   729                           
   730 ;;
   731 ;;Main: autosize = 0, tempsize = 0, incstack = 0, save=0
   732 ;;
   733 ;; *************** function _main *****************
   734 ;; Defined at:
   735 ;;		line 79 in file "main.c"
   736 ;; Parameters:    Size  Location     Type
   737 ;;		None
   738 ;; Auto vars:     Size  Location     Type
   739 ;;		None
   740 ;; Return value:  Size  Location     Type
   741 ;;                  1    wreg      void 
   742 ;; Registers used:
   743 ;;		wreg, fsr2l, fsr2h, status,2, status,0, prodl, prodh, cstack
   744 ;; Tracked objects:
   745 ;;		On entry : 0/0
   746 ;;		On exit  : 0/0
   747 ;;		Unchanged: 0/0
   748 ;; Data sizes:     COMRAM   BANK5   BANK6   BANK7   BANK8   BANK9  BANK10  BANK11  BANK12  BANK13  BANK14  BANK15  BANK1
      +6  BANK17  BANK18  BANK19  BANK20  BANK21  BANK22  BANK23  BANK24  BANK25  BANK26  BANK27  BANK28  BANK29  BANK30  BANK3
      +1  BANK32  BANK33  BANK34  BANK35  BANK36  BANK37
   749 ;;      Params:         0       0       0       0       0       0       0       0       0       0       0       0       
      +0       0       0       0       0       0       0       0       0       0       0       0       0       0       0       
      +0       0       0       0       0       0       0
   750 ;;      Locals:         0       0       0       0       0       0       0       0       0       0       0       0       
      +0       0       0       0       0       0       0       0       0       0       0       0       0       0       0       
      +0       0       0       0       0       0       0
   751 ;;      Temps:          0       0       0       0       0       0       0       0       0       0       0       0       
      +0       0       0       0       0       0       0       0       0       0       0       0       0       0       0       
      +0       0       0       0       0       0       0
   752 ;;      Totals:         0       0       0       0       0       0       0       0       0       0       0       0       
      +0       0       0       0       0       0       0       0       0       0       0       0       0       0       0       
      +0       0       0       0       0       0       0
   753 ;;Total ram usage:        0 bytes
   754 ;; Hardware stack levels required when called:   13
   755 ;; This function calls:
   756 ;;		_Init_hardware
   757 ;;		_PARAMETERS_Init
   758 ;;		_SYSTEM_Initialize
   759 ;; This function is called by:
   760 ;;		Startup code after reset
   761 ;; This function uses a non-reentrant model
   762 ;;
   763                           
   764                           	psect	text0
   765  003AC4                     __ptext0:
   766                           	callstack 0
   767  003AC4                     _main:
   768                           	callstack 115
   769  003AC4                     
   770                           ;main.c: 82:     SYSTEM_Initialize();
   771  003AC4  EC12  F01D         	call	_SYSTEM_Initialize	;wreg free
   772  003AC8                     
   773                           ;main.c: 85:     PARAMETERS_Init();
   774  003AC8  ECDE  F01D         	call	_PARAMETERS_Init	;wreg free
   775  003ACC                     
   776                           ;main.c: 92:     (INTCON0bits.GIE = 1);
   777  003ACC  8ED6               	bsf	214,7,c	;volatile
   778  003ACE                     
   779                           ;main.c: 98:     Init_hardware();
   780  003ACE  ECB5  F01B         	call	_Init_hardware	;wreg free
   781  003AD2                     l720:
   782  003AD2  EF69  F01D         	goto	l720
   783  003AD6  EF0D  F000         	goto	start
   784  003ADA                     __end_of_main:
   785                           	callstack 0
   786                           
   787 ;; *************** function _SYSTEM_Initialize *****************
   788 ;; Defined at:
   789 ;;		line 50 in file "mcc_generated_files/mcc.c"
   790 ;; Parameters:    Size  Location     Type
   791 ;;		None
   792 ;; Auto vars:     Size  Location     Type
   793 ;;		None
   794 ;; Return value:  Size  Location     Type
   795 ;;                  1    wreg      void 
   796 ;; Registers used:
   797 ;;		wreg, fsr2l, fsr2h, status,2, status,0, prodl, prodh, cstack
   798 ;; Tracked objects:
   799 ;;		On entry : 0/0
   800 ;;		On exit  : 0/0
   801 ;;		Unchanged: 0/0
   802 ;; Data sizes:     COMRAM   BANK5   BANK6   BANK7   BANK8   BANK9  BANK10  BANK11  BANK12  BANK13  BANK14  BANK15  BANK1
      +6  BANK17  BANK18  BANK19  BANK20  BANK21  BANK22  BANK23  BANK24  BANK25  BANK26  BANK27  BANK28  BANK29  BANK30  BANK3
      +1  BANK32  BANK33  BANK34  BANK35  BANK36  BANK37
   803 ;;      Params:         0       0       0       0       0       0       0       0       0       0       0       0       
      +0       0       0       0       0       0       0       0       0       0       0       0       0       0       0       
      +0       0       0       0       0       0       0
   804 ;;      Locals:         0       0       0       0       0       0       0       0       0       0       0       0       
      +0       0       0       0       0       0       0       0       0       0       0       0       0       0       0       
      +0       0       0       0       0       0       0
   805 ;;      Temps:          0       0       0       0       0       0       0       0       0       0       0       0       
      +0       0       0       0       0       0       0       0       0       0       0       0       0       0       0       
      +0       0       0       0       0       0       0
   806 ;;      Totals:         0       0       0       0       0       0       0       0       0       0       0       0       
      +0       0       0       0       0       0       0       0       0       0       0       0       0       0       0       
      +0       0       0       0       0       0       0
   807 ;;Total ram usage:        0 bytes
   808 ;; Hardware stack levels used:    1
   809 ;; Hardware stack levels required when called:   12
   810 ;; This function calls:
   811 ;;		_CAN1_Initialize
   812 ;;		_INTERRUPT_Initialize
   813 ;;		_OSCILLATOR_Initialize
   814 ;;		_PIN_MANAGER_Initialize
   815 ;;		_PMD_Initialize
   816 ;;		_TMR0_Initialize
   817 ;;		_TMR1_Initialize
   818 ;; This function is called by:
   819 ;;		_main
   820 ;; This function uses a non-reentrant model
   821 ;;
   822                           
   823                           	psect	text1
   824  003A24                     __ptext1:
   825                           	callstack 0
   826  003A24                     _SYSTEM_Initialize:
   827                           	callstack 115
   828  003A24                     
   829                           ;mcc_generated_files/mcc.c: 52:     INTERRUPT_Initialize();
   830  003A24  ECE7  F01D         	call	_INTERRUPT_Initialize	;wreg free
   831  003A28  86C0               	bsf	192,3,c	;volatile
   832  003A2A                     
   833                           ;mcc_generated_files/mcc.c: 54:     PMD_Initialize();
   834  003A2A  ECC7  F01C         	call	_PMD_Initialize	;wreg free
   835  003A2E                     
   836                           ;mcc_generated_files/mcc.c: 55:     PIN_MANAGER_Initialize();
   837  003A2E  ECBD  F01A         	call	_PIN_MANAGER_Initialize	;wreg free
   838  003A32                     
   839                           ;mcc_generated_files/mcc.c: 56:     OSCILLATOR_Initialize();
   840  003A32  EC3E  F01D         	call	_OSCILLATOR_Initialize	;wreg free
   841  003A36                     
   842                           ;mcc_generated_files/mcc.c: 57:     TMR1_Initialize();
   843  003A36  EC91  F01B         	call	_TMR1_Initialize	;wreg free
   844  003A3A                     
   845                           ;mcc_generated_files/mcc.c: 58:     TMR0_Initialize();
   846  003A3A  ECB3  F01C         	call	_TMR0_Initialize	;wreg free
   847  003A3E                     
   848                           ;mcc_generated_files/mcc.c: 59:     CAN1_Initialize();
   849  003A3E  EC18  F01B         	call	_CAN1_Initialize	;wreg free
   850  003A42  0012               	return		;funcret
   851  003A44                     __end_of_SYSTEM_Initialize:
   852                           	callstack 0
   853                           
   854 ;; *************** function _TMR1_Initialize *****************
   855 ;; Defined at:
   856 ;;		line 64 in file "mcc_generated_files/tmr1.c"
   857 ;; Parameters:    Size  Location     Type
   858 ;;		None
   859 ;; Auto vars:     Size  Location     Type
   860 ;;		None
   861 ;; Return value:  Size  Location     Type
   862 ;;                  1    wreg      void 
   863 ;; Registers used:
   864 ;;		wreg, status,2, status,0, cstack
   865 ;; Tracked objects:
   866 ;;		On entry : 0/0
   867 ;;		On exit  : 0/0
   868 ;;		Unchanged: 0/0
   869 ;; Data sizes:     COMRAM   BANK5   BANK6   BANK7   BANK8   BANK9  BANK10  BANK11  BANK12  BANK13  BANK14  BANK15  BANK1
      +6  BANK17  BANK18  BANK19  BANK20  BANK21  BANK22  BANK23  BANK24  BANK25  BANK26  BANK27  BANK28  BANK29  BANK30  BANK3
      +1  BANK32  BANK33  BANK34  BANK35  BANK36  BANK37
   870 ;;      Params:         0       0       0       0       0       0       0       0       0       0       0       0       
      +0       0       0       0       0       0       0       0       0       0       0       0       0       0       0       
      +0       0       0       0       0       0       0
   871 ;;      Locals:         0       0       0       0       0       0       0       0       0       0       0       0       
      +0       0       0       0       0       0       0       0       0       0       0       0       0       0       0       
      +0       0       0       0       0       0       0
   872 ;;      Temps:          0       2       0       0       0       0       0       0       0       0       0       0       
      +0       0       0       0       0       0       0       0       0       0       0       0       0       0       0       
      +0       0       0       0       0       0       0
   873 ;;      Totals:         0       2       0       0       0       0       0       0       0       0       0       0       
      +0       0       0       0       0       0       0       0       0       0       0       0       0       0       0       
      +0       0       0       0       0       0       0
   874 ;;Total ram usage:        2 bytes
   875 ;; Hardware stack levels used:    1
   876 ;; Hardware stack levels required when called:   10
   877 ;; This function calls:
   878 ;;		_TMR1_SetInterruptHandler
   879 ;; This function is called by:
   880 ;;		_SYSTEM_Initialize
   881 ;; This function uses a non-reentrant model
   882 ;;
   883                           
   884                           	psect	text2
   885  003722                     __ptext2:
   886                           	callstack 0
   887  003722                     _TMR1_Initialize:
   888                           	callstack 116
   889  003722                     
   890                           ;mcc_generated_files/tmr1.c: 69:     T1GCON = 0x00;
   891  003722  0E00               	movlw	0
   892  003724  0103               	movlb	3	; () banked
   893  003726  6F1F               	movwf	31,b	;volatile
   894                           
   895                           ;mcc_generated_files/tmr1.c: 72:     T1GATE = 0x00;
   896  003728  0E00               	movlw	0
   897  00372A  6F20               	movwf	32,b	;volatile
   898                           
   899                           ;mcc_generated_files/tmr1.c: 75:     T1CLK = 0x01;
   900  00372C  0E01               	movlw	1
   901  00372E  6F21               	movwf	33,b	;volatile
   902                           
   903                           ;mcc_generated_files/tmr1.c: 78:     TMR1H = 0x0B;
   904  003730  0E0B               	movlw	11
   905  003732  6F1D               	movwf	29,b	;volatile
   906                           
   907                           ;mcc_generated_files/tmr1.c: 81:     TMR1L = 0xDC;
   908  003734  0EDC               	movlw	220
   909  003736  6F1C               	movwf	28,b	;volatile
   910  003738                     
   911                           ; BSR set to: 3
   912                           ;mcc_generated_files/tmr1.c: 84:     PIR3bits.TMR1IF = 0;
   913  003738  98B1               	bcf	177,4,c	;volatile
   914  00373A                     
   915                           ; BSR set to: 3
   916                           ;mcc_generated_files/tmr1.c: 87:     timer1ReloadVal=(uint16_t)((TMR1H << 8) | TMR1L);
   917  00373A  511C               	movf	28,w,b	;volatile
   918  00373C  0060 FC74  F584    	movff	797,??_TMR1_Initialize	;volatile
   919  003742  0105               	movlb	5	; () banked
   920  003744  6B85               	clrf	(??_TMR1_Initialize+1)& (0+255),b
   921  003746  C584  F585         	movff	??_TMR1_Initialize,??_TMR1_Initialize+1
   922  00374A  6B84               	clrf	??_TMR1_Initialize& (0+255),b
   923  00374C  1184               	iorwf	??_TMR1_Initialize& (0+255),w,b
   924  00374E  6E5D               	movwf	_timer1ReloadVal^(0+1280),c	;volatile
   925  003750  5185               	movf	(??_TMR1_Initialize+1)& (0+255),w,b
   926  003752  6E5E               	movwf	(_timer1ReloadVal+1)^(0+1280),c	;volatile
   927  003754                     
   928                           ; BSR set to: 5
   929                           ;mcc_generated_files/tmr1.c: 90:     PIE3bits.TMR1IE = 1;
   930  003754  88A1               	bsf	161,4,c	;volatile
   931  003756                     
   932                           ; BSR set to: 5
   933                           ;mcc_generated_files/tmr1.c: 93:     TMR1_SetInterruptHandler(TMR1_DefaultInterruptHandl
      +                          er);
   934  003756  0ED4               	movlw	low _TMR1_DefaultInterruptHandler
   935  003758  6F82               	movwf	TMR1_SetInterruptHandler@InterruptHandler& (0+255),b
   936  00375A  0E3B               	movlw	high _TMR1_DefaultInterruptHandler
   937  00375C  6F83               	movwf	(TMR1_SetInterruptHandler@InterruptHandler+1)& (0+255),b
   938  00375E  ECA2  F01D         	call	_TMR1_SetInterruptHandler	;wreg free
   939  003762                     
   940                           ;mcc_generated_files/tmr1.c: 96:     T1CON = 0x21;
   941  003762  0E21               	movlw	33
   942  003764  0103               	movlb	3	; () banked
   943  003766  6F1E               	movwf	30,b	;volatile
   944  003768                     
   945                           ; BSR set to: 3
   946  003768  0012               	return		;funcret
   947  00376A                     __end_of_TMR1_Initialize:
   948                           	callstack 0
   949                           
   950 ;; *************** function _TMR1_SetInterruptHandler *****************
   951 ;; Defined at:
   952 ;;		line 195 in file "mcc_generated_files/tmr1.c"
   953 ;; Parameters:    Size  Location     Type
   954 ;;  InterruptHan    2    0[BANK5 ] PTR FTN()void 
   955 ;;		 -> TMR1_DefaultInterruptHandler(1), 
   956 ;; Auto vars:     Size  Location     Type
   957 ;;		None
   958 ;; Return value:  Size  Location     Type
   959 ;;                  1    wreg      void 
   960 ;; Registers used:
   961 ;;		wreg, status,2, status,0
   962 ;; Tracked objects:
   963 ;;		On entry : 0/0
   964 ;;		On exit  : 0/0
   965 ;;		Unchanged: 0/0
   966 ;; Data sizes:     COMRAM   BANK5   BANK6   BANK7   BANK8   BANK9  BANK10  BANK11  BANK12  BANK13  BANK14  BANK15  BANK1
      +6  BANK17  BANK18  BANK19  BANK20  BANK21  BANK22  BANK23  BANK24  BANK25  BANK26  BANK27  BANK28  BANK29  BANK30  BANK3
      +1  BANK32  BANK33  BANK34  BANK35  BANK36  BANK37
   967 ;;      Params:         0       2       0       0       0       0       0       0       0       0       0       0       
      +0       0       0       0       0       0       0       0       0       0       0       0       0       0       0       
      +0       0       0       0       0       0       0
   968 ;;      Locals:         0       0       0       0       0       0       0       0       0       0       0       0       
      +0       0       0       0       0       0       0       0       0       0       0       0       0       0       0       
      +0       0       0       0       0       0       0
   969 ;;      Temps:          0       0       0       0       0       0       0       0       0       0       0       0       
      +0       0       0       0       0       0       0       0       0       0       0       0       0       0       0       
      +0       0       0       0       0       0       0
   970 ;;      Totals:         0       2       0       0       0       0       0       0       0       0       0       0       
      +0       0       0       0       0       0       0       0       0       0       0       0       0       0       0       
      +0       0       0       0       0       0       0
   971 ;;Total ram usage:        2 bytes
   972 ;; Hardware stack levels used:    1
   973 ;; Hardware stack levels required when called:    9
   974 ;; This function calls:
   975 ;;		Nothing
   976 ;; This function is called by:
   977 ;;		_TMR1_Initialize
   978 ;; This function uses a non-reentrant model
   979 ;;
   980                           
   981                           	psect	text3
   982  003B44                     __ptext3:
   983                           	callstack 0
   984  003B44                     _TMR1_SetInterruptHandler:
   985                           	callstack 116
   986  003B44                     
   987                           ;mcc_generated_files/tmr1.c: 196:     TMR1_InterruptHandler = InterruptHandler;
   988  003B44  C582  F580         	movff	TMR1_SetInterruptHandler@InterruptHandler,_TMR1_InterruptHandler
   989  003B48  C583  F581         	movff	TMR1_SetInterruptHandler@InterruptHandler+1,_TMR1_InterruptHandler+1
   990  003B4C  0012               	return		;funcret
   991  003B4E                     __end_of_TMR1_SetInterruptHandler:
   992                           	callstack 0
   993                           
   994 ;; *************** function _TMR0_Initialize *****************
   995 ;; Defined at:
   996 ;;		line 64 in file "mcc_generated_files/tmr0.c"
   997 ;; Parameters:    Size  Location     Type
   998 ;;		None
   999 ;; Auto vars:     Size  Location     Type
  1000 ;;		None
  1001 ;; Return value:  Size  Location     Type
  1002 ;;                  1    wreg      void 
  1003 ;; Registers used:
  1004 ;;		wreg, status,2, status,0, cstack
  1005 ;; Tracked objects:
  1006 ;;		On entry : 0/0
  1007 ;;		On exit  : 0/0
  1008 ;;		Unchanged: 0/0
  1009 ;; Data sizes:     COMRAM   BANK5   BANK6   BANK7   BANK8   BANK9  BANK10  BANK11  BANK12  BANK13  BANK14  BANK15  BANK1
      +6  BANK17  BANK18  BANK19  BANK20  BANK21  BANK22  BANK23  BANK24  BANK25  BANK26  BANK27  BANK28  BANK29  BANK30  BANK3
      +1  BANK32  BANK33  BANK34  BANK35  BANK36  BANK37
  1010 ;;      Params:         0       0       0       0       0       0       0       0       0       0       0       0       
      +0       0       0       0       0       0       0       0       0       0       0       0       0       0       0       
      +0       0       0       0       0       0       0
  1011 ;;      Locals:         0       0       0       0       0       0       0       0       0       0       0       0       
      +0       0       0       0       0       0       0       0       0       0       0       0       0       0       0       
      +0       0       0       0       0       0       0
  1012 ;;      Temps:          0       0       0       0       0       0       0       0       0       0       0       0       
      +0       0       0       0       0       0       0       0       0       0       0       0       0       0       0       
      +0       0       0       0       0       0       0
  1013 ;;      Totals:         0       0       0       0       0       0       0       0       0       0       0       0       
      +0       0       0       0       0       0       0       0       0       0       0       0       0       0       0       
      +0       0       0       0       0       0       0
  1014 ;;Total ram usage:        0 bytes
  1015 ;; Hardware stack levels used:    1
  1016 ;; Hardware stack levels required when called:   10
  1017 ;; This function calls:
  1018 ;;		_TMR0_SetInterruptHandler
  1019 ;; This function is called by:
  1020 ;;		_SYSTEM_Initialize
  1021 ;; This function uses a non-reentrant model
  1022 ;;
  1023                           
  1024                           	psect	text4
  1025  003966                     __ptext4:
  1026                           	callstack 0
  1027  003966                     _TMR0_Initialize:
  1028                           	callstack 116
  1029  003966                     
  1030                           ;mcc_generated_files/tmr0.c: 69:     T0CON1 = 0x4C;
  1031  003966  0E4C               	movlw	76
  1032  003968  0103               	movlb	3	; () banked
  1033  00396A  6F1B               	movwf	27,b	;volatile
  1034                           
  1035                           ;mcc_generated_files/tmr0.c: 72:     TMR0H = 0x98;
  1036  00396C  0E98               	movlw	152
  1037  00396E  6F19               	movwf	25,b	;volatile
  1038                           
  1039                           ;mcc_generated_files/tmr0.c: 75:     TMR0L = 0x00;
  1040  003970  0E00               	movlw	0
  1041  003972  6F18               	movwf	24,b	;volatile
  1042  003974                     
  1043                           ; BSR set to: 3
  1044                           ;mcc_generated_files/tmr0.c: 78:     PIR3bits.TMR0IF = 0;
  1045  003974  9EB1               	bcf	177,7,c	;volatile
  1046  003976                     
  1047                           ; BSR set to: 3
  1048                           ;mcc_generated_files/tmr0.c: 81:     PIE3bits.TMR0IE = 1;
  1049  003976  8EA1               	bsf	161,7,c	;volatile
  1050  003978                     
  1051                           ; BSR set to: 3
  1052                           ;mcc_generated_files/tmr0.c: 84:     TMR0_SetInterruptHandler(TMR0_DefaultInterruptHandl
      +                          er);
  1053  003978  0ED6               	movlw	low _TMR0_DefaultInterruptHandler
  1054  00397A  0105               	movlb	5	; () banked
  1055  00397C  6F82               	movwf	TMR0_SetInterruptHandler@InterruptHandler& (0+255),b
  1056  00397E  0E3B               	movlw	high _TMR0_DefaultInterruptHandler
  1057  003980  6F83               	movwf	(TMR0_SetInterruptHandler@InterruptHandler+1)& (0+255),b
  1058  003982  ECA7  F01D         	call	_TMR0_SetInterruptHandler	;wreg free
  1059  003986                     
  1060                           ;mcc_generated_files/tmr0.c: 87:     T0CON0 = 0x80;
  1061  003986  0E80               	movlw	128
  1062  003988  0103               	movlb	3	; () banked
  1063  00398A  6F1A               	movwf	26,b	;volatile
  1064  00398C                     
  1065                           ; BSR set to: 3
  1066  00398C  0012               	return		;funcret
  1067  00398E                     __end_of_TMR0_Initialize:
  1068                           	callstack 0
  1069                           
  1070 ;; *************** function _TMR0_SetInterruptHandler *****************
  1071 ;; Defined at:
  1072 ;;		line 169 in file "mcc_generated_files/tmr0.c"
  1073 ;; Parameters:    Size  Location     Type
  1074 ;;  InterruptHan    2    0[BANK5 ] PTR FTN()void 
  1075 ;;		 -> TMR0_DefaultInterruptHandler(1), 
  1076 ;; Auto vars:     Size  Location     Type
  1077 ;;		None
  1078 ;; Return value:  Size  Location     Type
  1079 ;;                  1    wreg      void 
  1080 ;; Registers used:
  1081 ;;		wreg, status,2, status,0
  1082 ;; Tracked objects:
  1083 ;;		On entry : 0/0
  1084 ;;		On exit  : 0/0
  1085 ;;		Unchanged: 0/0
  1086 ;; Data sizes:     COMRAM   BANK5   BANK6   BANK7   BANK8   BANK9  BANK10  BANK11  BANK12  BANK13  BANK14  BANK15  BANK1
      +6  BANK17  BANK18  BANK19  BANK20  BANK21  BANK22  BANK23  BANK24  BANK25  BANK26  BANK27  BANK28  BANK29  BANK30  BANK3
      +1  BANK32  BANK33  BANK34  BANK35  BANK36  BANK37
  1087 ;;      Params:         0       2       0       0       0       0       0       0       0       0       0       0       
      +0       0       0       0       0       0       0       0       0       0       0       0       0       0       0       
      +0       0       0       0       0       0       0
  1088 ;;      Locals:         0       0       0       0       0       0       0       0       0       0       0       0       
      +0       0       0       0       0       0       0       0       0       0       0       0       0       0       0       
      +0       0       0       0       0       0       0
  1089 ;;      Temps:          0       0       0       0       0       0       0       0       0       0       0       0       
      +0       0       0       0       0       0       0       0       0       0       0       0       0       0       0       
      +0       0       0       0       0       0       0
  1090 ;;      Totals:         0       2       0       0       0       0       0       0       0       0       0       0       
      +0       0       0       0       0       0       0       0       0       0       0       0       0       0       0       
      +0       0       0       0       0       0       0
  1091 ;;Total ram usage:        2 bytes
  1092 ;; Hardware stack levels used:    1
  1093 ;; Hardware stack levels required when called:    9
  1094 ;; This function calls:
  1095 ;;		Nothing
  1096 ;; This function is called by:
  1097 ;;		_TMR0_Initialize
  1098 ;; This function uses a non-reentrant model
  1099 ;;
  1100                           
  1101                           	psect	text5
  1102  003B4E                     __ptext5:
  1103                           	callstack 0
  1104  003B4E                     _TMR0_SetInterruptHandler:
  1105                           	callstack 116
  1106  003B4E                     
  1107                           ;mcc_generated_files/tmr0.c: 170:     TMR0_InterruptHandler = InterruptHandler;
  1108  003B4E  C582  F57E         	movff	TMR0_SetInterruptHandler@InterruptHandler,_TMR0_InterruptHandler
  1109  003B52  C583  F57F         	movff	TMR0_SetInterruptHandler@InterruptHandler+1,_TMR0_InterruptHandler+1
  1110  003B56  0012               	return		;funcret
  1111  003B58                     __end_of_TMR0_SetInterruptHandler:
  1112                           	callstack 0
  1113                           
  1114 ;; *************** function _PMD_Initialize *****************
  1115 ;; Defined at:
  1116 ;;		line 76 in file "mcc_generated_files/mcc.c"
  1117 ;; Parameters:    Size  Location     Type
  1118 ;;		None
  1119 ;; Auto vars:     Size  Location     Type
  1120 ;;		None
  1121 ;; Return value:  Size  Location     Type
  1122 ;;                  1    wreg      void 
  1123 ;; Registers used:
  1124 ;;		wreg, status,2
  1125 ;; Tracked objects:
  1126 ;;		On entry : 0/0
  1127 ;;		On exit  : 0/0
  1128 ;;		Unchanged: 0/0
  1129 ;; Data sizes:     COMRAM   BANK5   BANK6   BANK7   BANK8   BANK9  BANK10  BANK11  BANK12  BANK13  BANK14  BANK15  BANK1
      +6  BANK17  BANK18  BANK19  BANK20  BANK21  BANK22  BANK23  BANK24  BANK25  BANK26  BANK27  BANK28  BANK29  BANK30  BANK3
      +1  BANK32  BANK33  BANK34  BANK35  BANK36  BANK37
  1130 ;;      Params:         0       0       0       0       0       0       0       0       0       0       0       0       
      +0       0       0       0       0       0       0       0       0       0       0       0       0       0       0       
      +0       0       0       0       0       0       0
  1131 ;;      Locals:         0       0       0       0       0       0       0       0       0       0       0       0       
      +0       0       0       0       0       0       0       0       0       0       0       0       0       0       0       
      +0       0       0       0       0       0       0
  1132 ;;      Temps:          0       0       0       0       0       0       0       0       0       0       0       0       
      +0       0       0       0       0       0       0       0       0       0       0       0       0       0       0       
      +0       0       0       0       0       0       0
  1133 ;;      Totals:         0       0       0       0       0       0       0       0       0       0       0       0       
      +0       0       0       0       0       0       0       0       0       0       0       0       0       0       0       
      +0       0       0       0       0       0       0
  1134 ;;Total ram usage:        0 bytes
  1135 ;; Hardware stack levels used:    1
  1136 ;; Hardware stack levels required when called:    9
  1137 ;; This function calls:
  1138 ;;		Nothing
  1139 ;; This function is called by:
  1140 ;;		_SYSTEM_Initialize
  1141 ;; This function uses a non-reentrant model
  1142 ;;
  1143                           
  1144                           	psect	text6
  1145  00398E                     __ptext6:
  1146                           	callstack 0
  1147  00398E                     _PMD_Initialize:
  1148                           	callstack 117
  1149  00398E                     
  1150                           ;mcc_generated_files/mcc.c: 79:     PMD0 = 0x00;
  1151  00398E  0E00               	movlw	0
  1152  003990  0100               	movlb	0	; () banked
  1153  003992  6F60               	movwf	96,b	;volatile
  1154                           
  1155                           ;mcc_generated_files/mcc.c: 81:     PMD1 = 0x00;
  1156  003994  0E00               	movlw	0
  1157  003996  6F61               	movwf	97,b	;volatile
  1158                           
  1159                           ;mcc_generated_files/mcc.c: 83:     PMD2 = 0x00;
  1160  003998  0E00               	movlw	0
  1161  00399A  6F62               	movwf	98,b	;volatile
  1162                           
  1163                           ;mcc_generated_files/mcc.c: 85:     PMD3 = 0x00;
  1164  00399C  0E00               	movlw	0
  1165  00399E  6F63               	movwf	99,b	;volatile
  1166                           
  1167                           ;mcc_generated_files/mcc.c: 87:     PMD4 = 0x00;
  1168  0039A0  0E00               	movlw	0
  1169  0039A2  6F64               	movwf	100,b	;volatile
  1170                           
  1171                           ;mcc_generated_files/mcc.c: 89:     PMD5 = 0x00;
  1172  0039A4  0E00               	movlw	0
  1173  0039A6  6F65               	movwf	101,b	;volatile
  1174                           
  1175                           ;mcc_generated_files/mcc.c: 91:     PMD6 = 0x00;
  1176  0039A8  0E00               	movlw	0
  1177  0039AA  6F66               	movwf	102,b	;volatile
  1178                           
  1179                           ;mcc_generated_files/mcc.c: 93:     PMD7 = 0x00;
  1180  0039AC  0E00               	movlw	0
  1181  0039AE  6F67               	movwf	103,b	;volatile
  1182                           
  1183                           ;mcc_generated_files/mcc.c: 95:     PMD8 = 0x00;
  1184  0039B0  0E00               	movlw	0
  1185  0039B2  6F68               	movwf	104,b	;volatile
  1186  0039B4                     
  1187                           ; BSR set to: 0
  1188  0039B4  0012               	return		;funcret
  1189  0039B6                     __end_of_PMD_Initialize:
  1190                           	callstack 0
  1191                           
  1192 ;; *************** function _PIN_MANAGER_Initialize *****************
  1193 ;; Defined at:
  1194 ;;		line 55 in file "mcc_generated_files/pin_manager.c"
  1195 ;; Parameters:    Size  Location     Type
  1196 ;;		None
  1197 ;; Auto vars:     Size  Location     Type
  1198 ;;		None
  1199 ;; Return value:  Size  Location     Type
  1200 ;;                  1    wreg      void 
  1201 ;; Registers used:
  1202 ;;		wreg, status,2
  1203 ;; Tracked objects:
  1204 ;;		On entry : 0/0
  1205 ;;		On exit  : 0/0
  1206 ;;		Unchanged: 0/0
  1207 ;; Data sizes:     COMRAM   BANK5   BANK6   BANK7   BANK8   BANK9  BANK10  BANK11  BANK12  BANK13  BANK14  BANK15  BANK1
      +6  BANK17  BANK18  BANK19  BANK20  BANK21  BANK22  BANK23  BANK24  BANK25  BANK26  BANK27  BANK28  BANK29  BANK30  BANK3
      +1  BANK32  BANK33  BANK34  BANK35  BANK36  BANK37
  1208 ;;      Params:         0       0       0       0       0       0       0       0       0       0       0       0       
      +0       0       0       0       0       0       0       0       0       0       0       0       0       0       0       
      +0       0       0       0       0       0       0
  1209 ;;      Locals:         0       0       0       0       0       0       0       0       0       0       0       0       
      +0       0       0       0       0       0       0       0       0       0       0       0       0       0       0       
      +0       0       0       0       0       0       0
  1210 ;;      Temps:          0       0       0       0       0       0       0       0       0       0       0       0       
      +0       0       0       0       0       0       0       0       0       0       0       0       0       0       0       
      +0       0       0       0       0       0       0
  1211 ;;      Totals:         0       0       0       0       0       0       0       0       0       0       0       0       
      +0       0       0       0       0       0       0       0       0       0       0       0       0       0       0       
      +0       0       0       0       0       0       0
  1212 ;;Total ram usage:        0 bytes
  1213 ;; Hardware stack levels used:    1
  1214 ;; Hardware stack levels required when called:    9
  1215 ;; This function calls:
  1216 ;;		Nothing
  1217 ;; This function is called by:
  1218 ;;		_SYSTEM_Initialize
  1219 ;; This function uses a non-reentrant model
  1220 ;;
  1221                           
  1222                           	psect	text7
  1223  00357A                     __ptext7:
  1224                           	callstack 0
  1225  00357A                     _PIN_MANAGER_Initialize:
  1226                           	callstack 117
  1227  00357A                     
  1228                           ;mcc_generated_files/pin_manager.c: 60:     LATA = 0x00;
  1229  00357A  0E00               	movlw	0
  1230  00357C  6EBE               	movwf	190,c	;volatile
  1231                           
  1232                           ;mcc_generated_files/pin_manager.c: 61:     LATB = 0x00;
  1233  00357E  0E00               	movlw	0
  1234  003580  6EBF               	movwf	191,c	;volatile
  1235                           
  1236                           ;mcc_generated_files/pin_manager.c: 62:     LATC = 0x00;
  1237  003582  0E00               	movlw	0
  1238  003584  6EC0               	movwf	192,c	;volatile
  1239                           
  1240                           ;mcc_generated_files/pin_manager.c: 67:     TRISE = 0x08;
  1241  003586  0E08               	movlw	8
  1242  003588  6ECA               	movwf	202,c	;volatile
  1243  00358A                     
  1244                           ;mcc_generated_files/pin_manager.c: 68:     TRISA = 0xFF;
  1245  00358A  68C6               	setf	198,c	;volatile
  1246                           
  1247                           ;mcc_generated_files/pin_manager.c: 69:     TRISB = 0xE9;
  1248  00358C  0EE9               	movlw	233
  1249  00358E  6EC7               	movwf	199,c	;volatile
  1250                           
  1251                           ;mcc_generated_files/pin_manager.c: 70:     TRISC = 0xE7;
  1252  003590  0EE7               	movlw	231
  1253  003592  6EC8               	movwf	200,c	;volatile
  1254  003594                     
  1255                           ;mcc_generated_files/pin_manager.c: 75:     ANSELC = 0xFF;
  1256  003594  0104               	movlb	4	; () banked
  1257  003596  6910               	setf	16,b	;volatile
  1258                           
  1259                           ;mcc_generated_files/pin_manager.c: 76:     ANSELB = 0xF1;
  1260  003598  0EF1               	movlw	241
  1261  00359A  6F08               	movwf	8,b	;volatile
  1262  00359C                     
  1263                           ; BSR set to: 4
  1264                           ;mcc_generated_files/pin_manager.c: 77:     ANSELA = 0xFF;
  1265  00359C  6900               	setf	0,b	;volatile
  1266                           
  1267                           ;mcc_generated_files/pin_manager.c: 82:     WPUE = 0x00;
  1268  00359E  0E00               	movlw	0
  1269  0035A0  6F21               	movwf	33,b	;volatile
  1270                           
  1271                           ;mcc_generated_files/pin_manager.c: 83:     WPUB = 0x00;
  1272  0035A2  0E00               	movlw	0
  1273  0035A4  6F09               	movwf	9,b	;volatile
  1274                           
  1275                           ;mcc_generated_files/pin_manager.c: 84:     WPUA = 0x00;
  1276  0035A6  0E00               	movlw	0
  1277  0035A8  6F01               	movwf	1,b	;volatile
  1278                           
  1279                           ;mcc_generated_files/pin_manager.c: 85:     WPUC = 0x00;
  1280  0035AA  0E00               	movlw	0
  1281  0035AC  6F11               	movwf	17,b	;volatile
  1282                           
  1283                           ;mcc_generated_files/pin_manager.c: 90:     ODCONA = 0x00;
  1284  0035AE  0E00               	movlw	0
  1285  0035B0  6F02               	movwf	2,b	;volatile
  1286                           
  1287                           ;mcc_generated_files/pin_manager.c: 91:     ODCONB = 0x00;
  1288  0035B2  0E00               	movlw	0
  1289  0035B4  6F0A               	movwf	10,b	;volatile
  1290                           
  1291                           ;mcc_generated_files/pin_manager.c: 92:     ODCONC = 0x00;
  1292  0035B6  0E00               	movlw	0
  1293  0035B8  6F12               	movwf	18,b	;volatile
  1294  0035BA                     
  1295                           ; BSR set to: 4
  1296                           ;mcc_generated_files/pin_manager.c: 97:     SLRCONA = 0xFF;
  1297  0035BA  6903               	setf	3,b	;volatile
  1298  0035BC                     
  1299                           ; BSR set to: 4
  1300                           ;mcc_generated_files/pin_manager.c: 98:     SLRCONB = 0xFF;
  1301  0035BC  690B               	setf	11,b	;volatile
  1302  0035BE                     
  1303                           ; BSR set to: 4
  1304                           ;mcc_generated_files/pin_manager.c: 99:     SLRCONC = 0xFF;
  1305  0035BE  6913               	setf	19,b	;volatile
  1306  0035C0                     
  1307                           ; BSR set to: 4
  1308                           ;mcc_generated_files/pin_manager.c: 104:     INLVLA = 0xFF;
  1309  0035C0  6904               	setf	4,b	;volatile
  1310  0035C2                     
  1311                           ; BSR set to: 4
  1312                           ;mcc_generated_files/pin_manager.c: 105:     INLVLB = 0xFF;
  1313  0035C2  690C               	setf	12,b	;volatile
  1314  0035C4                     
  1315                           ; BSR set to: 4
  1316                           ;mcc_generated_files/pin_manager.c: 106:     INLVLC = 0xFF;
  1317  0035C4  6914               	setf	20,b	;volatile
  1318                           
  1319                           ;mcc_generated_files/pin_manager.c: 107:     INLVLE = 0x08;
  1320  0035C6  0E08               	movlw	8
  1321  0035C8  6F24               	movwf	36,b	;volatile
  1322                           
  1323                           ;mcc_generated_files/pin_manager.c: 116:     CANRXPPS = 0x0B;
  1324  0035CA  0E0B               	movlw	11
  1325  0035CC  0102               	movlb	2	; () banked
  1326  0035CE  6F3D               	movwf	61,b	;volatile
  1327                           
  1328                           ;mcc_generated_files/pin_manager.c: 117:     RB4PPS = 0x46;
  1329  0035D0  0E46               	movlw	70
  1330  0035D2  6F0D               	movwf	13,b	;volatile
  1331  0035D4                     
  1332                           ; BSR set to: 2
  1333  0035D4  0012               	return		;funcret
  1334  0035D6                     __end_of_PIN_MANAGER_Initialize:
  1335                           	callstack 0
  1336                           
  1337 ;; *************** function _OSCILLATOR_Initialize *****************
  1338 ;; Defined at:
  1339 ;;		line 62 in file "mcc_generated_files/mcc.c"
  1340 ;; Parameters:    Size  Location     Type
  1341 ;;		None
  1342 ;; Auto vars:     Size  Location     Type
  1343 ;;		None
  1344 ;; Return value:  Size  Location     Type
  1345 ;;                  1    wreg      void 
  1346 ;; Registers used:
  1347 ;;		wreg, status,2
  1348 ;; Tracked objects:
  1349 ;;		On entry : 0/0
  1350 ;;		On exit  : 0/0
  1351 ;;		Unchanged: 0/0
  1352 ;; Data sizes:     COMRAM   BANK5   BANK6   BANK7   BANK8   BANK9  BANK10  BANK11  BANK12  BANK13  BANK14  BANK15  BANK1
      +6  BANK17  BANK18  BANK19  BANK20  BANK21  BANK22  BANK23  BANK24  BANK25  BANK26  BANK27  BANK28  BANK29  BANK30  BANK3
      +1  BANK32  BANK33  BANK34  BANK35  BANK36  BANK37
  1353 ;;      Params:         0       0       0       0       0       0       0       0       0       0       0       0       
      +0       0       0       0       0       0       0       0       0       0       0       0       0       0       0       
      +0       0       0       0       0       0       0
  1354 ;;      Locals:         0       0       0       0       0       0       0       0       0       0       0       0       
      +0       0       0       0       0       0       0       0       0       0       0       0       0       0       0       
      +0       0       0       0       0       0       0
  1355 ;;      Temps:          0       0       0       0       0       0       0       0       0       0       0       0       
      +0       0       0       0       0       0       0       0       0       0       0       0       0       0       0       
      +0       0       0       0       0       0       0
  1356 ;;      Totals:         0       0       0       0       0       0       0       0       0       0       0       0       
      +0       0       0       0       0       0       0       0       0       0       0       0       0       0       0       
      +0       0       0       0       0       0       0
  1357 ;;Total ram usage:        0 bytes
  1358 ;; Hardware stack levels used:    1
  1359 ;; Hardware stack levels required when called:    9
  1360 ;; This function calls:
  1361 ;;		Nothing
  1362 ;; This function is called by:
  1363 ;;		_SYSTEM_Initialize
  1364 ;; This function uses a non-reentrant model
  1365 ;;
  1366                           
  1367                           	psect	text8
  1368  003A7C                     __ptext8:
  1369                           	callstack 0
  1370  003A7C                     _OSCILLATOR_Initialize:
  1371                           	callstack 117
  1372  003A7C                     
  1373                           ;mcc_generated_files/mcc.c: 65:     OSCCON1 = 0x70;
  1374  003A7C  0E70               	movlw	112
  1375  003A7E  0100               	movlb	0	; () banked
  1376  003A80  6FAD               	movwf	173,b	;volatile
  1377                           
  1378                           ;mcc_generated_files/mcc.c: 67:     OSCCON3 = 0x00;
  1379  003A82  0E00               	movlw	0
  1380  003A84  6FAF               	movwf	175,b	;volatile
  1381                           
  1382                           ;mcc_generated_files/mcc.c: 69:     OSCEN = 0x00;
  1383  003A86  0E00               	movlw	0
  1384  003A88  6FB3               	movwf	179,b	;volatile
  1385                           
  1386                           ;mcc_generated_files/mcc.c: 71:     OSCFRQ = 0x02;
  1387  003A8A  0E02               	movlw	2
  1388  003A8C  6FB1               	movwf	177,b	;volatile
  1389                           
  1390                           ;mcc_generated_files/mcc.c: 73:     OSCTUNE = 0x00;
  1391  003A8E  0E00               	movlw	0
  1392  003A90  6FB0               	movwf	176,b	;volatile
  1393  003A92                     
  1394                           ; BSR set to: 0
  1395  003A92  0012               	return		;funcret
  1396  003A94                     __end_of_OSCILLATOR_Initialize:
  1397                           	callstack 0
  1398                           
  1399 ;; *************** function _INTERRUPT_Initialize *****************
  1400 ;; Defined at:
  1401 ;;		line 52 in file "mcc_generated_files/interrupt_manager.c"
  1402 ;; Parameters:    Size  Location     Type
  1403 ;;		None
  1404 ;; Auto vars:     Size  Location     Type
  1405 ;;		None
  1406 ;; Return value:  Size  Location     Type
  1407 ;;                  1    wreg      void 
  1408 ;; Registers used:
  1409 ;;		None
  1410 ;; Tracked objects:
  1411 ;;		On entry : 0/0
  1412 ;;		On exit  : 0/0
  1413 ;;		Unchanged: 0/0
  1414 ;; Data sizes:     COMRAM   BANK5   BANK6   BANK7   BANK8   BANK9  BANK10  BANK11  BANK12  BANK13  BANK14  BANK15  BANK1
      +6  BANK17  BANK18  BANK19  BANK20  BANK21  BANK22  BANK23  BANK24  BANK25  BANK26  BANK27  BANK28  BANK29  BANK30  BANK3
      +1  BANK32  BANK33  BANK34  BANK35  BANK36  BANK37
  1415 ;;      Params:         0       0       0       0       0       0       0       0       0       0       0       0       
      +0       0       0       0       0       0       0       0       0       0       0       0       0       0       0       
      +0       0       0       0       0       0       0
  1416 ;;      Locals:         0       0       0       0       0       0       0       0       0       0       0       0       
      +0       0       0       0       0       0       0       0       0       0       0       0       0       0       0       
      +0       0       0       0       0       0       0
  1417 ;;      Temps:          0       0       0       0       0       0       0       0       0       0       0       0       
      +0       0       0       0       0       0       0       0       0       0       0       0       0       0       0       
      +0       0       0       0       0       0       0
  1418 ;;      Totals:         0       0       0       0       0       0       0       0       0       0       0       0       
      +0       0       0       0       0       0       0       0       0       0       0       0       0       0       0       
      +0       0       0       0       0       0       0
  1419 ;;Total ram usage:        0 bytes
  1420 ;; Hardware stack levels used:    1
  1421 ;; Hardware stack levels required when called:    9
  1422 ;; This function calls:
  1423 ;;		Nothing
  1424 ;; This function is called by:
  1425 ;;		_SYSTEM_Initialize
  1426 ;; This function uses a non-reentrant model
  1427 ;;
  1428                           
  1429                           	psect	text9
  1430  003BCE                     __ptext9:
  1431                           	callstack 0
  1432  003BCE                     _INTERRUPT_Initialize:
  1433                           	callstack 117
  1434  003BCE                     
  1435                           ;mcc_generated_files/interrupt_manager.c: 55:     INTCON0bits.IPEN = 0;
  1436  003BCE  9AD6               	bcf	214,5,c	;volatile
  1437  003BD0  0012               	return		;funcret
  1438  003BD2                     __end_of_INTERRUPT_Initialize:
  1439                           	callstack 0
  1440                           
  1441 ;; *************** function _CAN1_Initialize *****************
  1442 ;; Defined at:
  1443 ;;		line 270 in file "mcc_generated_files/can1.c"
  1444 ;; Parameters:    Size  Location     Type
  1445 ;;		None
  1446 ;; Auto vars:     Size  Location     Type
  1447 ;;		None
  1448 ;; Return value:  Size  Location     Type
  1449 ;;                  1    wreg      void 
  1450 ;; Registers used:
  1451 ;;		wreg, fsr2l, fsr2h, status,2, status,0, prodl, prodh, cstack
  1452 ;; Tracked objects:
  1453 ;;		On entry : 0/0
  1454 ;;		On exit  : 0/0
  1455 ;;		Unchanged: 0/0
  1456 ;; Data sizes:     COMRAM   BANK5   BANK6   BANK7   BANK8   BANK9  BANK10  BANK11  BANK12  BANK13  BANK14  BANK15  BANK1
      +6  BANK17  BANK18  BANK19  BANK20  BANK21  BANK22  BANK23  BANK24  BANK25  BANK26  BANK27  BANK28  BANK29  BANK30  BANK3
      +1  BANK32  BANK33  BANK34  BANK35  BANK36  BANK37
  1457 ;;      Params:         0       0       0       0       0       0       0       0       0       0       0       0       
      +0       0       0       0       0       0       0       0       0       0       0       0       0       0       0       
      +0       0       0       0       0       0       0
  1458 ;;      Locals:         0       0       0       0       0       0       0       0       0       0       0       0       
      +0       0       0       0       0       0       0       0       0       0       0       0       0       0       0       
      +0       0       0       0       0       0       0
  1459 ;;      Temps:          0       0       0       0       0       0       0       0       0       0       0       0       
      +0       0       0       0       0       0       0       0       0       0       0       0       0       0       0       
      +0       0       0       0       0       0       0
  1460 ;;      Totals:         0       0       0       0       0       0       0       0       0       0       0       0       
      +0       0       0       0       0       0       0       0       0       0       0       0       0       0       0       
      +0       0       0       0       0       0       0
  1461 ;;Total ram usage:        0 bytes
  1462 ;; Hardware stack levels used:    1
  1463 ;; Hardware stack levels required when called:   11
  1464 ;; This function calls:
  1465 ;;		_CAN1_BitRateConfiguration
  1466 ;;		_CAN1_ErrorNotificationInterruptEnable
  1467 ;;		_CAN1_OperationModeSet
  1468 ;;		_CAN1_RX_FIFO_Configuration
  1469 ;;		_CAN1_RX_FIFO_FilterMaskConfiguration
  1470 ;;		_CAN1_RX_FIFO_ResetInfo
  1471 ;;		_CAN1_TX_FIFO_Configuration
  1472 ;; This function is called by:
  1473 ;;		_SYSTEM_Initialize
  1474 ;; This function uses a non-reentrant model
  1475 ;;
  1476                           
  1477                           	psect	text10
  1478  003630                     __ptext10:
  1479                           	callstack 0
  1480  003630                     _CAN1_Initialize:
  1481                           	callstack 115
  1482  003630                     
  1483                           ;mcc_generated_files/can1.c: 273:     C1CONHbits.ON = 1;
  1484  003630  0101               	movlb	1	; () banked
  1485  003632  8F01               	bsf	1,7,b	;volatile
  1486  003634                     
  1487                           ; BSR set to: 1
  1488                           ;mcc_generated_files/can1.c: 275:     if (CAN_OP_MODE_REQUEST_SUCCESS == CAN1_OperationM
      +                          odeSet(CAN_CONFIGURATION_MODE))
  1489  003634  0E04               	movlw	4
  1490  003636  ECAA  F019         	call	_CAN1_OperationModeSet
  1491  00363A  0900               	iorlw	0
  1492  00363C  A4D8               	btfss	status,2,c
  1493  00363E  EF23  F01B         	goto	u1861
  1494  003642  EF25  F01B         	goto	u1860
  1495  003646                     u1861:
  1496  003646  EF43  F01B         	goto	l188
  1497  00364A                     u1860:
  1498  00364A                     
  1499                           ;mcc_generated_files/can1.c: 276:     {;mcc_generated_files/can1.c: 278:         C1FIFOB
      +                          A = 0x2600;
  1500  00364A  0E00               	movlw	0
  1501  00364C  0101               	movlb	1	; () banked
  1502  00364E  6F4C               	movwf	76,b	;volatile
  1503  003650  0E26               	movlw	38
  1504  003652  6F4D               	movwf	77,b	;volatile
  1505  003654  0E00               	movlw	0
  1506  003656  6F4E               	movwf	78,b	;volatile
  1507  003658  0E00               	movlw	0
  1508  00365A  6F4F               	movwf	79,b	;volatile
  1509                           
  1510                           ;mcc_generated_files/can1.c: 281:         C1CONL = 0x60;
  1511  00365C  0E60               	movlw	96
  1512  00365E  6F00               	movwf	0,b	;volatile
  1513                           
  1514                           ;mcc_generated_files/can1.c: 284:         C1CONH = 0x97;
  1515  003660  0E97               	movlw	151
  1516  003662  6F01               	movwf	1,b	;volatile
  1517                           
  1518                           ;mcc_generated_files/can1.c: 287:         C1CONU = 0x10;
  1519  003664  0E10               	movlw	16
  1520  003666  6F02               	movwf	2,b	;volatile
  1521  003668                     
  1522                           ; BSR set to: 1
  1523                           ;mcc_generated_files/can1.c: 289:         CAN1_BitRateConfiguration();
  1524  003668  EC98  F01D         	call	_CAN1_BitRateConfiguration	;wreg free
  1525  00366C                     
  1526                           ;mcc_generated_files/can1.c: 290:         CAN1_TX_FIFO_Configuration();
  1527  00366C  EC8E  F01D         	call	_CAN1_TX_FIFO_Configuration	;wreg free
  1528  003670                     
  1529                           ;mcc_generated_files/can1.c: 291:         CAN1_RX_FIFO_Configuration();
  1530  003670  EC89  F01C         	call	_CAN1_RX_FIFO_Configuration	;wreg free
  1531  003674                     
  1532                           ;mcc_generated_files/can1.c: 292:         CAN1_RX_FIFO_FilterMaskConfiguration();
  1533  003674  EC01  F01D         	call	_CAN1_RX_FIFO_FilterMaskConfiguration	;wreg free
  1534  003678                     
  1535                           ;mcc_generated_files/can1.c: 293:         CAN1_RX_FIFO_ResetInfo();
  1536  003678  EC2D  F01C         	call	_CAN1_RX_FIFO_ResetInfo	;wreg free
  1537  00367C                     
  1538                           ;mcc_generated_files/can1.c: 294:         CAN1_ErrorNotificationInterruptEnable();
  1539  00367C  EC80  F01A         	call	_CAN1_ErrorNotificationInterruptEnable	;wreg free
  1540  003680                     
  1541                           ;mcc_generated_files/can1.c: 295:         CAN1_OperationModeSet(CAN_NORMAL_2_0_MODE);
  1542  003680  0E06               	movlw	6
  1543  003682  ECAA  F019         	call	_CAN1_OperationModeSet
  1544  003686                     l188:
  1545  003686  0012               	return		;funcret
  1546  003688                     __end_of_CAN1_Initialize:
  1547                           	callstack 0
  1548                           
  1549 ;; *************** function _CAN1_TX_FIFO_Configuration *****************
  1550 ;; Defined at:
  1551 ;;		line 212 in file "mcc_generated_files/can1.c"
  1552 ;; Parameters:    Size  Location     Type
  1553 ;;		None
  1554 ;; Auto vars:     Size  Location     Type
  1555 ;;		None
  1556 ;; Return value:  Size  Location     Type
  1557 ;;                  1    wreg      void 
  1558 ;; Registers used:
  1559 ;;		wreg, status,2
  1560 ;; Tracked objects:
  1561 ;;		On entry : 0/0
  1562 ;;		On exit  : 0/0
  1563 ;;		Unchanged: 0/0
  1564 ;; Data sizes:     COMRAM   BANK5   BANK6   BANK7   BANK8   BANK9  BANK10  BANK11  BANK12  BANK13  BANK14  BANK15  BANK1
      +6  BANK17  BANK18  BANK19  BANK20  BANK21  BANK22  BANK23  BANK24  BANK25  BANK26  BANK27  BANK28  BANK29  BANK30  BANK3
      +1  BANK32  BANK33  BANK34  BANK35  BANK36  BANK37
  1565 ;;      Params:         0       0       0       0       0       0       0       0       0       0       0       0       
      +0       0       0       0       0       0       0       0       0       0       0       0       0       0       0       
      +0       0       0       0       0       0       0
  1566 ;;      Locals:         0       0       0       0       0       0       0       0       0       0       0       0       
      +0       0       0       0       0       0       0       0       0       0       0       0       0       0       0       
      +0       0       0       0       0       0       0
  1567 ;;      Temps:          0       0       0       0       0       0       0       0       0       0       0       0       
      +0       0       0       0       0       0       0       0       0       0       0       0       0       0       0       
      +0       0       0       0       0       0       0
  1568 ;;      Totals:         0       0       0       0       0       0       0       0       0       0       0       0       
      +0       0       0       0       0       0       0       0       0       0       0       0       0       0       0       
      +0       0       0       0       0       0       0
  1569 ;;Total ram usage:        0 bytes
  1570 ;; Hardware stack levels used:    1
  1571 ;; Hardware stack levels required when called:    9
  1572 ;; This function calls:
  1573 ;;		Nothing
  1574 ;; This function is called by:
  1575 ;;		_CAN1_Initialize
  1576 ;; This function uses a non-reentrant model
  1577 ;;
  1578                           
  1579                           	psect	text11
  1580  003B1C                     __ptext11:
  1581                           	callstack 0
  1582  003B1C                     _CAN1_TX_FIFO_Configuration:
  1583                           	callstack 116
  1584  003B1C                     
  1585                           ;mcc_generated_files/can1.c: 215:     C1TXQCONL = 0x10;
  1586  003B1C  0E10               	movlw	16
  1587  003B1E  0101               	movlb	1	; () banked
  1588  003B20  6F50               	movwf	80,b	;volatile
  1589                           
  1590                           ;mcc_generated_files/can1.c: 218:     C1TXQCONH = 0x04;
  1591  003B22  0E04               	movlw	4
  1592  003B24  6F51               	movwf	81,b	;volatile
  1593                           
  1594                           ;mcc_generated_files/can1.c: 221:     C1TXQCONU = 0x61;
  1595  003B26  0E61               	movlw	97
  1596  003B28  6F52               	movwf	82,b	;volatile
  1597                           
  1598                           ;mcc_generated_files/can1.c: 224:     C1TXQCONT = 0x05;
  1599  003B2A  0E05               	movlw	5
  1600  003B2C  6F53               	movwf	83,b	;volatile
  1601  003B2E                     
  1602                           ; BSR set to: 1
  1603  003B2E  0012               	return		;funcret
  1604  003B30                     __end_of_CAN1_TX_FIFO_Configuration:
  1605                           	callstack 0
  1606                           
  1607 ;; *************** function _CAN1_RX_FIFO_ResetInfo *****************
  1608 ;; Defined at:
  1609 ;;		line 152 in file "mcc_generated_files/can1.c"
  1610 ;; Parameters:    Size  Location     Type
  1611 ;;		None
  1612 ;; Auto vars:     Size  Location     Type
  1613 ;;  index           1    0[BANK5 ] unsigned char 
  1614 ;; Return value:  Size  Location     Type
  1615 ;;                  1    wreg      void 
  1616 ;; Registers used:
  1617 ;;		wreg, fsr2l, fsr2h, status,2, status,0, prodl, prodh
  1618 ;; Tracked objects:
  1619 ;;		On entry : 0/0
  1620 ;;		On exit  : 0/0
  1621 ;;		Unchanged: 0/0
  1622 ;; Data sizes:     COMRAM   BANK5   BANK6   BANK7   BANK8   BANK9  BANK10  BANK11  BANK12  BANK13  BANK14  BANK15  BANK1
      +6  BANK17  BANK18  BANK19  BANK20  BANK21  BANK22  BANK23  BANK24  BANK25  BANK26  BANK27  BANK28  BANK29  BANK30  BANK3
      +1  BANK32  BANK33  BANK34  BANK35  BANK36  BANK37
  1623 ;;      Params:         0       0       0       0       0       0       0       0       0       0       0       0       
      +0       0       0       0       0       0       0       0       0       0       0       0       0       0       0       
      +0       0       0       0       0       0       0
  1624 ;;      Locals:         0       1       0       0       0       0       0       0       0       0       0       0       
      +0       0       0       0       0       0       0       0       0       0       0       0       0       0       0       
      +0       0       0       0       0       0       0
  1625 ;;      Temps:          0       0       0       0       0       0       0       0       0       0       0       0       
      +0       0       0       0       0       0       0       0       0       0       0       0       0       0       0       
      +0       0       0       0       0       0       0
  1626 ;;      Totals:         0       1       0       0       0       0       0       0       0       0       0       0       
      +0       0       0       0       0       0       0       0       0       0       0       0       0       0       0       
      +0       0       0       0       0       0       0
  1627 ;;Total ram usage:        1 bytes
  1628 ;; Hardware stack levels used:    1
  1629 ;; Hardware stack levels required when called:    9
  1630 ;; This function calls:
  1631 ;;		Nothing
  1632 ;; This function is called by:
  1633 ;;		_CAN1_Initialize
  1634 ;; This function uses a non-reentrant model
  1635 ;;
  1636                           
  1637                           	psect	text12
  1638  00385A                     __ptext12:
  1639                           	callstack 0
  1640  00385A                     _CAN1_RX_FIFO_ResetInfo:
  1641                           	callstack 116
  1642  00385A                     
  1643                           ;mcc_generated_files/can1.c: 154:     uint8_t index;;mcc_generated_files/can1.c: 156:   
      +                            for (index = 0; index < (1U); index++)
  1644  00385A  0E00               	movlw	0
  1645  00385C  0105               	movlb	5	; () banked
  1646  00385E  6F82               	movwf	CAN1_RX_FIFO_ResetInfo@index& (0+255),b
  1647  003860                     l2918:
  1648                           
  1649                           ; BSR set to: 5
  1650                           ;mcc_generated_files/can1.c: 157:     {;mcc_generated_files/can1.c: 158:         rxFifos
      +                          [index].fifoHead = 0;
  1651  003860  5182               	movf	CAN1_RX_FIFO_ResetInfo@index& (0+255),w,b
  1652  003862  0D02               	mullw	2
  1653  003864  0E87               	movlw	low (_rxFifos+1)
  1654  003866  24F3               	addwf	243,w,c
  1655  003868  6ED9               	movwf	fsr2l,c
  1656  00386A  0E05               	movlw	high (_rxFifos+1)
  1657  00386C  20F4               	addwfc	prodh,w,c
  1658  00386E  6EDA               	movwf	fsr2h,c
  1659  003870  0E00               	movlw	0
  1660  003872  6EDF               	movwf	indf2,c
  1661  003874                     
  1662                           ; BSR set to: 5
  1663                           ;mcc_generated_files/can1.c: 159:     }
  1664  003874  2B82               	incf	CAN1_RX_FIFO_ResetInfo@index& (0+255),f,b
  1665  003876                     
  1666                           ; BSR set to: 5
  1667  003876  5182               	movf	CAN1_RX_FIFO_ResetInfo@index& (0+255),w,b
  1668  003878  B4D8               	btfsc	status,2,c
  1669  00387A  EF41  F01C         	goto	u1801
  1670  00387E  EF43  F01C         	goto	u1800
  1671  003882                     u1801:
  1672  003882  EF30  F01C         	goto	l2918
  1673  003886                     u1800:
  1674  003886                     
  1675                           ; BSR set to: 5
  1676  003886  0012               	return		;funcret
  1677  003888                     __end_of_CAN1_RX_FIFO_ResetInfo:
  1678                           	callstack 0
  1679                           
  1680 ;; *************** function _CAN1_RX_FIFO_FilterMaskConfiguration *****************
  1681 ;; Defined at:
  1682 ;;		line 184 in file "mcc_generated_files/can1.c"
  1683 ;; Parameters:    Size  Location     Type
  1684 ;;		None
  1685 ;; Auto vars:     Size  Location     Type
  1686 ;;		None
  1687 ;; Return value:  Size  Location     Type
  1688 ;;                  1    wreg      void 
  1689 ;; Registers used:
  1690 ;;		wreg, status,2
  1691 ;; Tracked objects:
  1692 ;;		On entry : 0/0
  1693 ;;		On exit  : 0/0
  1694 ;;		Unchanged: 0/0
  1695 ;; Data sizes:     COMRAM   BANK5   BANK6   BANK7   BANK8   BANK9  BANK10  BANK11  BANK12  BANK13  BANK14  BANK15  BANK1
      +6  BANK17  BANK18  BANK19  BANK20  BANK21  BANK22  BANK23  BANK24  BANK25  BANK26  BANK27  BANK28  BANK29  BANK30  BANK3
      +1  BANK32  BANK33  BANK34  BANK35  BANK36  BANK37
  1696 ;;      Params:         0       0       0       0       0       0       0       0       0       0       0       0       
      +0       0       0       0       0       0       0       0       0       0       0       0       0       0       0       
      +0       0       0       0       0       0       0
  1697 ;;      Locals:         0       0       0       0       0       0       0       0       0       0       0       0       
      +0       0       0       0       0       0       0       0       0       0       0       0       0       0       0       
      +0       0       0       0       0       0       0
  1698 ;;      Temps:          0       0       0       0       0       0       0       0       0       0       0       0       
      +0       0       0       0       0       0       0       0       0       0       0       0       0       0       0       
      +0       0       0       0       0       0       0
  1699 ;;      Totals:         0       0       0       0       0       0       0       0       0       0       0       0       
      +0       0       0       0       0       0       0       0       0       0       0       0       0       0       0       
      +0       0       0       0       0       0       0
  1700 ;;Total ram usage:        0 bytes
  1701 ;; Hardware stack levels used:    1
  1702 ;; Hardware stack levels required when called:    9
  1703 ;; This function calls:
  1704 ;;		Nothing
  1705 ;; This function is called by:
  1706 ;;		_CAN1_Initialize
  1707 ;; This function uses a non-reentrant model
  1708 ;;
  1709                           
  1710                           	psect	text13
  1711  003A02                     __ptext13:
  1712                           	callstack 0
  1713  003A02                     _CAN1_RX_FIFO_FilterMaskConfiguration:
  1714                           	callstack 116
  1715  003A02                     
  1716                           ;mcc_generated_files/can1.c: 199:     C1FLTOBJ1L = 0x5F;
  1717  003A02  0E5F               	movlw	95
  1718  003A04  0101               	movlb	1	; () banked
  1719  003A06  6F94               	movwf	148,b	;volatile
  1720  003A08                     
  1721                           ; BSR set to: 1
  1722                           ;mcc_generated_files/can1.c: 200:     C1FLTOBJ1H = 0xFF;
  1723  003A08  6995               	setf	149,b	;volatile
  1724  003A0A                     
  1725                           ; BSR set to: 1
  1726                           ;mcc_generated_files/can1.c: 201:     C1FLTOBJ1U = 0xFF;
  1727  003A0A  6996               	setf	150,b	;volatile
  1728  003A0C                     
  1729                           ; BSR set to: 1
  1730                           ;mcc_generated_files/can1.c: 202:     C1FLTOBJ1T = 0xFF;
  1731  003A0C  6997               	setf	151,b	;volatile
  1732                           
  1733                           ;mcc_generated_files/can1.c: 204:     C1MASK1L = 0x00;
  1734  003A0E  0E00               	movlw	0
  1735  003A10  6F98               	movwf	152,b	;volatile
  1736                           
  1737                           ;mcc_generated_files/can1.c: 205:     C1MASK1H = 0x00;
  1738  003A12  0E00               	movlw	0
  1739  003A14  6F99               	movwf	153,b	;volatile
  1740                           
  1741                           ;mcc_generated_files/can1.c: 206:     C1MASK1U = 0x00;
  1742  003A16  0E00               	movlw	0
  1743  003A18  6F9A               	movwf	154,b	;volatile
  1744                           
  1745                           ;mcc_generated_files/can1.c: 207:     C1MASK1T = 0x00;
  1746  003A1A  0E00               	movlw	0
  1747  003A1C  6F9B               	movwf	155,b	;volatile
  1748                           
  1749                           ;mcc_generated_files/can1.c: 208:     C1FLTCON0H = 0x81;
  1750  003A1E  0E81               	movlw	129
  1751  003A20  6F81               	movwf	129,b	;volatile
  1752  003A22                     
  1753                           ; BSR set to: 1
  1754  003A22  0012               	return		;funcret
  1755  003A24                     __end_of_CAN1_RX_FIFO_FilterMaskConfiguration:
  1756                           	callstack 0
  1757                           
  1758 ;; *************** function _CAN1_RX_FIFO_Configuration *****************
  1759 ;; Defined at:
  1760 ;;		line 162 in file "mcc_generated_files/can1.c"
  1761 ;; Parameters:    Size  Location     Type
  1762 ;;		None
  1763 ;; Auto vars:     Size  Location     Type
  1764 ;;		None
  1765 ;; Return value:  Size  Location     Type
  1766 ;;                  1    wreg      void 
  1767 ;; Registers used:
  1768 ;;		wreg, status,2, status,0, cstack
  1769 ;; Tracked objects:
  1770 ;;		On entry : 0/0
  1771 ;;		On exit  : 0/0
  1772 ;;		Unchanged: 0/0
  1773 ;; Data sizes:     COMRAM   BANK5   BANK6   BANK7   BANK8   BANK9  BANK10  BANK11  BANK12  BANK13  BANK14  BANK15  BANK1
      +6  BANK17  BANK18  BANK19  BANK20  BANK21  BANK22  BANK23  BANK24  BANK25  BANK26  BANK27  BANK28  BANK29  BANK30  BANK3
      +1  BANK32  BANK33  BANK34  BANK35  BANK36  BANK37
  1774 ;;      Params:         0       0       0       0       0       0       0       0       0       0       0       0       
      +0       0       0       0       0       0       0       0       0       0       0       0       0       0       0       
      +0       0       0       0       0       0       0
  1775 ;;      Locals:         0       0       0       0       0       0       0       0       0       0       0       0       
      +0       0       0       0       0       0       0       0       0       0       0       0       0       0       0       
      +0       0       0       0       0       0       0
  1776 ;;      Temps:          0       0       0       0       0       0       0       0       0       0       0       0       
      +0       0       0       0       0       0       0       0       0       0       0       0       0       0       0       
      +0       0       0       0       0       0       0
  1777 ;;      Totals:         0       0       0       0       0       0       0       0       0       0       0       0       
      +0       0       0       0       0       0       0       0       0       0       0       0       0       0       0       
      +0       0       0       0       0       0       0
  1778 ;;Total ram usage:        0 bytes
  1779 ;; Hardware stack levels used:    1
  1780 ;; Hardware stack levels required when called:   10
  1781 ;; This function calls:
  1782 ;;		_CAN1_SetFIFO1NotEmptyHandler
  1783 ;; This function is called by:
  1784 ;;		_CAN1_Initialize
  1785 ;; This function uses a non-reentrant model
  1786 ;;
  1787                           
  1788                           	psect	text14
  1789  003912                     __ptext14:
  1790                           	callstack 0
  1791  003912                     _CAN1_RX_FIFO_Configuration:
  1792                           	callstack 115
  1793  003912                     
  1794                           ;mcc_generated_files/can1.c: 165:     C1FIFOCON1L = 0x19;
  1795  003912  0E19               	movlw	25
  1796  003914  0101               	movlb	1	; () banked
  1797  003916  6F5C               	movwf	92,b	;volatile
  1798                           
  1799                           ;mcc_generated_files/can1.c: 168:     C1FIFOCON1H = 0x04;
  1800  003918  0E04               	movlw	4
  1801  00391A  6F5D               	movwf	93,b	;volatile
  1802                           
  1803                           ;mcc_generated_files/can1.c: 171:     C1FIFOCON1U = 0x60;
  1804  00391C  0E60               	movlw	96
  1805  00391E  6F5E               	movwf	94,b	;volatile
  1806                           
  1807                           ;mcc_generated_files/can1.c: 174:     C1FIFOCON1T = 0x05;
  1808  003920  0E05               	movlw	5
  1809  003922  6F5F               	movwf	95,b	;volatile
  1810  003924                     
  1811                           ; BSR set to: 1
  1812                           ;mcc_generated_files/can1.c: 176:     CAN1_SetFIFO1NotEmptyHandler(DefaultFIFO1NotEmptyH
      +                          andler);
  1813  003924  0EC8               	movlw	low _DefaultFIFO1NotEmptyHandler
  1814  003926  0105               	movlb	5	; () banked
  1815  003928  6F82               	movwf	CAN1_SetFIFO1NotEmptyHandler@handler& (0+255),b
  1816  00392A  0E3B               	movlw	high _DefaultFIFO1NotEmptyHandler
  1817  00392C  6F83               	movwf	(CAN1_SetFIFO1NotEmptyHandler@handler+1)& (0+255),b
  1818  00392E  ECAC  F01D         	call	_CAN1_SetFIFO1NotEmptyHandler	;wreg free
  1819  003932                     
  1820                           ;mcc_generated_files/can1.c: 178:     C1INTUbits.RXIE = 1;
  1821  003932  0101               	movlb	1	; () banked
  1822  003934  831E               	bsf	30,1,b	;volatile
  1823  003936                     
  1824                           ; BSR set to: 1
  1825                           ;mcc_generated_files/can1.c: 180:     PIR4bits.CANRXIF = 0;
  1826  003936  98B2               	bcf	178,4,c	;volatile
  1827  003938                     
  1828                           ; BSR set to: 1
  1829                           ;mcc_generated_files/can1.c: 181:     PIE4bits.CANRXIE = 1;
  1830  003938  88A2               	bsf	162,4,c	;volatile
  1831  00393A                     
  1832                           ; BSR set to: 1
  1833  00393A  0012               	return		;funcret
  1834  00393C                     __end_of_CAN1_RX_FIFO_Configuration:
  1835                           	callstack 0
  1836                           
  1837 ;; *************** function _CAN1_SetFIFO1NotEmptyHandler *****************
  1838 ;; Defined at:
  1839 ;;		line 732 in file "mcc_generated_files/can1.c"
  1840 ;; Parameters:    Size  Location     Type
  1841 ;;  handler         2    0[BANK5 ] PTR FTN()void 
  1842 ;;		 -> DefaultFIFO1NotEmptyHandler(1), 
  1843 ;; Auto vars:     Size  Location     Type
  1844 ;;		None
  1845 ;; Return value:  Size  Location     Type
  1846 ;;                  1    wreg      void 
  1847 ;; Registers used:
  1848 ;;		wreg, status,2, status,0
  1849 ;; Tracked objects:
  1850 ;;		On entry : 0/0
  1851 ;;		On exit  : 0/0
  1852 ;;		Unchanged: 0/0
  1853 ;; Data sizes:     COMRAM   BANK5   BANK6   BANK7   BANK8   BANK9  BANK10  BANK11  BANK12  BANK13  BANK14  BANK15  BANK1
      +6  BANK17  BANK18  BANK19  BANK20  BANK21  BANK22  BANK23  BANK24  BANK25  BANK26  BANK27  BANK28  BANK29  BANK30  BANK3
      +1  BANK32  BANK33  BANK34  BANK35  BANK36  BANK37
  1854 ;;      Params:         0       2       0       0       0       0       0       0       0       0       0       0       
      +0       0       0       0       0       0       0       0       0       0       0       0       0       0       0       
      +0       0       0       0       0       0       0
  1855 ;;      Locals:         0       0       0       0       0       0       0       0       0       0       0       0       
      +0       0       0       0       0       0       0       0       0       0       0       0       0       0       0       
      +0       0       0       0       0       0       0
  1856 ;;      Temps:          0       0       0       0       0       0       0       0       0       0       0       0       
      +0       0       0       0       0       0       0       0       0       0       0       0       0       0       0       
      +0       0       0       0       0       0       0
  1857 ;;      Totals:         0       2       0       0       0       0       0       0       0       0       0       0       
      +0       0       0       0       0       0       0       0       0       0       0       0       0       0       0       
      +0       0       0       0       0       0       0
  1858 ;;Total ram usage:        2 bytes
  1859 ;; Hardware stack levels used:    1
  1860 ;; Hardware stack levels required when called:    9
  1861 ;; This function calls:
  1862 ;;		Nothing
  1863 ;; This function is called by:
  1864 ;;		_CAN1_RX_FIFO_Configuration
  1865 ;; This function uses a non-reentrant model
  1866 ;;
  1867                           
  1868                           	psect	text15
  1869  003B58                     __ptext15:
  1870                           	callstack 0
  1871  003B58                     _CAN1_SetFIFO1NotEmptyHandler:
  1872                           	callstack 115
  1873  003B58                     
  1874                           ;mcc_generated_files/can1.c: 732: void CAN1_SetFIFO1NotEmptyHandler(void (*handler)(void
      +                          ));mcc_generated_files/can1.c: 733: {;mcc_generated_files/can1.c: 734:     CAN1_FIFO1Not
      +                          EmptyHandler = handler;
  1875  003B58  C582  F548         	movff	CAN1_SetFIFO1NotEmptyHandler@handler,_CAN1_FIFO1NotEmptyHandler
  1876  003B5C  C583  F549         	movff	CAN1_SetFIFO1NotEmptyHandler@handler+1,_CAN1_FIFO1NotEmptyHandler+1
  1877  003B60  0012               	return		;funcret
  1878  003B62                     __end_of_CAN1_SetFIFO1NotEmptyHandler:
  1879                           	callstack 0
  1880                           
  1881 ;; *************** function _CAN1_OperationModeSet *****************
  1882 ;; Defined at:
  1883 ;;		line 299 in file "mcc_generated_files/can1.c"
  1884 ;; Parameters:    Size  Location     Type
  1885 ;;  requestMode     1    wreg     const enum E22346
  1886 ;; Auto vars:     Size  Location     Type
  1887 ;;  requestMode     1    2[BANK5 ] const enum E22346
  1888 ;;  status          1    1[BANK5 ] enum E22356
  1889 ;;  opMode          1    0[BANK5 ] enum E22346
  1890 ;; Return value:  Size  Location     Type
  1891 ;;                  1    wreg      enum E22356
  1892 ;; Registers used:
  1893 ;;		wreg, status,2, status,0, cstack
  1894 ;; Tracked objects:
  1895 ;;		On entry : 0/0
  1896 ;;		On exit  : 0/0
  1897 ;;		Unchanged: 0/0
  1898 ;; Data sizes:     COMRAM   BANK5   BANK6   BANK7   BANK8   BANK9  BANK10  BANK11  BANK12  BANK13  BANK14  BANK15  BANK1
      +6  BANK17  BANK18  BANK19  BANK20  BANK21  BANK22  BANK23  BANK24  BANK25  BANK26  BANK27  BANK28  BANK29  BANK30  BANK3
      +1  BANK32  BANK33  BANK34  BANK35  BANK36  BANK37
  1899 ;;      Params:         0       0       0       0       0       0       0       0       0       0       0       0       
      +0       0       0       0       0       0       0       0       0       0       0       0       0       0       0       
      +0       0       0       0       0       0       0
  1900 ;;      Locals:         0       3       0       0       0       0       0       0       0       0       0       0       
      +0       0       0       0       0       0       0       0       0       0       0       0       0       0       0       
      +0       0       0       0       0       0       0
  1901 ;;      Temps:          0       0       0       0       0       0       0       0       0       0       0       0       
      +0       0       0       0       0       0       0       0       0       0       0       0       0       0       0       
      +0       0       0       0       0       0       0
  1902 ;;      Totals:         0       3       0       0       0       0       0       0       0       0       0       0       
      +0       0       0       0       0       0       0       0       0       0       0       0       0       0       0       
      +0       0       0       0       0       0       0
  1903 ;;Total ram usage:        3 bytes
  1904 ;; Hardware stack levels used:    1
  1905 ;; Hardware stack levels required when called:   10
  1906 ;; This function calls:
  1907 ;;		_CAN1_OperationModeGet
  1908 ;; This function is called by:
  1909 ;;		_CAN1_Initialize
  1910 ;;		_CAN1_Sleep
  1911 ;; This function uses a non-reentrant model
  1912 ;;
  1913                           
  1914                           	psect	text16
  1915  003354                     __ptext16:
  1916                           	callstack 0
  1917  003354                     _CAN1_OperationModeSet:
  1918                           	callstack 115
  1919                           
  1920                           ;incstack = 0
  1921                           ;CAN1_OperationModeSet@requestMode stored from wreg
  1922  003354  0105               	movlb	5	; () banked
  1923  003356  6F84               	movwf	CAN1_OperationModeSet@requestMode& (0+255),b
  1924  003358                     
  1925                           ;mcc_generated_files/can1.c: 299: CAN_OP_MODE_STATUS CAN1_OperationModeSet(const CAN_OP_
      +                          MODES requestMode);mcc_generated_files/can1.c: 300: {;mcc_generated_files/can1.c: 301:  
      +                             CAN_OP_MODE_STATUS status = CAN_OP_MODE_REQUEST_SUCCESS;
  1926  003358  0E00               	movlw	0
  1927  00335A  0105               	movlb	5	; () banked
  1928  00335C  6F83               	movwf	CAN1_OperationModeSet@status& (0+255),b
  1929  00335E                     
  1930                           ; BSR set to: 5
  1931                           ;mcc_generated_files/can1.c: 302:     CAN_OP_MODES opMode = CAN1_OperationModeGet();
  1932  00335E  ECB1  F01D         	call	_CAN1_OperationModeGet	;wreg free
  1933  003362  0105               	movlb	5	; () banked
  1934  003364  6F82               	movwf	CAN1_OperationModeSet@opMode& (0+255),b
  1935  003366                     
  1936                           ; BSR set to: 5
  1937                           ;mcc_generated_files/can1.c: 304:     if (CAN_CONFIGURATION_MODE == opMode
  1938  003366  0E04               	movlw	4
  1939  003368  1982               	xorwf	CAN1_OperationModeSet@opMode& (0+255),w,b
  1940  00336A  B4D8               	btfsc	status,2,c
  1941  00336C  EFBA  F019         	goto	u1811
  1942  003370  EFBC  F019         	goto	u1810
  1943  003374                     u1811:
  1944  003374  EFCD  F019         	goto	l2970
  1945  003378                     u1810:
  1946  003378                     
  1947                           ; BSR set to: 5
  1948  003378  0584               	decf	CAN1_OperationModeSet@requestMode& (0+255),w,b
  1949  00337A  B4D8               	btfsc	status,2,c
  1950  00337C  EFC2  F019         	goto	u1821
  1951  003380  EFC4  F019         	goto	u1820
  1952  003384                     u1821:
  1953  003384  EFCD  F019         	goto	l2970
  1954  003388                     u1820:
  1955  003388                     
  1956                           ; BSR set to: 5
  1957  003388  0E04               	movlw	4
  1958  00338A  1984               	xorwf	CAN1_OperationModeSet@requestMode& (0+255),w,b
  1959  00338C  A4D8               	btfss	status,2,c
  1960  00338E  EFCB  F019         	goto	u1831
  1961  003392  EFCD  F019         	goto	u1830
  1962  003396                     u1831:
  1963  003396  EFF2  F019         	goto	l2976
  1964  00339A                     u1830:
  1965  00339A                     l2970:
  1966                           
  1967                           ; BSR set to: 5
  1968                           ;mcc_generated_files/can1.c: 307:     {;mcc_generated_files/can1.c: 308:         C1CONTb
      +                          its.REQOP = requestMode;
  1969  00339A  0101               	movlb	1	; () banked
  1970  00339C  5103               	movf	3,w,b	;volatile
  1971  00339E  0105               	movlb	5	; () banked
  1972  0033A0  1984               	xorwf	CAN1_OperationModeSet@requestMode& (0+255),w,b
  1973  0033A2  0BF8               	andlw	-8
  1974  0033A4  1984               	xorwf	CAN1_OperationModeSet@requestMode& (0+255),w,b
  1975  0033A6  0101               	movlb	1	; () banked
  1976  0033A8  6F03               	movwf	3,b	;volatile
  1977                           
  1978                           ;mcc_generated_files/can1.c: 310:         while (C1CONUbits.OPMOD != requestMode)
  1979  0033AA  EFE4  F019         	goto	l2974
  1980  0033AE                     l195:
  1981                           
  1982                           ; BSR set to: 5
  1983                           ;mcc_generated_files/can1.c: 311:         {;mcc_generated_files/can1.c: 313:            
      +                           if (1 == C1INTHbits.SERRIF)
  1984  0033AE  0101               	movlb	1	; () banked
  1985  0033B0  A91D               	btfss	29,4,b	;volatile
  1986  0033B2  EFDD  F019         	goto	u1841
  1987  0033B6  EFDF  F019         	goto	u1840
  1988  0033BA                     u1841:
  1989  0033BA  EFE4  F019         	goto	l2974
  1990  0033BE                     u1840:
  1991  0033BE                     
  1992                           ; BSR set to: 1
  1993                           ;mcc_generated_files/can1.c: 314:             {;mcc_generated_files/can1.c: 315:        
      +                                   status = CAN_OP_MODE_SYS_ERROR_OCCURED;
  1994  0033BE  0E02               	movlw	2
  1995  0033C0  0105               	movlb	5	; () banked
  1996  0033C2  6F83               	movwf	CAN1_OperationModeSet@status& (0+255),b
  1997                           
  1998                           ;mcc_generated_files/can1.c: 316:                 break;
  1999  0033C4  EFF4  F019         	goto	l198
  2000  0033C8                     l2974:
  2001                           
  2002                           ; BSR set to: 1
  2003                           ;mcc_generated_files/can1.c: 310:         while (C1CONUbits.OPMOD != requestMode)
  2004  0033C8  3902               	swapf	2,w,b	;volatile
  2005  0033CA  32E8               	rrcf	wreg,f,c
  2006  0033CC  0B07               	andlw	7
  2007  0033CE  0105               	movlb	5	; () banked
  2008  0033D0  1984               	xorwf	CAN1_OperationModeSet@requestMode& (0+255),w,b
  2009  0033D2  A4D8               	btfss	status,2,c
  2010  0033D4  EFEE  F019         	goto	u1851
  2011  0033D8  EFF0  F019         	goto	u1850
  2012  0033DC                     u1851:
  2013  0033DC  EFD7  F019         	goto	l195
  2014  0033E0                     u1850:
  2015  0033E0  EFF4  F019         	goto	l198
  2016  0033E4                     l2976:
  2017                           
  2018                           ; BSR set to: 5
  2019                           ;mcc_generated_files/can1.c: 321:     {;mcc_generated_files/can1.c: 322:         status 
      +                          = CAN_OP_MODE_REQUEST_FAIL;
  2020  0033E4  0E01               	movlw	1
  2021  0033E6  6F83               	movwf	CAN1_OperationModeSet@status& (0+255),b
  2022  0033E8                     l198:
  2023                           
  2024                           ; BSR set to: 5
  2025                           ;mcc_generated_files/can1.c: 325:     return status;
  2026  0033E8  5183               	movf	CAN1_OperationModeSet@status& (0+255),w,b
  2027  0033EA                     
  2028                           ; BSR set to: 5
  2029  0033EA  0012               	return		;funcret
  2030  0033EC                     __end_of_CAN1_OperationModeSet:
  2031                           	callstack 0
  2032                           
  2033 ;; *************** function _CAN1_OperationModeGet *****************
  2034 ;; Defined at:
  2035 ;;		line 328 in file "mcc_generated_files/can1.c"
  2036 ;; Parameters:    Size  Location     Type
  2037 ;;		None
  2038 ;; Auto vars:     Size  Location     Type
  2039 ;;		None
  2040 ;; Return value:  Size  Location     Type
  2041 ;;                  1    wreg      enum E22346
  2042 ;; Registers used:
  2043 ;;		wreg, status,2, status,0
  2044 ;; Tracked objects:
  2045 ;;		On entry : 0/0
  2046 ;;		On exit  : 0/0
  2047 ;;		Unchanged: 0/0
  2048 ;; Data sizes:     COMRAM   BANK5   BANK6   BANK7   BANK8   BANK9  BANK10  BANK11  BANK12  BANK13  BANK14  BANK15  BANK1
      +6  BANK17  BANK18  BANK19  BANK20  BANK21  BANK22  BANK23  BANK24  BANK25  BANK26  BANK27  BANK28  BANK29  BANK30  BANK3
      +1  BANK32  BANK33  BANK34  BANK35  BANK36  BANK37
  2049 ;;      Params:         0       0       0       0       0       0       0       0       0       0       0       0       
      +0       0       0       0       0       0       0       0       0       0       0       0       0       0       0       
      +0       0       0       0       0       0       0
  2050 ;;      Locals:         0       0       0       0       0       0       0       0       0       0       0       0       
      +0       0       0       0       0       0       0       0       0       0       0       0       0       0       0       
      +0       0       0       0       0       0       0
  2051 ;;      Temps:          0       0       0       0       0       0       0       0       0       0       0       0       
      +0       0       0       0       0       0       0       0       0       0       0       0       0       0       0       
      +0       0       0       0       0       0       0
  2052 ;;      Totals:         0       0       0       0       0       0       0       0       0       0       0       0       
      +0       0       0       0       0       0       0       0       0       0       0       0       0       0       0       
      +0       0       0       0       0       0       0
  2053 ;;Total ram usage:        0 bytes
  2054 ;; Hardware stack levels used:    1
  2055 ;; Hardware stack levels required when called:    9
  2056 ;; This function calls:
  2057 ;;		Nothing
  2058 ;; This function is called by:
  2059 ;;		_CAN1_OperationModeSet
  2060 ;; This function uses a non-reentrant model
  2061 ;;
  2062                           
  2063                           	psect	text17
  2064  003B62                     __ptext17:
  2065                           	callstack 0
  2066  003B62                     _CAN1_OperationModeGet:
  2067                           	callstack 115
  2068  003B62                     
  2069                           ;mcc_generated_files/can1.c: 330:     return C1CONUbits.OPMOD;
  2070  003B62  0101               	movlb	1	; () banked
  2071  003B64  3902               	swapf	2,w,b	;volatile
  2072  003B66  32E8               	rrcf	wreg,f,c
  2073  003B68  0B07               	andlw	7
  2074  003B6A                     
  2075                           ; BSR set to: 1
  2076  003B6A  0012               	return		;funcret
  2077  003B6C                     __end_of_CAN1_OperationModeGet:
  2078                           	callstack 0
  2079                           
  2080 ;; *************** function _CAN1_ErrorNotificationInterruptEnable *****************
  2081 ;; Defined at:
  2082 ;;		line 244 in file "mcc_generated_files/can1.c"
  2083 ;; Parameters:    Size  Location     Type
  2084 ;;		None
  2085 ;; Auto vars:     Size  Location     Type
  2086 ;;		None
  2087 ;; Return value:  Size  Location     Type
  2088 ;;                  1    wreg      void 
  2089 ;; Registers used:
  2090 ;;		wreg, status,2, status,0, cstack
  2091 ;; Tracked objects:
  2092 ;;		On entry : 0/0
  2093 ;;		On exit  : 0/0
  2094 ;;		Unchanged: 0/0
  2095 ;; Data sizes:     COMRAM   BANK5   BANK6   BANK7   BANK8   BANK9  BANK10  BANK11  BANK12  BANK13  BANK14  BANK15  BANK1
      +6  BANK17  BANK18  BANK19  BANK20  BANK21  BANK22  BANK23  BANK24  BANK25  BANK26  BANK27  BANK28  BANK29  BANK30  BANK3
      +1  BANK32  BANK33  BANK34  BANK35  BANK36  BANK37
  2096 ;;      Params:         0       0       0       0       0       0       0       0       0       0       0       0       
      +0       0       0       0       0       0       0       0       0       0       0       0       0       0       0       
      +0       0       0       0       0       0       0
  2097 ;;      Locals:         0       0       0       0       0       0       0       0       0       0       0       0       
      +0       0       0       0       0       0       0       0       0       0       0       0       0       0       0       
      +0       0       0       0       0       0       0
  2098 ;;      Temps:          0       0       0       0       0       0       0       0       0       0       0       0       
      +0       0       0       0       0       0       0       0       0       0       0       0       0       0       0       
      +0       0       0       0       0       0       0
  2099 ;;      Totals:         0       0       0       0       0       0       0       0       0       0       0       0       
      +0       0       0       0       0       0       0       0       0       0       0       0       0       0       0       
      +0       0       0       0       0       0       0
  2100 ;;Total ram usage:        0 bytes
  2101 ;; Hardware stack levels used:    1
  2102 ;; Hardware stack levels required when called:   10
  2103 ;; This function calls:
  2104 ;;		_CAN1_SetBusErrorInterruptHandler
  2105 ;;		_CAN1_SetBusWakeUpActivityInterruptHandler
  2106 ;;		_CAN1_SetInvalidMessageInterruptHandler
  2107 ;;		_CAN1_SetModeChangeInterruptHandler
  2108 ;;		_CAN1_SetRxBufferOverFlowInterruptHandler
  2109 ;;		_CAN1_SetSystemErrorInterruptHandler
  2110 ;;		_CAN1_SetTxAttemptInterruptHandler
  2111 ;; This function is called by:
  2112 ;;		_CAN1_Initialize
  2113 ;; This function uses a non-reentrant model
  2114 ;;
  2115                           
  2116                           	psect	text18
  2117  003500                     __ptext18:
  2118                           	callstack 0
  2119  003500                     _CAN1_ErrorNotificationInterruptEnable:
  2120                           	callstack 115
  2121  003500                     
  2122                           ;mcc_generated_files/can1.c: 246:     CAN1_SetInvalidMessageInterruptHandler(DefaultInva
      +                          lidMessageHandler);
  2123  003500  0EE6               	movlw	low _DefaultInvalidMessageHandler
  2124  003502  0105               	movlb	5	; () banked
  2125  003504  6F82               	movwf	CAN1_SetInvalidMessageInterruptHandler@handler& (0+255),b
  2126  003506  0E3B               	movlw	high _DefaultInvalidMessageHandler
  2127  003508  6F83               	movwf	(CAN1_SetInvalidMessageInterruptHandler@handler+1)& (0+255),b
  2128  00350A  ECCA  F01D         	call	_CAN1_SetInvalidMessageInterruptHandler	;wreg free
  2129                           
  2130                           ;mcc_generated_files/can1.c: 247:     CAN1_SetBusWakeUpActivityInterruptHandler(DefaultB
      +                          usWakeUpActivityHandler);
  2131  00350E  0EE8               	movlw	low _DefaultBusWakeUpActivityHandler
  2132  003510  0105               	movlb	5	; () banked
  2133  003512  6F82               	movwf	CAN1_SetBusWakeUpActivityInterruptHandler@handler& (0+255),b
  2134  003514  0E3B               	movlw	high _DefaultBusWakeUpActivityHandler
  2135  003516  6F83               	movwf	(CAN1_SetBusWakeUpActivityInterruptHandler@handler+1)& (0+255),b
  2136  003518  ECCF  F01D         	call	_CAN1_SetBusWakeUpActivityInterruptHandler	;wreg free
  2137                           
  2138                           ;mcc_generated_files/can1.c: 248:     CAN1_SetBusErrorInterruptHandler(DefaultBusErrorHa
      +                          ndler);
  2139  00351C  0EEA               	movlw	low _DefaultBusErrorHandler
  2140  00351E  0105               	movlb	5	; () banked
  2141  003520  6F82               	movwf	CAN1_SetBusErrorInterruptHandler@handler& (0+255),b
  2142  003522  0E3B               	movlw	high _DefaultBusErrorHandler
  2143  003524  6F83               	movwf	(CAN1_SetBusErrorInterruptHandler@handler+1)& (0+255),b
  2144  003526  ECD4  F01D         	call	_CAN1_SetBusErrorInterruptHandler	;wreg free
  2145                           
  2146                           ;mcc_generated_files/can1.c: 249:     CAN1_SetModeChangeInterruptHandler(DefaultModeChan
      +                          geHandler);
  2147  00352A  0EE4               	movlw	low _DefaultModeChangeHandler
  2148  00352C  0105               	movlb	5	; () banked
  2149  00352E  6F82               	movwf	CAN1_SetModeChangeInterruptHandler@handler& (0+255),b
  2150  003530  0E3B               	movlw	high _DefaultModeChangeHandler
  2151  003532  6F83               	movwf	(CAN1_SetModeChangeInterruptHandler@handler+1)& (0+255),b
  2152  003534  ECC5  F01D         	call	_CAN1_SetModeChangeInterruptHandler	;wreg free
  2153                           
  2154                           ;mcc_generated_files/can1.c: 250:     CAN1_SetSystemErrorInterruptHandler(DefaultSystemE
      +                          rrorHandler);
  2155  003538  0EE0               	movlw	low _DefaultSystemErrorHandler
  2156  00353A  0105               	movlb	5	; () banked
  2157  00353C  6F82               	movwf	CAN1_SetSystemErrorInterruptHandler@handler& (0+255),b
  2158  00353E  0E3B               	movlw	high _DefaultSystemErrorHandler
  2159  003540  6F83               	movwf	(CAN1_SetSystemErrorInterruptHandler@handler+1)& (0+255),b
  2160  003542  ECBB  F01D         	call	_CAN1_SetSystemErrorInterruptHandler	;wreg free
  2161                           
  2162                           ;mcc_generated_files/can1.c: 251:     CAN1_SetTxAttemptInterruptHandler(DefaultTxAttempt
      +                          Handler);
  2163  003546  0EDE               	movlw	low _DefaultTxAttemptHandler
  2164  003548  0105               	movlb	5	; () banked
  2165  00354A  6F82               	movwf	CAN1_SetTxAttemptInterruptHandler@handler& (0+255),b
  2166  00354C  0E3B               	movlw	high _DefaultTxAttemptHandler
  2167  00354E  6F83               	movwf	(CAN1_SetTxAttemptInterruptHandler@handler+1)& (0+255),b
  2168  003550  ECB6  F01D         	call	_CAN1_SetTxAttemptInterruptHandler	;wreg free
  2169                           
  2170                           ;mcc_generated_files/can1.c: 252:     CAN1_SetRxBufferOverFlowInterruptHandler(DefaultRx
      +                          BufferOverflowHandler);
  2171  003554  0EE2               	movlw	low _DefaultRxBufferOverflowHandler
  2172  003556  0105               	movlb	5	; () banked
  2173  003558  6F82               	movwf	CAN1_SetRxBufferOverFlowInterruptHandler@handler& (0+255),b
  2174  00355A  0E3B               	movlw	high _DefaultRxBufferOverflowHandler
  2175  00355C  6F83               	movwf	(CAN1_SetRxBufferOverFlowInterruptHandler@handler+1)& (0+255),b
  2176  00355E  ECC0  F01D         	call	_CAN1_SetRxBufferOverFlowInterruptHandler	;wreg free
  2177  003562                     
  2178                           ;mcc_generated_files/can1.c: 253:     PIR0bits.CANIF = 0;
  2179  003562  9CAE               	bcf	174,6,c	;volatile
  2180  003564                     
  2181                           ;mcc_generated_files/can1.c: 256:     C1INTL = 0x00;
  2182  003564  0E00               	movlw	0
  2183  003566  0101               	movlb	1	; () banked
  2184  003568  6F1C               	movwf	28,b	;volatile
  2185  00356A                     
  2186                           ; BSR set to: 1
  2187                           ;mcc_generated_files/can1.c: 259:     C1INTH = 0x00;
  2188  00356A  0E00               	movlw	0
  2189  00356C  6F1D               	movwf	29,b	;volatile
  2190  00356E                     
  2191                           ; BSR set to: 1
  2192                           ;mcc_generated_files/can1.c: 262:     C1INTU = 0x0A;
  2193  00356E  0E0A               	movlw	10
  2194  003570  6F1E               	movwf	30,b	;volatile
  2195  003572                     
  2196                           ; BSR set to: 1
  2197                           ;mcc_generated_files/can1.c: 265:     C1INTT = 0xFC;
  2198  003572  0EFC               	movlw	252
  2199  003574  6F1F               	movwf	31,b	;volatile
  2200  003576                     
  2201                           ; BSR set to: 1
  2202                           ;mcc_generated_files/can1.c: 267:     PIE0bits.CANIE = 1;
  2203  003576  8C9E               	bsf	158,6,c	;volatile
  2204  003578                     
  2205                           ; BSR set to: 1
  2206  003578  0012               	return		;funcret
  2207  00357A                     __end_of_CAN1_ErrorNotificationInterruptEnable:
  2208                           	callstack 0
  2209                           
  2210 ;; *************** function _CAN1_SetTxAttemptInterruptHandler *****************
  2211 ;; Defined at:
  2212 ;;		line 669 in file "mcc_generated_files/can1.c"
  2213 ;; Parameters:    Size  Location     Type
  2214 ;;  handler         2    0[BANK5 ] PTR FTN()void 
  2215 ;;		 -> DefaultTxAttemptHandler(1), 
  2216 ;; Auto vars:     Size  Location     Type
  2217 ;;		None
  2218 ;; Return value:  Size  Location     Type
  2219 ;;                  1    wreg      void 
  2220 ;; Registers used:
  2221 ;;		wreg, status,2, status,0
  2222 ;; Tracked objects:
  2223 ;;		On entry : 0/0
  2224 ;;		On exit  : 0/0
  2225 ;;		Unchanged: 0/0
  2226 ;; Data sizes:     COMRAM   BANK5   BANK6   BANK7   BANK8   BANK9  BANK10  BANK11  BANK12  BANK13  BANK14  BANK15  BANK1
      +6  BANK17  BANK18  BANK19  BANK20  BANK21  BANK22  BANK23  BANK24  BANK25  BANK26  BANK27  BANK28  BANK29  BANK30  BANK3
      +1  BANK32  BANK33  BANK34  BANK35  BANK36  BANK37
  2227 ;;      Params:         0       2       0       0       0       0       0       0       0       0       0       0       
      +0       0       0       0       0       0       0       0       0       0       0       0       0       0       0       
      +0       0       0       0       0       0       0
  2228 ;;      Locals:         0       0       0       0       0       0       0       0       0       0       0       0       
      +0       0       0       0       0       0       0       0       0       0       0       0       0       0       0       
      +0       0       0       0       0       0       0
  2229 ;;      Temps:          0       0       0       0       0       0       0       0       0       0       0       0       
      +0       0       0       0       0       0       0       0       0       0       0       0       0       0       0       
      +0       0       0       0       0       0       0
  2230 ;;      Totals:         0       2       0       0       0       0       0       0       0       0       0       0       
      +0       0       0       0       0       0       0       0       0       0       0       0       0       0       0       
      +0       0       0       0       0       0       0
  2231 ;;Total ram usage:        2 bytes
  2232 ;; Hardware stack levels used:    1
  2233 ;; Hardware stack levels required when called:    9
  2234 ;; This function calls:
  2235 ;;		Nothing
  2236 ;; This function is called by:
  2237 ;;		_CAN1_ErrorNotificationInterruptEnable
  2238 ;; This function uses a non-reentrant model
  2239 ;;
  2240                           
  2241                           	psect	text19
  2242  003B6C                     __ptext19:
  2243                           	callstack 0
  2244  003B6C                     _CAN1_SetTxAttemptInterruptHandler:
  2245                           	callstack 115
  2246  003B6C                     
  2247                           ;mcc_generated_files/can1.c: 669: void CAN1_SetTxAttemptInterruptHandler(void (*handler)
      +                          (void));mcc_generated_files/can1.c: 670: {;mcc_generated_files/can1.c: 671:     CAN1_TxA
      +                          ttemptHandler = handler;
  2248  003B6C  C582  F562         	movff	CAN1_SetTxAttemptInterruptHandler@handler,_CAN1_TxAttemptHandler
  2249  003B70  C583  F563         	movff	CAN1_SetTxAttemptInterruptHandler@handler+1,_CAN1_TxAttemptHandler+1
  2250  003B74  0012               	return		;funcret
  2251  003B76                     __end_of_CAN1_SetTxAttemptInterruptHandler:
  2252                           	callstack 0
  2253                           
  2254 ;; *************** function _CAN1_SetSystemErrorInterruptHandler *****************
  2255 ;; Defined at:
  2256 ;;		line 664 in file "mcc_generated_files/can1.c"
  2257 ;; Parameters:    Size  Location     Type
  2258 ;;  handler         2    0[BANK5 ] PTR FTN()void 
  2259 ;;		 -> DefaultSystemErrorHandler(1), 
  2260 ;; Auto vars:     Size  Location     Type
  2261 ;;		None
  2262 ;; Return value:  Size  Location     Type
  2263 ;;                  1    wreg      void 
  2264 ;; Registers used:
  2265 ;;		wreg, status,2, status,0
  2266 ;; Tracked objects:
  2267 ;;		On entry : 0/0
  2268 ;;		On exit  : 0/0
  2269 ;;		Unchanged: 0/0
  2270 ;; Data sizes:     COMRAM   BANK5   BANK6   BANK7   BANK8   BANK9  BANK10  BANK11  BANK12  BANK13  BANK14  BANK15  BANK1
      +6  BANK17  BANK18  BANK19  BANK20  BANK21  BANK22  BANK23  BANK24  BANK25  BANK26  BANK27  BANK28  BANK29  BANK30  BANK3
      +1  BANK32  BANK33  BANK34  BANK35  BANK36  BANK37
  2271 ;;      Params:         0       2       0       0       0       0       0       0       0       0       0       0       
      +0       0       0       0       0       0       0       0       0       0       0       0       0       0       0       
      +0       0       0       0       0       0       0
  2272 ;;      Locals:         0       0       0       0       0       0       0       0       0       0       0       0       
      +0       0       0       0       0       0       0       0       0       0       0       0       0       0       0       
      +0       0       0       0       0       0       0
  2273 ;;      Temps:          0       0       0       0       0       0       0       0       0       0       0       0       
      +0       0       0       0       0       0       0       0       0       0       0       0       0       0       0       
      +0       0       0       0       0       0       0
  2274 ;;      Totals:         0       2       0       0       0       0       0       0       0       0       0       0       
      +0       0       0       0       0       0       0       0       0       0       0       0       0       0       0       
      +0       0       0       0       0       0       0
  2275 ;;Total ram usage:        2 bytes
  2276 ;; Hardware stack levels used:    1
  2277 ;; Hardware stack levels required when called:    9
  2278 ;; This function calls:
  2279 ;;		Nothing
  2280 ;; This function is called by:
  2281 ;;		_CAN1_ErrorNotificationInterruptEnable
  2282 ;; This function uses a non-reentrant model
  2283 ;;
  2284                           
  2285                           	psect	text20
  2286  003B76                     __ptext20:
  2287                           	callstack 0
  2288  003B76                     _CAN1_SetSystemErrorInterruptHandler:
  2289                           	callstack 115
  2290  003B76                     
  2291                           ;mcc_generated_files/can1.c: 664: void CAN1_SetSystemErrorInterruptHandler(void (*handle
      +                          r)(void));mcc_generated_files/can1.c: 665: {;mcc_generated_files/can1.c: 666:     CAN1_S
      +                          ystemErrorHandler = handler;
  2292  003B76  C582  F564         	movff	CAN1_SetSystemErrorInterruptHandler@handler,_CAN1_SystemErrorHandler
  2293  003B7A  C583  F565         	movff	CAN1_SetSystemErrorInterruptHandler@handler+1,_CAN1_SystemErrorHandler+1
  2294  003B7E  0012               	return		;funcret
  2295  003B80                     __end_of_CAN1_SetSystemErrorInterruptHandler:
  2296                           	callstack 0
  2297                           
  2298 ;; *************** function _CAN1_SetRxBufferOverFlowInterruptHandler *****************
  2299 ;; Defined at:
  2300 ;;		line 674 in file "mcc_generated_files/can1.c"
  2301 ;; Parameters:    Size  Location     Type
  2302 ;;  handler         2    0[BANK5 ] PTR FTN()void 
  2303 ;;		 -> DefaultRxBufferOverflowHandler(1), 
  2304 ;; Auto vars:     Size  Location     Type
  2305 ;;		None
  2306 ;; Return value:  Size  Location     Type
  2307 ;;                  1    wreg      void 
  2308 ;; Registers used:
  2309 ;;		wreg, status,2, status,0
  2310 ;; Tracked objects:
  2311 ;;		On entry : 0/0
  2312 ;;		On exit  : 0/0
  2313 ;;		Unchanged: 0/0
  2314 ;; Data sizes:     COMRAM   BANK5   BANK6   BANK7   BANK8   BANK9  BANK10  BANK11  BANK12  BANK13  BANK14  BANK15  BANK1
      +6  BANK17  BANK18  BANK19  BANK20  BANK21  BANK22  BANK23  BANK24  BANK25  BANK26  BANK27  BANK28  BANK29  BANK30  BANK3
      +1  BANK32  BANK33  BANK34  BANK35  BANK36  BANK37
  2315 ;;      Params:         0       2       0       0       0       0       0       0       0       0       0       0       
      +0       0       0       0       0       0       0       0       0       0       0       0       0       0       0       
      +0       0       0       0       0       0       0
  2316 ;;      Locals:         0       0       0       0       0       0       0       0       0       0       0       0       
      +0       0       0       0       0       0       0       0       0       0       0       0       0       0       0       
      +0       0       0       0       0       0       0
  2317 ;;      Temps:          0       0       0       0       0       0       0       0       0       0       0       0       
      +0       0       0       0       0       0       0       0       0       0       0       0       0       0       0       
      +0       0       0       0       0       0       0
  2318 ;;      Totals:         0       2       0       0       0       0       0       0       0       0       0       0       
      +0       0       0       0       0       0       0       0       0       0       0       0       0       0       0       
      +0       0       0       0       0       0       0
  2319 ;;Total ram usage:        2 bytes
  2320 ;; Hardware stack levels used:    1
  2321 ;; Hardware stack levels required when called:    9
  2322 ;; This function calls:
  2323 ;;		Nothing
  2324 ;; This function is called by:
  2325 ;;		_CAN1_ErrorNotificationInterruptEnable
  2326 ;; This function uses a non-reentrant model
  2327 ;;
  2328                           
  2329                           	psect	text21
  2330  003B80                     __ptext21:
  2331                           	callstack 0
  2332  003B80                     _CAN1_SetRxBufferOverFlowInterruptHandler:
  2333                           	callstack 115
  2334  003B80                     
  2335                           ;mcc_generated_files/can1.c: 674: void CAN1_SetRxBufferOverFlowInterruptHandler(void (*h
      +                          andler)(void));mcc_generated_files/can1.c: 675: {;mcc_generated_files/can1.c: 676:     C
      +                          AN1_RxBufferOverflowHandler = handler;
  2336  003B80  C582  F560         	movff	CAN1_SetRxBufferOverFlowInterruptHandler@handler,_CAN1_RxBufferOverflowHandler
  2337  003B84  C583  F561         	movff	CAN1_SetRxBufferOverFlowInterruptHandler@handler+1,_CAN1_RxBufferOverflowHandler+
      +                          1
  2338  003B88  0012               	return		;funcret
  2339  003B8A                     __end_of_CAN1_SetRxBufferOverFlowInterruptHandler:
  2340                           	callstack 0
  2341                           
  2342 ;; *************** function _CAN1_SetModeChangeInterruptHandler *****************
  2343 ;; Defined at:
  2344 ;;		line 659 in file "mcc_generated_files/can1.c"
  2345 ;; Parameters:    Size  Location     Type
  2346 ;;  handler         2    0[BANK5 ] PTR FTN()void 
  2347 ;;		 -> DefaultModeChangeHandler(1), 
  2348 ;; Auto vars:     Size  Location     Type
  2349 ;;		None
  2350 ;; Return value:  Size  Location     Type
  2351 ;;                  1    wreg      void 
  2352 ;; Registers used:
  2353 ;;		wreg, status,2, status,0
  2354 ;; Tracked objects:
  2355 ;;		On entry : 0/0
  2356 ;;		On exit  : 0/0
  2357 ;;		Unchanged: 0/0
  2358 ;; Data sizes:     COMRAM   BANK5   BANK6   BANK7   BANK8   BANK9  BANK10  BANK11  BANK12  BANK13  BANK14  BANK15  BANK1
      +6  BANK17  BANK18  BANK19  BANK20  BANK21  BANK22  BANK23  BANK24  BANK25  BANK26  BANK27  BANK28  BANK29  BANK30  BANK3
      +1  BANK32  BANK33  BANK34  BANK35  BANK36  BANK37
  2359 ;;      Params:         0       2       0       0       0       0       0       0       0       0       0       0       
      +0       0       0       0       0       0       0       0       0       0       0       0       0       0       0       
      +0       0       0       0       0       0       0
  2360 ;;      Locals:         0       0       0       0       0       0       0       0       0       0       0       0       
      +0       0       0       0       0       0       0       0       0       0       0       0       0       0       0       
      +0       0       0       0       0       0       0
  2361 ;;      Temps:          0       0       0       0       0       0       0       0       0       0       0       0       
      +0       0       0       0       0       0       0       0       0       0       0       0       0       0       0       
      +0       0       0       0       0       0       0
  2362 ;;      Totals:         0       2       0       0       0       0       0       0       0       0       0       0       
      +0       0       0       0       0       0       0       0       0       0       0       0       0       0       0       
      +0       0       0       0       0       0       0
  2363 ;;Total ram usage:        2 bytes
  2364 ;; Hardware stack levels used:    1
  2365 ;; Hardware stack levels required when called:    9
  2366 ;; This function calls:
  2367 ;;		Nothing
  2368 ;; This function is called by:
  2369 ;;		_CAN1_ErrorNotificationInterruptEnable
  2370 ;; This function uses a non-reentrant model
  2371 ;;
  2372                           
  2373                           	psect	text22
  2374  003B8A                     __ptext22:
  2375                           	callstack 0
  2376  003B8A                     _CAN1_SetModeChangeInterruptHandler:
  2377                           	callstack 115
  2378  003B8A                     
  2379                           ;mcc_generated_files/can1.c: 659: void CAN1_SetModeChangeInterruptHandler(void (*handler
      +                          )(void));mcc_generated_files/can1.c: 660: {;mcc_generated_files/can1.c: 661:     CAN1_Mo
      +                          deChangeHandler = handler;
  2380  003B8A  C582  F566         	movff	CAN1_SetModeChangeInterruptHandler@handler,_CAN1_ModeChangeHandler
  2381  003B8E  C583  F567         	movff	CAN1_SetModeChangeInterruptHandler@handler+1,_CAN1_ModeChangeHandler+1
  2382  003B92  0012               	return		;funcret
  2383  003B94                     __end_of_CAN1_SetModeChangeInterruptHandler:
  2384                           	callstack 0
  2385                           
  2386 ;; *************** function _CAN1_SetInvalidMessageInterruptHandler *****************
  2387 ;; Defined at:
  2388 ;;		line 644 in file "mcc_generated_files/can1.c"
  2389 ;; Parameters:    Size  Location     Type
  2390 ;;  handler         2    0[BANK5 ] PTR FTN()void 
  2391 ;;		 -> DefaultInvalidMessageHandler(1), 
  2392 ;; Auto vars:     Size  Location     Type
  2393 ;;		None
  2394 ;; Return value:  Size  Location     Type
  2395 ;;                  1    wreg      void 
  2396 ;; Registers used:
  2397 ;;		wreg, status,2, status,0
  2398 ;; Tracked objects:
  2399 ;;		On entry : 0/0
  2400 ;;		On exit  : 0/0
  2401 ;;		Unchanged: 0/0
  2402 ;; Data sizes:     COMRAM   BANK5   BANK6   BANK7   BANK8   BANK9  BANK10  BANK11  BANK12  BANK13  BANK14  BANK15  BANK1
      +6  BANK17  BANK18  BANK19  BANK20  BANK21  BANK22  BANK23  BANK24  BANK25  BANK26  BANK27  BANK28  BANK29  BANK30  BANK3
      +1  BANK32  BANK33  BANK34  BANK35  BANK36  BANK37
  2403 ;;      Params:         0       2       0       0       0       0       0       0       0       0       0       0       
      +0       0       0       0       0       0       0       0       0       0       0       0       0       0       0       
      +0       0       0       0       0       0       0
  2404 ;;      Locals:         0       0       0       0       0       0       0       0       0       0       0       0       
      +0       0       0       0       0       0       0       0       0       0       0       0       0       0       0       
      +0       0       0       0       0       0       0
  2405 ;;      Temps:          0       0       0       0       0       0       0       0       0       0       0       0       
      +0       0       0       0       0       0       0       0       0       0       0       0       0       0       0       
      +0       0       0       0       0       0       0
  2406 ;;      Totals:         0       2       0       0       0       0       0       0       0       0       0       0       
      +0       0       0       0       0       0       0       0       0       0       0       0       0       0       0       
      +0       0       0       0       0       0       0
  2407 ;;Total ram usage:        2 bytes
  2408 ;; Hardware stack levels used:    1
  2409 ;; Hardware stack levels required when called:    9
  2410 ;; This function calls:
  2411 ;;		Nothing
  2412 ;; This function is called by:
  2413 ;;		_CAN1_ErrorNotificationInterruptEnable
  2414 ;; This function uses a non-reentrant model
  2415 ;;
  2416                           
  2417                           	psect	text23
  2418  003B94                     __ptext23:
  2419                           	callstack 0
  2420  003B94                     _CAN1_SetInvalidMessageInterruptHandler:
  2421                           	callstack 115
  2422  003B94                     
  2423                           ;mcc_generated_files/can1.c: 644: void CAN1_SetInvalidMessageInterruptHandler(void (*han
      +                          dler)(void));mcc_generated_files/can1.c: 645: {;mcc_generated_files/can1.c: 646:     CAN
      +                          1_InvalidMessageHandler = handler;
  2424  003B94  C582  F56C         	movff	CAN1_SetInvalidMessageInterruptHandler@handler,_CAN1_InvalidMessageHandler
  2425  003B98  C583  F56D         	movff	CAN1_SetInvalidMessageInterruptHandler@handler+1,_CAN1_InvalidMessageHandler+1
  2426  003B9C  0012               	return		;funcret
  2427  003B9E                     __end_of_CAN1_SetInvalidMessageInterruptHandler:
  2428                           	callstack 0
  2429                           
  2430 ;; *************** function _CAN1_SetBusWakeUpActivityInterruptHandler *****************
  2431 ;; Defined at:
  2432 ;;		line 649 in file "mcc_generated_files/can1.c"
  2433 ;; Parameters:    Size  Location     Type
  2434 ;;  handler         2    0[BANK5 ] PTR FTN()void 
  2435 ;;		 -> DefaultBusWakeUpActivityHandler(1), 
  2436 ;; Auto vars:     Size  Location     Type
  2437 ;;		None
  2438 ;; Return value:  Size  Location     Type
  2439 ;;                  1    wreg      void 
  2440 ;; Registers used:
  2441 ;;		wreg, status,2, status,0
  2442 ;; Tracked objects:
  2443 ;;		On entry : 0/0
  2444 ;;		On exit  : 0/0
  2445 ;;		Unchanged: 0/0
  2446 ;; Data sizes:     COMRAM   BANK5   BANK6   BANK7   BANK8   BANK9  BANK10  BANK11  BANK12  BANK13  BANK14  BANK15  BANK1
      +6  BANK17  BANK18  BANK19  BANK20  BANK21  BANK22  BANK23  BANK24  BANK25  BANK26  BANK27  BANK28  BANK29  BANK30  BANK3
      +1  BANK32  BANK33  BANK34  BANK35  BANK36  BANK37
  2447 ;;      Params:         0       2       0       0       0       0       0       0       0       0       0       0       
      +0       0       0       0       0       0       0       0       0       0       0       0       0       0       0       
      +0       0       0       0       0       0       0
  2448 ;;      Locals:         0       0       0       0       0       0       0       0       0       0       0       0       
      +0       0       0       0       0       0       0       0       0       0       0       0       0       0       0       
      +0       0       0       0       0       0       0
  2449 ;;      Temps:          0       0       0       0       0       0       0       0       0       0       0       0       
      +0       0       0       0       0       0       0       0       0       0       0       0       0       0       0       
      +0       0       0       0       0       0       0
  2450 ;;      Totals:         0       2       0       0       0       0       0       0       0       0       0       0       
      +0       0       0       0       0       0       0       0       0       0       0       0       0       0       0       
      +0       0       0       0       0       0       0
  2451 ;;Total ram usage:        2 bytes
  2452 ;; Hardware stack levels used:    1
  2453 ;; Hardware stack levels required when called:    9
  2454 ;; This function calls:
  2455 ;;		Nothing
  2456 ;; This function is called by:
  2457 ;;		_CAN1_ErrorNotificationInterruptEnable
  2458 ;; This function uses a non-reentrant model
  2459 ;;
  2460                           
  2461                           	psect	text24
  2462  003B9E                     __ptext24:
  2463                           	callstack 0
  2464  003B9E                     _CAN1_SetBusWakeUpActivityInterruptHandler:
  2465                           	callstack 115
  2466  003B9E                     
  2467                           ;mcc_generated_files/can1.c: 649: void CAN1_SetBusWakeUpActivityInterruptHandler(void (*
      +                          handler)(void));mcc_generated_files/can1.c: 650: {;mcc_generated_files/can1.c: 651:     
      +                          CAN1_BusWakeUpActivityHandler = handler;
  2468  003B9E  C582  F56A         	movff	CAN1_SetBusWakeUpActivityInterruptHandler@handler,_CAN1_BusWakeUpActivityHandler
  2469  003BA2  C583  F56B         	movff	CAN1_SetBusWakeUpActivityInterruptHandler@handler+1,_CAN1_BusWakeUpActivityHandle
      +                          r+1
  2470  003BA6  0012               	return		;funcret
  2471  003BA8                     __end_of_CAN1_SetBusWakeUpActivityInterruptHandler:
  2472                           	callstack 0
  2473                           
  2474 ;; *************** function _CAN1_SetBusErrorInterruptHandler *****************
  2475 ;; Defined at:
  2476 ;;		line 654 in file "mcc_generated_files/can1.c"
  2477 ;; Parameters:    Size  Location     Type
  2478 ;;  handler         2    0[BANK5 ] PTR FTN()void 
  2479 ;;		 -> DefaultBusErrorHandler(1), 
  2480 ;; Auto vars:     Size  Location     Type
  2481 ;;		None
  2482 ;; Return value:  Size  Location     Type
  2483 ;;                  1    wreg      void 
  2484 ;; Registers used:
  2485 ;;		wreg, status,2, status,0
  2486 ;; Tracked objects:
  2487 ;;		On entry : 0/0
  2488 ;;		On exit  : 0/0
  2489 ;;		Unchanged: 0/0
  2490 ;; Data sizes:     COMRAM   BANK5   BANK6   BANK7   BANK8   BANK9  BANK10  BANK11  BANK12  BANK13  BANK14  BANK15  BANK1
      +6  BANK17  BANK18  BANK19  BANK20  BANK21  BANK22  BANK23  BANK24  BANK25  BANK26  BANK27  BANK28  BANK29  BANK30  BANK3
      +1  BANK32  BANK33  BANK34  BANK35  BANK36  BANK37
  2491 ;;      Params:         0       2       0       0       0       0       0       0       0       0       0       0       
      +0       0       0       0       0       0       0       0       0       0       0       0       0       0       0       
      +0       0       0       0       0       0       0
  2492 ;;      Locals:         0       0       0       0       0       0       0       0       0       0       0       0       
      +0       0       0       0       0       0       0       0       0       0       0       0       0       0       0       
      +0       0       0       0       0       0       0
  2493 ;;      Temps:          0       0       0       0       0       0       0       0       0       0       0       0       
      +0       0       0       0       0       0       0       0       0       0       0       0       0       0       0       
      +0       0       0       0       0       0       0
  2494 ;;      Totals:         0       2       0       0       0       0       0       0       0       0       0       0       
      +0       0       0       0       0       0       0       0       0       0       0       0       0       0       0       
      +0       0       0       0       0       0       0
  2495 ;;Total ram usage:        2 bytes
  2496 ;; Hardware stack levels used:    1
  2497 ;; Hardware stack levels required when called:    9
  2498 ;; This function calls:
  2499 ;;		Nothing
  2500 ;; This function is called by:
  2501 ;;		_CAN1_ErrorNotificationInterruptEnable
  2502 ;; This function uses a non-reentrant model
  2503 ;;
  2504                           
  2505                           	psect	text25
  2506  003BA8                     __ptext25:
  2507                           	callstack 0
  2508  003BA8                     _CAN1_SetBusErrorInterruptHandler:
  2509                           	callstack 115
  2510  003BA8                     
  2511                           ;mcc_generated_files/can1.c: 654: void CAN1_SetBusErrorInterruptHandler(void (*handler)(
      +                          void));mcc_generated_files/can1.c: 655: {;mcc_generated_files/can1.c: 656:     CAN1_BusE
      +                          rrorHandler = handler;
  2512  003BA8  C582  F568         	movff	CAN1_SetBusErrorInterruptHandler@handler,_CAN1_BusErrorHandler
  2513  003BAC  C583  F569         	movff	CAN1_SetBusErrorInterruptHandler@handler+1,_CAN1_BusErrorHandler+1
  2514  003BB0  0012               	return		;funcret
  2515  003BB2                     __end_of_CAN1_SetBusErrorInterruptHandler:
  2516                           	callstack 0
  2517                           
  2518 ;; *************** function _CAN1_BitRateConfiguration *****************
  2519 ;; Defined at:
  2520 ;;		line 228 in file "mcc_generated_files/can1.c"
  2521 ;; Parameters:    Size  Location     Type
  2522 ;;		None
  2523 ;; Auto vars:     Size  Location     Type
  2524 ;;		None
  2525 ;; Return value:  Size  Location     Type
  2526 ;;                  1    wreg      void 
  2527 ;; Registers used:
  2528 ;;		wreg, status,2
  2529 ;; Tracked objects:
  2530 ;;		On entry : 0/0
  2531 ;;		On exit  : 0/0
  2532 ;;		Unchanged: 0/0
  2533 ;; Data sizes:     COMRAM   BANK5   BANK6   BANK7   BANK8   BANK9  BANK10  BANK11  BANK12  BANK13  BANK14  BANK15  BANK1
      +6  BANK17  BANK18  BANK19  BANK20  BANK21  BANK22  BANK23  BANK24  BANK25  BANK26  BANK27  BANK28  BANK29  BANK30  BANK3
      +1  BANK32  BANK33  BANK34  BANK35  BANK36  BANK37
  2534 ;;      Params:         0       0       0       0       0       0       0       0       0       0       0       0       
      +0       0       0       0       0       0       0       0       0       0       0       0       0       0       0       
      +0       0       0       0       0       0       0
  2535 ;;      Locals:         0       0       0       0       0       0       0       0       0       0       0       0       
      +0       0       0       0       0       0       0       0       0       0       0       0       0       0       0       
      +0       0       0       0       0       0       0
  2536 ;;      Temps:          0       0       0       0       0       0       0       0       0       0       0       0       
      +0       0       0       0       0       0       0       0       0       0       0       0       0       0       0       
      +0       0       0       0       0       0       0
  2537 ;;      Totals:         0       0       0       0       0       0       0       0       0       0       0       0       
      +0       0       0       0       0       0       0       0       0       0       0       0       0       0       0       
      +0       0       0       0       0       0       0
  2538 ;;Total ram usage:        0 bytes
  2539 ;; Hardware stack levels used:    1
  2540 ;; Hardware stack levels required when called:    9
  2541 ;; This function calls:
  2542 ;;		Nothing
  2543 ;; This function is called by:
  2544 ;;		_CAN1_Initialize
  2545 ;; This function uses a non-reentrant model
  2546 ;;
  2547                           
  2548                           	psect	text26
  2549  003B30                     __ptext26:
  2550                           	callstack 0
  2551  003B30                     _CAN1_BitRateConfiguration:
  2552                           	callstack 116
  2553  003B30                     
  2554                           ;mcc_generated_files/can1.c: 231:     C1NBTCFGL = 0x01;
  2555  003B30  0E01               	movlw	1
  2556  003B32  0101               	movlb	1	; () banked
  2557  003B34  6F04               	movwf	4,b	;volatile
  2558                           
  2559                           ;mcc_generated_files/can1.c: 234:     C1NBTCFGH = 0x01;
  2560  003B36  0E01               	movlw	1
  2561  003B38  6F05               	movwf	5,b	;volatile
  2562                           
  2563                           ;mcc_generated_files/can1.c: 237:     C1NBTCFGU = 0x06;
  2564  003B3A  0E06               	movlw	6
  2565  003B3C  6F06               	movwf	6,b	;volatile
  2566                           
  2567                           ;mcc_generated_files/can1.c: 240:     C1NBTCFGT = 0x00;
  2568  003B3E  0E00               	movlw	0
  2569  003B40  6F07               	movwf	7,b	;volatile
  2570  003B42                     
  2571                           ; BSR set to: 1
  2572  003B42  0012               	return		;funcret
  2573  003B44                     __end_of_CAN1_BitRateConfiguration:
  2574                           	callstack 0
  2575                           
  2576 ;; *************** function _PARAMETERS_Init *****************
  2577 ;; Defined at:
  2578 ;;		line 17 in file "PARAMETERS.c"
  2579 ;; Parameters:    Size  Location     Type
  2580 ;;		None
  2581 ;; Auto vars:     Size  Location     Type
  2582 ;;		None
  2583 ;; Return value:  Size  Location     Type
  2584 ;;                  1    wreg      void 
  2585 ;; Registers used:
  2586 ;;		wreg, status,2
  2587 ;; Tracked objects:
  2588 ;;		On entry : 0/0
  2589 ;;		On exit  : 0/0
  2590 ;;		Unchanged: 0/0
  2591 ;; Data sizes:     COMRAM   BANK5   BANK6   BANK7   BANK8   BANK9  BANK10  BANK11  BANK12  BANK13  BANK14  BANK15  BANK1
      +6  BANK17  BANK18  BANK19  BANK20  BANK21  BANK22  BANK23  BANK24  BANK25  BANK26  BANK27  BANK28  BANK29  BANK30  BANK3
      +1  BANK32  BANK33  BANK34  BANK35  BANK36  BANK37
  2592 ;;      Params:         0       0       0       0       0       0       0       0       0       0       0       0       
      +0       0       0       0       0       0       0       0       0       0       0       0       0       0       0       
      +0       0       0       0       0       0       0
  2593 ;;      Locals:         0       0       0       0       0       0       0       0       0       0       0       0       
      +0       0       0       0       0       0       0       0       0       0       0       0       0       0       0       
      +0       0       0       0       0       0       0
  2594 ;;      Temps:          0       0       0       0       0       0       0       0       0       0       0       0       
      +0       0       0       0       0       0       0       0       0       0       0       0       0       0       0       
      +0       0       0       0       0       0       0
  2595 ;;      Totals:         0       0       0       0       0       0       0       0       0       0       0       0       
      +0       0       0       0       0       0       0       0       0       0       0       0       0       0       0       
      +0       0       0       0       0       0       0
  2596 ;;Total ram usage:        0 bytes
  2597 ;; Hardware stack levels used:    1
  2598 ;; Hardware stack levels required when called:    9
  2599 ;; This function calls:
  2600 ;;		Nothing
  2601 ;; This function is called by:
  2602 ;;		_main
  2603 ;; This function uses a non-reentrant model
  2604 ;;
  2605                           
  2606                           	psect	text27
  2607  003BBC                     __ptext27:
  2608                           	callstack 0
  2609  003BBC                     _PARAMETERS_Init:
  2610                           	callstack 118
  2611  003BBC                     
  2612                           ;PARAMETERS.c: 19:     ucASSIName = 0;
  2613  003BBC  0E00               	movlw	0
  2614  003BBE  6E4A               	movwf	_ucASSIName^(0+1280),c
  2615  003BC0  0012               	return		;funcret
  2616  003BC2                     __end_of_PARAMETERS_Init:
  2617                           	callstack 0
  2618                           
  2619 ;; *************** function _Init_hardware *****************
  2620 ;; Defined at:
  2621 ;;		line 56 in file "main.c"
  2622 ;; Parameters:    Size  Location     Type
  2623 ;;		None
  2624 ;; Auto vars:     Size  Location     Type
  2625 ;;		None
  2626 ;; Return value:  Size  Location     Type
  2627 ;;                  1    wreg      void 
  2628 ;; Registers used:
  2629 ;;		wreg, status,2, status,0, cstack
  2630 ;; Tracked objects:
  2631 ;;		On entry : 0/0
  2632 ;;		On exit  : 0/0
  2633 ;;		Unchanged: 0/0
  2634 ;; Data sizes:     COMRAM   BANK5   BANK6   BANK7   BANK8   BANK9  BANK10  BANK11  BANK12  BANK13  BANK14  BANK15  BANK1
      +6  BANK17  BANK18  BANK19  BANK20  BANK21  BANK22  BANK23  BANK24  BANK25  BANK26  BANK27  BANK28  BANK29  BANK30  BANK3
      +1  BANK32  BANK33  BANK34  BANK35  BANK36  BANK37
  2635 ;;      Params:         0       0       0       0       0       0       0       0       0       0       0       0       
      +0       0       0       0       0       0       0       0       0       0       0       0       0       0       0       
      +0       0       0       0       0       0       0
  2636 ;;      Locals:         0       0       0       0       0       0       0       0       0       0       0       0       
      +0       0       0       0       0       0       0       0       0       0       0       0       0       0       0       
      +0       0       0       0       0       0       0
  2637 ;;      Temps:          0       0       0       0       0       0       0       0       0       0       0       0       
      +0       0       0       0       0       0       0       0       0       0       0       0       0       0       0       
      +0       0       0       0       0       0       0
  2638 ;;      Totals:         0       0       0       0       0       0       0       0       0       0       0       0       
      +0       0       0       0       0       0       0       0       0       0       0       0       0       0       0       
      +0       0       0       0       0       0       0
  2639 ;;Total ram usage:        0 bytes
  2640 ;; Hardware stack levels used:    1
  2641 ;; Hardware stack levels required when called:   10
  2642 ;; This function calls:
  2643 ;;		_DELAY_milliseconds
  2644 ;; This function is called by:
  2645 ;;		_main
  2646 ;; This function uses a non-reentrant model
  2647 ;;
  2648                           
  2649                           	psect	text28
  2650  00376A                     __ptext28:
  2651                           	callstack 0
  2652  00376A                     _Init_hardware:
  2653                           	callstack 117
  2654  00376A  92BF               	bcf	191,1,c	;volatile
  2655  00376C  84BF               	bsf	191,2,c	;volatile
  2656  00376E  86C0               	bsf	192,3,c	;volatile
  2657  003770                     
  2658                           ;main.c: 61:     DELAY_milliseconds(200);
  2659  003770  0E00               	movlw	0
  2660  003772  0105               	movlb	5	; () banked
  2661  003774  6F83               	movwf	(DELAY_milliseconds@milliseconds+1)& (0+255),b
  2662  003776  0EC8               	movlw	200
  2663  003778  6F82               	movwf	DELAY_milliseconds@milliseconds& (0+255),b
  2664  00377A  EC13  F01C         	call	_DELAY_milliseconds	;wreg free
  2665  00377E  92BF               	bcf	191,1,c	;volatile
  2666  003780  94BF               	bcf	191,2,c	;volatile
  2667  003782  96C0               	bcf	192,3,c	;volatile
  2668  003784                     
  2669                           ;main.c: 65:     DELAY_milliseconds(200);
  2670  003784  0E00               	movlw	0
  2671  003786  0105               	movlb	5	; () banked
  2672  003788  6F83               	movwf	(DELAY_milliseconds@milliseconds+1)& (0+255),b
  2673  00378A  0EC8               	movlw	200
  2674  00378C  6F82               	movwf	DELAY_milliseconds@milliseconds& (0+255),b
  2675  00378E  EC13  F01C         	call	_DELAY_milliseconds	;wreg free
  2676  003792  82BF               	bsf	191,1,c	;volatile
  2677  003794  94BF               	bcf	191,2,c	;volatile
  2678  003796  86C0               	bsf	192,3,c	;volatile
  2679  003798                     
  2680                           ;main.c: 69:     DELAY_milliseconds(200);
  2681  003798  0E00               	movlw	0
  2682  00379A  0105               	movlb	5	; () banked
  2683  00379C  6F83               	movwf	(DELAY_milliseconds@milliseconds+1)& (0+255),b
  2684  00379E  0EC8               	movlw	200
  2685  0037A0  6F82               	movwf	DELAY_milliseconds@milliseconds& (0+255),b
  2686  0037A2  EC13  F01C         	call	_DELAY_milliseconds	;wreg free
  2687  0037A6  92BF               	bcf	191,1,c	;volatile
  2688  0037A8  94BF               	bcf	191,2,c	;volatile
  2689  0037AA  96C0               	bcf	192,3,c	;volatile
  2690  0037AC  0012               	return		;funcret
  2691  0037AE                     __end_of_Init_hardware:
  2692                           	callstack 0
  2693                           
  2694 ;; *************** function _DELAY_milliseconds *****************
  2695 ;; Defined at:
  2696 ;;		line 38 in file "mcc_generated_files/delay.c"
  2697 ;; Parameters:    Size  Location     Type
  2698 ;;  milliseconds    2    0[BANK5 ] unsigned short 
  2699 ;; Auto vars:     Size  Location     Type
  2700 ;;		None
  2701 ;; Return value:  Size  Location     Type
  2702 ;;                  1    wreg      void 
  2703 ;; Registers used:
  2704 ;;		wreg, status,2, status,0
  2705 ;; Tracked objects:
  2706 ;;		On entry : 0/0
  2707 ;;		On exit  : 0/0
  2708 ;;		Unchanged: 0/0
  2709 ;; Data sizes:     COMRAM   BANK5   BANK6   BANK7   BANK8   BANK9  BANK10  BANK11  BANK12  BANK13  BANK14  BANK15  BANK1
      +6  BANK17  BANK18  BANK19  BANK20  BANK21  BANK22  BANK23  BANK24  BANK25  BANK26  BANK27  BANK28  BANK29  BANK30  BANK3
      +1  BANK32  BANK33  BANK34  BANK35  BANK36  BANK37
  2710 ;;      Params:         0       2       0       0       0       0       0       0       0       0       0       0       
      +0       0       0       0       0       0       0       0       0       0       0       0       0       0       0       
      +0       0       0       0       0       0       0
  2711 ;;      Locals:         0       0       0       0       0       0       0       0       0       0       0       0       
      +0       0       0       0       0       0       0       0       0       0       0       0       0       0       0       
      +0       0       0       0       0       0       0
  2712 ;;      Temps:          0       1       0       0       0       0       0       0       0       0       0       0       
      +0       0       0       0       0       0       0       0       0       0       0       0       0       0       0       
      +0       0       0       0       0       0       0
  2713 ;;      Totals:         0       3       0       0       0       0       0       0       0       0       0       0       
      +0       0       0       0       0       0       0       0       0       0       0       0       0       0       0       
      +0       0       0       0       0       0       0
  2714 ;;Total ram usage:        3 bytes
  2715 ;; Hardware stack levels used:    1
  2716 ;; Hardware stack levels required when called:    9
  2717 ;; This function calls:
  2718 ;;		Nothing
  2719 ;; This function is called by:
  2720 ;;		_Init_hardware
  2721 ;; This function uses a non-reentrant model
  2722 ;;
  2723                           
  2724                           	psect	text29
  2725  003826                     __ptext29:
  2726                           	callstack 0
  2727  003826                     _DELAY_milliseconds:
  2728                           	callstack 117
  2729  003826                     
  2730                           ;mcc_generated_files/delay.c: 39:     while(milliseconds--){
  2731  003826  EF1E  F01C         	goto	l3106
  2732  00382A                     l3104:
  2733                           
  2734                           ; BSR set to: 5
  2735                           ;mcc_generated_files/delay.c: 40:         _delay((unsigned long)((1)*(10000000/4000.0)))
      +                          ;
  2736  00382A  0E04               	movlw	4
  2737  00382C  0105               	movlb	5	; () banked
  2738  00382E  6F84               	movwf	??_DELAY_milliseconds& (0+255),b
  2739  003830  0E3D               	movlw	61
  2740  003832                     u2307:
  2741  003832  2EE8               	decfsz	wreg,f,c
  2742  003834  D7FE               	bra	u2307
  2743  003836  2F84               	decfsz	??_DELAY_milliseconds& (0+255),f,b
  2744  003838  D7FC               	bra	u2307
  2745  00383A  D000               	nop2	
  2746  00383C                     l3106:
  2747                           
  2748                           ;mcc_generated_files/delay.c: 39:     while(milliseconds--){
  2749  00383C  0105               	movlb	5	; () banked
  2750  00383E  0782               	decf	DELAY_milliseconds@milliseconds& (0+255),f,b
  2751  003840  A0D8               	btfss	status,0,c
  2752  003842  0783               	decf	(DELAY_milliseconds@milliseconds+1)& (0+255),f,b
  2753  003844  2982               	incf	DELAY_milliseconds@milliseconds& (0+255),w,b
  2754  003846  E106               	bnz	u1961
  2755  003848  2983               	incf	(DELAY_milliseconds@milliseconds+1)& (0+255),w,b
  2756  00384A  A4D8               	btfss	status,2,c
  2757  00384C  EF2A  F01C         	goto	u1961
  2758  003850  EF2C  F01C         	goto	u1960
  2759  003854                     u1961:
  2760  003854  EF15  F01C         	goto	l3104
  2761  003858                     u1960:
  2762  003858                     
  2763                           ; BSR set to: 5
  2764  003858  0012               	return		;funcret
  2765  00385A                     __end_of_DELAY_milliseconds:
  2766                           	callstack 0
  2767                           
  2768 ;; *************** function _INTERRUPT_InterruptManager *****************
  2769 ;; Defined at:
  2770 ;;		line 58 in file "mcc_generated_files/interrupt_manager.c"
  2771 ;; Parameters:    Size  Location     Type
  2772 ;;		None
  2773 ;; Auto vars:     Size  Location     Type
  2774 ;;		None
  2775 ;; Return value:  Size  Location     Type
  2776 ;;                  1    wreg      void 
  2777 ;; Registers used:
  2778 ;;		wreg, fsr1l, fsr1h, fsr2l, fsr2h, status,2, status,0, pclath, tosl, tblptrl, tblptrh, tblptru, prodl, prodh, cstack
  2779 ;; Tracked objects:
  2780 ;;		On entry : 0/0
  2781 ;;		On exit  : 0/0
  2782 ;;		Unchanged: 0/0
  2783 ;; Data sizes:     COMRAM   BANK5   BANK6   BANK7   BANK8   BANK9  BANK10  BANK11  BANK12  BANK13  BANK14  BANK15  BANK1
      +6  BANK17  BANK18  BANK19  BANK20  BANK21  BANK22  BANK23  BANK24  BANK25  BANK26  BANK27  BANK28  BANK29  BANK30  BANK3
      +1  BANK32  BANK33  BANK34  BANK35  BANK36  BANK37
  2784 ;;      Params:         0       0       0       0       0       0       0       0       0       0       0       0       
      +0       0       0       0       0       0       0       0       0       0       0       0       0       0       0       
      +0       0       0       0       0       0       0
  2785 ;;      Locals:         0       0       0       0       0       0       0       0       0       0       0       0       
      +0       0       0       0       0       0       0       0       0       0       0       0       0       0       0       
      +0       0       0       0       0       0       0
  2786 ;;      Temps:          4       0       0       0       0       0       0       0       0       0       0       0       
      +0       0       0       0       0       0       0       0       0       0       0       0       0       0       0       
      +0       0       0       0       0       0       0
  2787 ;;      Totals:         4       0       0       0       0       0       0       0       0       0       0       0       
      +0       0       0       0       0       0       0       0       0       0       0       0       0       0       0       
      +0       0       0       0       0       0       0
  2788 ;;Total ram usage:        4 bytes
  2789 ;; Hardware stack levels used:    1
  2790 ;; Hardware stack levels required when called:    8
  2791 ;; This function calls:
  2792 ;;		_CAN1_ISR
  2793 ;;		_CAN1_RXI_ISR
  2794 ;;		_TMR0_ISR
  2795 ;;		_TMR1_ISR
  2796 ;; This function is called by:
  2797 ;;		Interrupt level 2
  2798 ;; This function uses a non-reentrant model
  2799 ;;
  2800                           
  2801                           	psect	text30
  2802  0031D4                     __ptext30:
  2803                           	callstack 0
  2804  0031D4                     _INTERRUPT_InterruptManager:
  2805                           	callstack 115
  2806                           
  2807                           ; BSR set to: 5
  2808                           ;incstack = 0
  2809  0031D4  0061 F3D8  F538    	movff	tblptrl,??_INTERRUPT_InterruptManager
  2810  0031DA  0061 F3DC  F539    	movff	tblptrh,??_INTERRUPT_InterruptManager+1
  2811  0031E0  0061 F3E0  F53A    	movff	tblptru,??_INTERRUPT_InterruptManager+2
  2812  0031E6  0061 F3D4  F53B    	movff	tablat,??_INTERRUPT_InterruptManager+3
  2813  0031EC                     
  2814                           ;mcc_generated_files/interrupt_manager.c: 60:     __nop();
  2815  0031EC  F000               	nop	
  2816                           
  2817                           ;mcc_generated_files/interrupt_manager.c: 61:     __nop();
  2818  0031EE  F000               	nop	
  2819                           
  2820                           ;mcc_generated_files/interrupt_manager.c: 63:     if(PIE0bits.CANIE == 1 && PIR0bits.CAN
      +                          IF == 1)
  2821  0031F0  AC9E               	btfss	158,6,c	;volatile
  2822  0031F2  EFFD  F018         	goto	i2u222_41
  2823  0031F6  EFFF  F018         	goto	i2u222_40
  2824  0031FA                     i2u222_41:
  2825  0031FA  EF0A  F019         	goto	i2l501
  2826  0031FE                     i2u222_40:
  2827  0031FE  ACAE               	btfss	174,6,c	;volatile
  2828  003200  EF04  F019         	goto	i2u223_41
  2829  003204  EF06  F019         	goto	i2u223_40
  2830  003208                     i2u223_41:
  2831  003208  EF0A  F019         	goto	i2l501
  2832  00320C                     i2u223_40:
  2833  00320C                     
  2834                           ;mcc_generated_files/interrupt_manager.c: 64:     {;mcc_generated_files/interrupt_manage
      +                          r.c: 65:         CAN1_ISR();
  2835  00320C  EC4A  F015         	call	_CAN1_ISR	;wreg free
  2836                           
  2837                           ;mcc_generated_files/interrupt_manager.c: 66:     }
  2838  003210  EF40  F019         	goto	i2l509
  2839  003214                     i2l501:
  2840  003214  A8A2               	btfss	162,4,c	;volatile
  2841  003216  EF0F  F019         	goto	i2u224_41
  2842  00321A  EF11  F019         	goto	i2u224_40
  2843  00321E                     i2u224_41:
  2844  00321E  EF1C  F019         	goto	i2l503
  2845  003222                     i2u224_40:
  2846  003222  A8B2               	btfss	178,4,c	;volatile
  2847  003224  EF16  F019         	goto	i2u225_41
  2848  003228  EF18  F019         	goto	i2u225_40
  2849  00322C                     i2u225_41:
  2850  00322C  EF1C  F019         	goto	i2l503
  2851  003230                     i2u225_40:
  2852  003230                     
  2853                           ;mcc_generated_files/interrupt_manager.c: 68:     {;mcc_generated_files/interrupt_manage
      +                          r.c: 69:         CAN1_RXI_ISR();
  2854  003230  EC9E  F01C         	call	_CAN1_RXI_ISR	;wreg free
  2855                           
  2856                           ;mcc_generated_files/interrupt_manager.c: 70:     }
  2857  003234  EF40  F019         	goto	i2l509
  2858  003238                     i2l503:
  2859  003238  AEA1               	btfss	161,7,c	;volatile
  2860  00323A  EF21  F019         	goto	i2u226_41
  2861  00323E  EF23  F019         	goto	i2u226_40
  2862  003242                     i2u226_41:
  2863  003242  EF2E  F019         	goto	i2l505
  2864  003246                     i2u226_40:
  2865  003246  AEB1               	btfss	177,7,c	;volatile
  2866  003248  EF28  F019         	goto	i2u227_41
  2867  00324C  EF2A  F019         	goto	i2u227_40
  2868  003250                     i2u227_41:
  2869  003250  EF2E  F019         	goto	i2l505
  2870  003254                     i2u227_40:
  2871  003254                     
  2872                           ;mcc_generated_files/interrupt_manager.c: 72:     {;mcc_generated_files/interrupt_manage
      +                          r.c: 73:         TMR0_ISR();
  2873  003254  EC40  F01A         	call	_TMR0_ISR	;wreg free
  2874                           
  2875                           ;mcc_generated_files/interrupt_manager.c: 74:     }
  2876  003258  EF40  F019         	goto	i2l509
  2877  00325C                     i2l505:
  2878  00325C  A8A1               	btfss	161,4,c	;volatile
  2879  00325E  EF33  F019         	goto	i2u228_41
  2880  003262  EF35  F019         	goto	i2u228_40
  2881  003266                     i2u228_41:
  2882  003266  EF40  F019         	goto	i2l504
  2883  00326A                     i2u228_40:
  2884  00326A  A8B1               	btfss	177,4,c	;volatile
  2885  00326C  EF3A  F019         	goto	i2u229_41
  2886  003270  EF3C  F019         	goto	i2u229_40
  2887  003274                     i2u229_41:
  2888  003274  EF40  F019         	goto	i2l504
  2889  003278                     i2u229_40:
  2890  003278                     
  2891                           ;mcc_generated_files/interrupt_manager.c: 76:     {;mcc_generated_files/interrupt_manage
      +                          r.c: 77:         TMR1_ISR();
  2892  003278  ECF6  F01B         	call	_TMR1_ISR	;wreg free
  2893                           
  2894                           ;mcc_generated_files/interrupt_manager.c: 78:     }
  2895  00327C  EF40  F019         	goto	i2l509
  2896  003280                     i2l504:
  2897  003280                     i2l509:
  2898  003280  0061  F4EC  F4F5   	movff	??_INTERRUPT_InterruptManager+3,tablat
  2899  003286  0061  F4E8  F4F8   	movff	??_INTERRUPT_InterruptManager+2,tblptru
  2900  00328C  0061  F4E4  F4F7   	movff	??_INTERRUPT_InterruptManager+1,tblptrh
  2901  003292  0061  F4E0  F4F6   	movff	??_INTERRUPT_InterruptManager,tblptrl
  2902  003298  0011               	retfie		f
  2903  00329A                     __end_of_INTERRUPT_InterruptManager:
  2904                           	callstack 0
  2905                           
  2906 ;; *************** function _TMR1_ISR *****************
  2907 ;; Defined at:
  2908 ;;		line 164 in file "mcc_generated_files/tmr1.c"
  2909 ;; Parameters:    Size  Location     Type
  2910 ;;		None
  2911 ;; Auto vars:     Size  Location     Type
  2912 ;;		None
  2913 ;; Return value:  Size  Location     Type
  2914 ;;                  1    wreg      void 
  2915 ;; Registers used:
  2916 ;;		wreg, status,2, status,0, pclath, tosl, cstack
  2917 ;; Tracked objects:
  2918 ;;		On entry : 0/0
  2919 ;;		On exit  : 0/0
  2920 ;;		Unchanged: 0/0
  2921 ;; Data sizes:     COMRAM   BANK5   BANK6   BANK7   BANK8   BANK9  BANK10  BANK11  BANK12  BANK13  BANK14  BANK15  BANK1
      +6  BANK17  BANK18  BANK19  BANK20  BANK21  BANK22  BANK23  BANK24  BANK25  BANK26  BANK27  BANK28  BANK29  BANK30  BANK3
      +1  BANK32  BANK33  BANK34  BANK35  BANK36  BANK37
  2922 ;;      Params:         0       0       0       0       0       0       0       0       0       0       0       0       
      +0       0       0       0       0       0       0       0       0       0       0       0       0       0       0       
      +0       0       0       0       0       0       0
  2923 ;;      Locals:         0       0       0       0       0       0       0       0       0       0       0       0       
      +0       0       0       0       0       0       0       0       0       0       0       0       0       0       0       
      +0       0       0       0       0       0       0
  2924 ;;      Temps:          0       0       0       0       0       0       0       0       0       0       0       0       
      +0       0       0       0       0       0       0       0       0       0       0       0       0       0       0       
      +0       0       0       0       0       0       0
  2925 ;;      Totals:         0       0       0       0       0       0       0       0       0       0       0       0       
      +0       0       0       0       0       0       0       0       0       0       0       0       0       0       0       
      +0       0       0       0       0       0       0
  2926 ;;Total ram usage:        0 bytes
  2927 ;; Hardware stack levels used:    1
  2928 ;; Hardware stack levels required when called:    2
  2929 ;; This function calls:
  2930 ;;		_LEDS
  2931 ;;		_TMR1_CallBack
  2932 ;;		_TMR1_WriteTimer
  2933 ;; This function is called by:
  2934 ;;		_INTERRUPT_InterruptManager
  2935 ;; This function uses a non-reentrant model
  2936 ;;
  2937                           
  2938                           	psect	text31
  2939  0037EC                     __ptext31:
  2940                           	callstack 0
  2941  0037EC                     _TMR1_ISR:
  2942                           	callstack 120
  2943  0037EC                     
  2944                           ;mcc_generated_files/tmr1.c: 166:     static volatile unsigned int CountCallBack = 0;;mc
      +                          c_generated_files/tmr1.c: 169:     PIR3bits.TMR1IF = 0;
  2945  0037EC  98B1               	bcf	177,4,c	;volatile
  2946  0037EE                     
  2947                           ;mcc_generated_files/tmr1.c: 170:     TMR1_WriteTimer(timer1ReloadVal);
  2948  0037EE  C55D  F501         	movff	_timer1ReloadVal,TMR1_WriteTimer@timerVal	;volatile
  2949  0037F2  C55E  F502         	movff	_timer1ReloadVal+1,TMR1_WriteTimer@timerVal+1	;volatile
  2950  0037F6  EC44  F01C         	call	_TMR1_WriteTimer	;wreg free
  2951  0037FA                     
  2952                           ;mcc_generated_files/tmr1.c: 173:     if (++CountCallBack >= 5)
  2953  0037FA  4A46               	infsnz	TMR1_ISR@CountCallBack^(0+1280),f,c	;volatile
  2954  0037FC  2A47               	incf	(TMR1_ISR@CountCallBack+1)^(0+1280),f,c	;volatile
  2955  0037FE  5047               	movf	(TMR1_ISR@CountCallBack+1)^(0+1280),w,c	;volatile
  2956  003800  E109               	bnz	i2u215_40
  2957  003802  0E05               	movlw	5
  2958  003804  5C46               	subwf	TMR1_ISR@CountCallBack^(0+1280),w,c	;volatile
  2959  003806  A0D8               	btfss	status,0,c
  2960  003808  EF08  F01C         	goto	i2u215_41
  2961  00380C  EF0A  F01C         	goto	i2u215_40
  2962  003810                     i2u215_41:
  2963  003810  EF12  F01C         	goto	i2l459
  2964  003814                     i2u215_40:
  2965  003814                     
  2966                           ;mcc_generated_files/tmr1.c: 174:     {;mcc_generated_files/tmr1.c: 175:         LEDS();
  2967  003814  EC4D  F019         	call	_LEDS	;wreg free
  2968  003818                     
  2969                           ;mcc_generated_files/tmr1.c: 177:         TMR1_CallBack();
  2970  003818  EC5B  F01C         	call	_TMR1_CallBack	;wreg free
  2971  00381C                     
  2972                           ;mcc_generated_files/tmr1.c: 180:         CountCallBack = 0;
  2973  00381C  0E00               	movlw	0
  2974  00381E  6E47               	movwf	(TMR1_ISR@CountCallBack+1)^(0+1280),c	;volatile
  2975  003820  0E00               	movlw	0
  2976  003822  6E46               	movwf	TMR1_ISR@CountCallBack^(0+1280),c	;volatile
  2977  003824                     i2l459:
  2978  003824  0012               	return		;funcret
  2979  003826                     __end_of_TMR1_ISR:
  2980                           	callstack 0
  2981                           
  2982 ;; *************** function _TMR1_WriteTimer *****************
  2983 ;; Defined at:
  2984 ;;		line 127 in file "mcc_generated_files/tmr1.c"
  2985 ;; Parameters:    Size  Location     Type
  2986 ;;  timerVal        2    0[COMRAM] unsigned short 
  2987 ;; Auto vars:     Size  Location     Type
  2988 ;;		None
  2989 ;; Return value:  Size  Location     Type
  2990 ;;                  1    wreg      void 
  2991 ;; Registers used:
  2992 ;;		wreg, status,2
  2993 ;; Tracked objects:
  2994 ;;		On entry : 0/0
  2995 ;;		On exit  : 0/0
  2996 ;;		Unchanged: 0/0
  2997 ;; Data sizes:     COMRAM   BANK5   BANK6   BANK7   BANK8   BANK9  BANK10  BANK11  BANK12  BANK13  BANK14  BANK15  BANK1
      +6  BANK17  BANK18  BANK19  BANK20  BANK21  BANK22  BANK23  BANK24  BANK25  BANK26  BANK27  BANK28  BANK29  BANK30  BANK3
      +1  BANK32  BANK33  BANK34  BANK35  BANK36  BANK37
  2998 ;;      Params:         2       0       0       0       0       0       0       0       0       0       0       0       
      +0       0       0       0       0       0       0       0       0       0       0       0       0       0       0       
      +0       0       0       0       0       0       0
  2999 ;;      Locals:         0       0       0       0       0       0       0       0       0       0       0       0       
      +0       0       0       0       0       0       0       0       0       0       0       0       0       0       0       
      +0       0       0       0       0       0       0
  3000 ;;      Temps:          0       0       0       0       0       0       0       0       0       0       0       0       
      +0       0       0       0       0       0       0       0       0       0       0       0       0       0       0       
      +0       0       0       0       0       0       0
  3001 ;;      Totals:         2       0       0       0       0       0       0       0       0       0       0       0       
      +0       0       0       0       0       0       0       0       0       0       0       0       0       0       0       
      +0       0       0       0       0       0       0
  3002 ;;Total ram usage:        2 bytes
  3003 ;; Hardware stack levels used:    1
  3004 ;; This function calls:
  3005 ;;		Nothing
  3006 ;; This function is called by:
  3007 ;;		_TMR1_ISR
  3008 ;;		_TMR1_Reload
  3009 ;; This function uses a non-reentrant model
  3010 ;;
  3011                           
  3012                           	psect	text32
  3013  003888                     __ptext32:
  3014                           	callstack 0
  3015  003888                     _TMR1_WriteTimer:
  3016                           	callstack 121
  3017  003888                     
  3018                           ;mcc_generated_files/tmr1.c: 127: void TMR1_WriteTimer(uint16_t timerVal);mcc_generated_
      +                          files/tmr1.c: 128: {;mcc_generated_files/tmr1.c: 129:     if (T1CONbits.NOT_SYNC == 1)
  3019  003888  0103               	movlb	3	; () banked
  3020  00388A  A51E               	btfss	30,2,b	;volatile
  3021  00388C  EF4A  F01C         	goto	i2u187_41
  3022  003890  EF4C  F01C         	goto	i2u187_40
  3023  003894                     i2u187_41:
  3024  003894  EF55  F01C         	goto	i2l3066
  3025  003898                     i2u187_40:
  3026  003898                     
  3027                           ; BSR set to: 3
  3028                           ;mcc_generated_files/tmr1.c: 130:     {;mcc_generated_files/tmr1.c: 132:         T1CONbi
      +                          ts.TMR1ON = 0;
  3029  003898  911E               	bcf	30,0,b	;volatile
  3030  00389A                     
  3031                           ; BSR set to: 3
  3032                           ;mcc_generated_files/tmr1.c: 135:         TMR1H = (uint8_t)(timerVal >> 8);
  3033  00389A  5002               	movf	(TMR1_WriteTimer@timerVal+1)^(0+1280),w,c
  3034  00389C  6F1D               	movwf	29,b	;volatile
  3035  00389E                     
  3036                           ; BSR set to: 3
  3037                           ;mcc_generated_files/tmr1.c: 136:         TMR1L = (uint8_t)timerVal;
  3038  00389E  0061  F404  F31C   	movff	TMR1_WriteTimer@timerVal,796	;volatile
  3039  0038A4                     
  3040                           ; BSR set to: 3
  3041                           ;mcc_generated_files/tmr1.c: 139:         T1CONbits.TMR1ON =1;
  3042  0038A4  811E               	bsf	30,0,b	;volatile
  3043                           
  3044                           ;mcc_generated_files/tmr1.c: 140:     }
  3045  0038A6  EF5A  F01C         	goto	i2l444
  3046  0038AA                     i2l3066:
  3047                           
  3048                           ; BSR set to: 3
  3049                           ;mcc_generated_files/tmr1.c: 142:     {;mcc_generated_files/tmr1.c: 144:         TMR1H =
      +                           (uint8_t)(timerVal >> 8);
  3050  0038AA  5002               	movf	(TMR1_WriteTimer@timerVal+1)^(0+1280),w,c
  3051  0038AC  6F1D               	movwf	29,b	;volatile
  3052  0038AE                     
  3053                           ; BSR set to: 3
  3054                           ;mcc_generated_files/tmr1.c: 145:         TMR1L = (uint8_t)timerVal;
  3055  0038AE  0061  F404  F31C   	movff	TMR1_WriteTimer@timerVal,796	;volatile
  3056  0038B4                     i2l444:
  3057                           
  3058                           ; BSR set to: 3
  3059  0038B4  0012               	return		;funcret
  3060  0038B6                     __end_of_TMR1_WriteTimer:
  3061                           	callstack 0
  3062                           
  3063 ;; *************** function _TMR1_CallBack *****************
  3064 ;; Defined at:
  3065 ;;		line 186 in file "mcc_generated_files/tmr1.c"
  3066 ;; Parameters:    Size  Location     Type
  3067 ;;		None
  3068 ;; Auto vars:     Size  Location     Type
  3069 ;;		None
  3070 ;; Return value:  Size  Location     Type
  3071 ;;                  1    wreg      void 
  3072 ;; Registers used:
  3073 ;;		wreg, status,2, status,0, pclath, tosl, cstack
  3074 ;; Tracked objects:
  3075 ;;		On entry : 0/0
  3076 ;;		On exit  : 0/0
  3077 ;;		Unchanged: 0/0
  3078 ;; Data sizes:     COMRAM   BANK5   BANK6   BANK7   BANK8   BANK9  BANK10  BANK11  BANK12  BANK13  BANK14  BANK15  BANK1
      +6  BANK17  BANK18  BANK19  BANK20  BANK21  BANK22  BANK23  BANK24  BANK25  BANK26  BANK27  BANK28  BANK29  BANK30  BANK3
      +1  BANK32  BANK33  BANK34  BANK35  BANK36  BANK37
  3079 ;;      Params:         0       0       0       0       0       0       0       0       0       0       0       0       
      +0       0       0       0       0       0       0       0       0       0       0       0       0       0       0       
      +0       0       0       0       0       0       0
  3080 ;;      Locals:         0       0       0       0       0       0       0       0       0       0       0       0       
      +0       0       0       0       0       0       0       0       0       0       0       0       0       0       0       
      +0       0       0       0       0       0       0
  3081 ;;      Temps:          0       0       0       0       0       0       0       0       0       0       0       0       
      +0       0       0       0       0       0       0       0       0       0       0       0       0       0       0       
      +0       0       0       0       0       0       0
  3082 ;;      Totals:         0       0       0       0       0       0       0       0       0       0       0       0       
      +0       0       0       0       0       0       0       0       0       0       0       0       0       0       0       
      +0       0       0       0       0       0       0
  3083 ;;Total ram usage:        0 bytes
  3084 ;; Hardware stack levels used:    1
  3085 ;; Hardware stack levels required when called:    1
  3086 ;; This function calls:
  3087 ;;		Absolute function
  3088 ;;		_TMR1_DefaultInterruptHandler
  3089 ;; This function is called by:
  3090 ;;		_TMR1_ISR
  3091 ;; This function uses a non-reentrant model
  3092 ;;
  3093                           
  3094                           	psect	text33
  3095  0038B6                     __ptext33:
  3096                           	callstack 0
  3097  0038B6                     _TMR1_CallBack:
  3098                           	callstack 120
  3099  0038B6                     
  3100                           ;mcc_generated_files/tmr1.c: 189:     if(TMR1_InterruptHandler)
  3101  0038B6  0105               	movlb	5	; () banked
  3102  0038B8  5180               	movf	_TMR1_InterruptHandler& (0+255),w,b
  3103  0038BA  1181               	iorwf	(_TMR1_InterruptHandler+1)& (0+255),w,b
  3104  0038BC  B4D8               	btfsc	status,2,c
  3105  0038BE  EF63  F01C         	goto	i2u188_41
  3106  0038C2  EF65  F01C         	goto	i2u188_40
  3107  0038C6                     i2u188_41:
  3108  0038C6  EF71  F01C         	goto	i2l463
  3109  0038CA                     i2u188_40:
  3110  0038CA                     
  3111                           ; BSR set to: 5
  3112                           ;mcc_generated_files/tmr1.c: 190:     {;mcc_generated_files/tmr1.c: 191:         TMR1_In
      +                          terruptHandler();
  3113  0038CA  D802               	call	i2u189_48
  3114  0038CC  EF71  F01C         	goto	i2u189_49
  3115  0038D0                     i2u189_48:
  3116  0038D0  0005               	push	
  3117  0038D2  6EFA               	movwf	pclath,c
  3118  0038D4  5180               	movf	_TMR1_InterruptHandler& (0+255),w,b
  3119  0038D6  6EFD               	movwf	tosl,c
  3120  0038D8  5181               	movf	(_TMR1_InterruptHandler+1)& (0+255),w,b
  3121  0038DA  6EFE               	movwf	tosh,c
  3122  0038DC  6AFF               	clrf	tosu,c
  3123  0038DE  50FA               	movf	pclath,w,c
  3124  0038E0  0012               	return		;indir
  3125  0038E2                     i2u189_49:
  3126  0038E2                     i2l463:
  3127  0038E2  0012               	return		;funcret
  3128  0038E4                     __end_of_TMR1_CallBack:
  3129                           	callstack 0
  3130                           
  3131 ;; *************** function _TMR1_DefaultInterruptHandler *****************
  3132 ;; Defined at:
  3133 ;;		line 199 in file "mcc_generated_files/tmr1.c"
  3134 ;; Parameters:    Size  Location     Type
  3135 ;;		None
  3136 ;; Auto vars:     Size  Location     Type
  3137 ;;		None
  3138 ;; Return value:  Size  Location     Type
  3139 ;;                  1    wreg      void 
  3140 ;; Registers used:
  3141 ;;		None
  3142 ;; Tracked objects:
  3143 ;;		On entry : 0/0
  3144 ;;		On exit  : 0/0
  3145 ;;		Unchanged: 0/0
  3146 ;; Data sizes:     COMRAM   BANK5   BANK6   BANK7   BANK8   BANK9  BANK10  BANK11  BANK12  BANK13  BANK14  BANK15  BANK1
      +6  BANK17  BANK18  BANK19  BANK20  BANK21  BANK22  BANK23  BANK24  BANK25  BANK26  BANK27  BANK28  BANK29  BANK30  BANK3
      +1  BANK32  BANK33  BANK34  BANK35  BANK36  BANK37
  3147 ;;      Params:         0       0       0       0       0       0       0       0       0       0       0       0       
      +0       0       0       0       0       0       0       0       0       0       0       0       0       0       0       
      +0       0       0       0       0       0       0
  3148 ;;      Locals:         0       0       0       0       0       0       0       0       0       0       0       0       
      +0       0       0       0       0       0       0       0       0       0       0       0       0       0       0       
      +0       0       0       0       0       0       0
  3149 ;;      Temps:          0       0       0       0       0       0       0       0       0       0       0       0       
      +0       0       0       0       0       0       0       0       0       0       0       0       0       0       0       
      +0       0       0       0       0       0       0
  3150 ;;      Totals:         0       0       0       0       0       0       0       0       0       0       0       0       
      +0       0       0       0       0       0       0       0       0       0       0       0       0       0       0       
      +0       0       0       0       0       0       0
  3151 ;;Total ram usage:        0 bytes
  3152 ;; Hardware stack levels used:    1
  3153 ;; This function calls:
  3154 ;;		Nothing
  3155 ;; This function is called by:
  3156 ;;		_TMR1_Initialize
  3157 ;;		_TMR1_CallBack
  3158 ;; This function uses a non-reentrant model
  3159 ;;
  3160                           
  3161                           	psect	text34
  3162  003BD4                     __ptext34:
  3163                           	callstack 0
  3164  003BD4                     _TMR1_DefaultInterruptHandler:
  3165                           	callstack 120
  3166  003BD4  0012               	return		;funcret
  3167  003BD6                     __end_of_TMR1_DefaultInterruptHandler:
  3168                           	callstack 0
  3169                           
  3170 ;; *************** function _TMR0_ISR *****************
  3171 ;; Defined at:
  3172 ;;		line 124 in file "mcc_generated_files/tmr0.c"
  3173 ;; Parameters:    Size  Location     Type
  3174 ;;		None
  3175 ;; Auto vars:     Size  Location     Type
  3176 ;;		None
  3177 ;; Return value:  Size  Location     Type
  3178 ;;                  1    wreg      void 
  3179 ;; Registers used:
  3180 ;;		wreg, fsr1l, fsr1h, fsr2l, fsr2h, status,2, status,0, pclath, tosl, tblptrl, tblptrh, tblptru, prodl, prodh, cstack
  3181 ;; Tracked objects:
  3182 ;;		On entry : 0/0
  3183 ;;		On exit  : 0/0
  3184 ;;		Unchanged: 0/0
  3185 ;; Data sizes:     COMRAM   BANK5   BANK6   BANK7   BANK8   BANK9  BANK10  BANK11  BANK12  BANK13  BANK14  BANK15  BANK1
      +6  BANK17  BANK18  BANK19  BANK20  BANK21  BANK22  BANK23  BANK24  BANK25  BANK26  BANK27  BANK28  BANK29  BANK30  BANK3
      +1  BANK32  BANK33  BANK34  BANK35  BANK36  BANK37
  3186 ;;      Params:         0       0       0       0       0       0       0       0       0       0       0       0       
      +0       0       0       0       0       0       0       0       0       0       0       0       0       0       0       
      +0       0       0       0       0       0       0
  3187 ;;      Locals:         0       0       0       0       0       0       0       0       0       0       0       0       
      +0       0       0       0       0       0       0       0       0       0       0       0       0       0       0       
      +0       0       0       0       0       0       0
  3188 ;;      Temps:          1       0       0       0       0       0       0       0       0       0       0       0       
      +0       0       0       0       0       0       0       0       0       0       0       0       0       0       0       
      +0       0       0       0       0       0       0
  3189 ;;      Totals:         1       0       0       0       0       0       0       0       0       0       0       0       
      +0       0       0       0       0       0       0       0       0       0       0       0       0       0       0       
      +0       0       0       0       0       0       0
  3190 ;;Total ram usage:        1 bytes
  3191 ;; Hardware stack levels used:    1
  3192 ;; Hardware stack levels required when called:    7
  3193 ;; This function calls:
  3194 ;;		_TEMPORIZATION_1s
  3195 ;;		_TMR0_CallBack
  3196 ;; This function is called by:
  3197 ;;		_INTERRUPT_InterruptManager
  3198 ;; This function uses a non-reentrant model
  3199 ;;
  3200                           
  3201                           	psect	text35
  3202  003480                     __ptext35:
  3203                           	callstack 0
  3204  003480                     _TMR0_ISR:
  3205                           	callstack 115
  3206  003480                     
  3207                           ;mcc_generated_files/tmr0.c: 126:     static volatile uint16_t CountCallBack = 0;;mcc_ge
      +                          nerated_files/tmr0.c: 129:     PIR3bits.TMR0IF = 0;
  3208  003480  9EB1               	bcf	177,7,c	;volatile
  3209  003482                     
  3210                           ;mcc_generated_files/tmr0.c: 131:     if (++CountCallBack >= 4)
  3211  003482  4A3C               	infsnz	TMR0_ISR@CountCallBack^(0+1280),f,c	;volatile
  3212  003484  2A3D               	incf	(TMR0_ISR@CountCallBack+1)^(0+1280),f,c	;volatile
  3213  003486  503D               	movf	(TMR0_ISR@CountCallBack+1)^(0+1280),w,c	;volatile
  3214  003488  E109               	bnz	i2u216_40
  3215  00348A  0E04               	movlw	4
  3216  00348C  5C3C               	subwf	TMR0_ISR@CountCallBack^(0+1280),w,c	;volatile
  3217  00348E  A0D8               	btfss	status,0,c
  3218  003490  EF4C  F01A         	goto	i2u216_41
  3219  003494  EF4E  F01A         	goto	i2u216_40
  3220  003498                     i2u216_41:
  3221  003498  EF56  F01A         	goto	i2l3194
  3222  00349C                     i2u216_40:
  3223  00349C                     
  3224                           ;mcc_generated_files/tmr0.c: 132:     {;mcc_generated_files/tmr0.c: 135:         TEMPORI
      +                          ZATION_1s();
  3225  00349C  EC20  F018         	call	_TEMPORIZATION_1s	;wreg free
  3226  0034A0                     
  3227                           ;mcc_generated_files/tmr0.c: 138:         TMR0_CallBack();
  3228  0034A0  EC72  F01C         	call	_TMR0_CallBack	;wreg free
  3229  0034A4                     
  3230                           ;mcc_generated_files/tmr0.c: 141:         CountCallBack = 0;
  3231  0034A4  0E00               	movlw	0
  3232  0034A6  6E3D               	movwf	(TMR0_ISR@CountCallBack+1)^(0+1280),c	;volatile
  3233  0034A8  0E00               	movlw	0
  3234  0034AA  6E3C               	movwf	TMR0_ISR@CountCallBack^(0+1280),c	;volatile
  3235  0034AC                     i2l3194:
  3236                           
  3237                           ;mcc_generated_files/tmr0.c: 147:     if (ucFlagEmergencySpeaker == 1)
  3238  0034AC  044E               	decf	_ucFlagEmergencySpeaker^(0+1280),w,c
  3239  0034AE  A4D8               	btfss	status,2,c
  3240  0034B0  EF5C  F01A         	goto	i2u217_41
  3241  0034B4  EF5E  F01A         	goto	i2u217_40
  3242  0034B8                     i2u217_41:
  3243  0034B8  EF7F  F01A         	goto	i2l583
  3244  0034BC                     i2u217_40:
  3245  0034BC                     
  3246                           ;mcc_generated_files/tmr0.c: 148:     {;mcc_generated_files/tmr0.c: 149:         if ( ++
      +                          ucSpeakerCount >= 36)
  3247  0034BC  2A4D               	incf	_ucSpeakerCount^(0+1280),f,c
  3248  0034BE  0E23               	movlw	35
  3249  0034C0  644D               	cpfsgt	_ucSpeakerCount^(0+1280),c
  3250  0034C2  EF65  F01A         	goto	i2u218_41
  3251  0034C6  EF67  F01A         	goto	i2u218_40
  3252  0034CA                     i2u218_41:
  3253  0034CA  EF6C  F01A         	goto	i2l3202
  3254  0034CE                     i2u218_40:
  3255  0034CE                     
  3256                           ;mcc_generated_files/tmr0.c: 150:         {;mcc_generated_files/tmr0.c: 151:            
      +                           ucFlagEmergencySpeaker = 0;
  3257  0034CE  0E00               	movlw	0
  3258  0034D0  6E4E               	movwf	_ucFlagEmergencySpeaker^(0+1280),c
  3259                           
  3260                           ;mcc_generated_files/tmr0.c: 152:             ucSpeakerCount = 0;
  3261  0034D2  0E00               	movlw	0
  3262  0034D4  6E4D               	movwf	_ucSpeakerCount^(0+1280),c
  3263  0034D6  96C0               	bcf	192,3,c	;volatile
  3264  0034D8                     i2l3202:
  3265  0034D8  B6C0               	btfsc	192,3,c	;volatile
  3266  0034DA  EF71  F01A         	goto	i2u219_41
  3267  0034DE  EF74  F01A         	goto	i2u219_40
  3268  0034E2                     i2u219_41:
  3269  0034E2  0E01               	movlw	1
  3270  0034E4  EF75  F01A         	goto	i2u219_46
  3271  0034E8                     i2u219_40:
  3272  0034E8  0E00               	movlw	0
  3273  0034EA                     i2u219_46:
  3274  0034EA  0AFF               	xorlw	255
  3275  0034EC  6E30               	movwf	??_TMR0_ISR^(0+1280),c
  3276  0034EE  4630               	rlncf	??_TMR0_ISR^(0+1280),f,c
  3277  0034F0  4630               	rlncf	??_TMR0_ISR^(0+1280),f,c
  3278  0034F2  4630               	rlncf	??_TMR0_ISR^(0+1280),f,c
  3279  0034F4  50C0               	movf	192,w,c	;volatile
  3280  0034F6  1830               	xorwf	??_TMR0_ISR^(0+1280),w,c
  3281  0034F8  0BF7               	andlw	-9
  3282  0034FA  1830               	xorwf	??_TMR0_ISR^(0+1280),w,c
  3283  0034FC  6EC0               	movwf	192,c	;volatile
  3284  0034FE                     i2l583:
  3285  0034FE  0012               	return		;funcret
  3286  003500                     __end_of_TMR0_ISR:
  3287                           	callstack 0
  3288                           
  3289 ;; *************** function _TMR0_CallBack *****************
  3290 ;; Defined at:
  3291 ;;		line 159 in file "mcc_generated_files/tmr0.c"
  3292 ;; Parameters:    Size  Location     Type
  3293 ;;		None
  3294 ;; Auto vars:     Size  Location     Type
  3295 ;;		None
  3296 ;; Return value:  Size  Location     Type
  3297 ;;                  1    wreg      void 
  3298 ;; Registers used:
  3299 ;;		wreg, status,2, status,0, pclath, tosl, cstack
  3300 ;; Tracked objects:
  3301 ;;		On entry : 0/0
  3302 ;;		On exit  : 0/0
  3303 ;;		Unchanged: 0/0
  3304 ;; Data sizes:     COMRAM   BANK5   BANK6   BANK7   BANK8   BANK9  BANK10  BANK11  BANK12  BANK13  BANK14  BANK15  BANK1
      +6  BANK17  BANK18  BANK19  BANK20  BANK21  BANK22  BANK23  BANK24  BANK25  BANK26  BANK27  BANK28  BANK29  BANK30  BANK3
      +1  BANK32  BANK33  BANK34  BANK35  BANK36  BANK37
  3305 ;;      Params:         0       0       0       0       0       0       0       0       0       0       0       0       
      +0       0       0       0       0       0       0       0       0       0       0       0       0       0       0       
      +0       0       0       0       0       0       0
  3306 ;;      Locals:         0       0       0       0       0       0       0       0       0       0       0       0       
      +0       0       0       0       0       0       0       0       0       0       0       0       0       0       0       
      +0       0       0       0       0       0       0
  3307 ;;      Temps:          0       0       0       0       0       0       0       0       0       0       0       0       
      +0       0       0       0       0       0       0       0       0       0       0       0       0       0       0       
      +0       0       0       0       0       0       0
  3308 ;;      Totals:         0       0       0       0       0       0       0       0       0       0       0       0       
      +0       0       0       0       0       0       0       0       0       0       0       0       0       0       0       
      +0       0       0       0       0       0       0
  3309 ;;Total ram usage:        0 bytes
  3310 ;; Hardware stack levels used:    1
  3311 ;; Hardware stack levels required when called:    1
  3312 ;; This function calls:
  3313 ;;		Absolute function
  3314 ;;		_TMR0_DefaultInterruptHandler
  3315 ;; This function is called by:
  3316 ;;		_TMR0_ISR
  3317 ;; This function uses a non-reentrant model
  3318 ;;
  3319                           
  3320                           	psect	text36
  3321  0038E4                     __ptext36:
  3322                           	callstack 0
  3323  0038E4                     _TMR0_CallBack:
  3324                           	callstack 120
  3325  0038E4                     
  3326                           ;mcc_generated_files/tmr0.c: 163:     if(TMR0_InterruptHandler)
  3327  0038E4  0105               	movlb	5	; () banked
  3328  0038E6  517E               	movf	_TMR0_InterruptHandler& (0+255),w,b
  3329  0038E8  117F               	iorwf	(_TMR0_InterruptHandler+1)& (0+255),w,b
  3330  0038EA  B4D8               	btfsc	status,2,c
  3331  0038EC  EF7A  F01C         	goto	i2u194_41
  3332  0038F0  EF7C  F01C         	goto	i2u194_40
  3333  0038F4                     i2u194_41:
  3334  0038F4  EF88  F01C         	goto	i2l587
  3335  0038F8                     i2u194_40:
  3336  0038F8                     
  3337                           ; BSR set to: 5
  3338                           ;mcc_generated_files/tmr0.c: 164:     {;mcc_generated_files/tmr0.c: 165:         TMR0_In
      +                          terruptHandler();
  3339  0038F8  D802               	call	i2u195_48
  3340  0038FA  EF88  F01C         	goto	i2u195_49
  3341  0038FE                     i2u195_48:
  3342  0038FE  0005               	push	
  3343  003900  6EFA               	movwf	pclath,c
  3344  003902  517E               	movf	_TMR0_InterruptHandler& (0+255),w,b
  3345  003904  6EFD               	movwf	tosl,c
  3346  003906  517F               	movf	(_TMR0_InterruptHandler+1)& (0+255),w,b
  3347  003908  6EFE               	movwf	tosh,c
  3348  00390A  6AFF               	clrf	tosu,c
  3349  00390C  50FA               	movf	pclath,w,c
  3350  00390E  0012               	return		;indir
  3351  003910                     i2u195_49:
  3352  003910                     i2l587:
  3353  003910  0012               	return		;funcret
  3354  003912                     __end_of_TMR0_CallBack:
  3355                           	callstack 0
  3356                           
  3357 ;; *************** function _TMR0_DefaultInterruptHandler *****************
  3358 ;; Defined at:
  3359 ;;		line 173 in file "mcc_generated_files/tmr0.c"
  3360 ;; Parameters:    Size  Location     Type
  3361 ;;		None
  3362 ;; Auto vars:     Size  Location     Type
  3363 ;;		None
  3364 ;; Return value:  Size  Location     Type
  3365 ;;                  1    wreg      void 
  3366 ;; Registers used:
  3367 ;;		None
  3368 ;; Tracked objects:
  3369 ;;		On entry : 0/0
  3370 ;;		On exit  : 0/0
  3371 ;;		Unchanged: 0/0
  3372 ;; Data sizes:     COMRAM   BANK5   BANK6   BANK7   BANK8   BANK9  BANK10  BANK11  BANK12  BANK13  BANK14  BANK15  BANK1
      +6  BANK17  BANK18  BANK19  BANK20  BANK21  BANK22  BANK23  BANK24  BANK25  BANK26  BANK27  BANK28  BANK29  BANK30  BANK3
      +1  BANK32  BANK33  BANK34  BANK35  BANK36  BANK37
  3373 ;;      Params:         0       0       0       0       0       0       0       0       0       0       0       0       
      +0       0       0       0       0       0       0       0       0       0       0       0       0       0       0       
      +0       0       0       0       0       0       0
  3374 ;;      Locals:         0       0       0       0       0       0       0       0       0       0       0       0       
      +0       0       0       0       0       0       0       0       0       0       0       0       0       0       0       
      +0       0       0       0       0       0       0
  3375 ;;      Temps:          0       0       0       0       0       0       0       0       0       0       0       0       
      +0       0       0       0       0       0       0       0       0       0       0       0       0       0       0       
      +0       0       0       0       0       0       0
  3376 ;;      Totals:         0       0       0       0       0       0       0       0       0       0       0       0       
      +0       0       0       0       0       0       0       0       0       0       0       0       0       0       0       
      +0       0       0       0       0       0       0
  3377 ;;Total ram usage:        0 bytes
  3378 ;; Hardware stack levels used:    1
  3379 ;; This function calls:
  3380 ;;		Nothing
  3381 ;; This function is called by:
  3382 ;;		_TMR0_Initialize
  3383 ;;		_TMR0_CallBack
  3384 ;; This function uses a non-reentrant model
  3385 ;;
  3386                           
  3387                           	psect	text37
  3388  003BD6                     __ptext37:
  3389                           	callstack 0
  3390  003BD6                     _TMR0_DefaultInterruptHandler:
  3391                           	callstack 120
  3392  003BD6  0012               	return		;funcret
  3393  003BD8                     __end_of_TMR0_DefaultInterruptHandler:
  3394                           	callstack 0
  3395                           
  3396 ;; *************** function _TEMPORIZATION_1s *****************
  3397 ;; Defined at:
  3398 ;;		line 20 in file "TEMPORIZATIONS.c"
  3399 ;; Parameters:    Size  Location     Type
  3400 ;;		None
  3401 ;; Auto vars:     Size  Location     Type
  3402 ;;		None
  3403 ;; Return value:  Size  Location     Type
  3404 ;;                  1    wreg      void 
  3405 ;; Registers used:
  3406 ;;		wreg, fsr1l, fsr1h, fsr2l, fsr2h, status,2, status,0, tblptrl, tblptrh, tblptru, prodl, prodh, cstack
  3407 ;; Tracked objects:
  3408 ;;		On entry : 0/0
  3409 ;;		On exit  : 0/0
  3410 ;;		Unchanged: 0/0
  3411 ;; Data sizes:     COMRAM   BANK5   BANK6   BANK7   BANK8   BANK9  BANK10  BANK11  BANK12  BANK13  BANK14  BANK15  BANK1
      +6  BANK17  BANK18  BANK19  BANK20  BANK21  BANK22  BANK23  BANK24  BANK25  BANK26  BANK27  BANK28  BANK29  BANK30  BANK3
      +1  BANK32  BANK33  BANK34  BANK35  BANK36  BANK37
  3412 ;;      Params:         0       0       0       0       0       0       0       0       0       0       0       0       
      +0       0       0       0       0       0       0       0       0       0       0       0       0       0       0       
      +0       0       0       0       0       0       0
  3413 ;;      Locals:         0       0       0       0       0       0       0       0       0       0       0       0       
      +0       0       0       0       0       0       0       0       0       0       0       0       0       0       0       
      +0       0       0       0       0       0       0
  3414 ;;      Temps:          2       0       0       0       0       0       0       0       0       0       0       0       
      +0       0       0       0       0       0       0       0       0       0       0       0       0       0       0       
      +0       0       0       0       0       0       0
  3415 ;;      Totals:         2       0       0       0       0       0       0       0       0       0       0       0       
      +0       0       0       0       0       0       0       0       0       0       0       0       0       0       0       
      +0       0       0       0       0       0       0
  3416 ;;Total ram usage:        2 bytes
  3417 ;; Hardware stack levels used:    1
  3418 ;; Hardware stack levels required when called:    6
  3419 ;; This function calls:
  3420 ;;		_TEMPORIZATION_15mins
  3421 ;;		_TEMPORIZATION_1mins
  3422 ;;		_TEMPORIZATION_30mins
  3423 ;;		_TEMPORIZATION_5s
  3424 ;; This function is called by:
  3425 ;;		_TMR0_ISR
  3426 ;; This function uses a non-reentrant model
  3427 ;;
  3428                           
  3429                           	psect	text38
  3430  003040                     __ptext38:
  3431                           	callstack 0
  3432  003040                     _TEMPORIZATION_1s:
  3433                           	callstack 115
  3434  003040                     
  3435                           ;TEMPORIZATIONS.c: 22:     if (uiCount30min++ > 1800)
  3436  003040  5044               	movf	_uiCount30min^(0+1280),w,c
  3437  003042  6E2E               	movwf	??_TEMPORIZATION_1s^(0+1280),c
  3438  003044  5045               	movf	(_uiCount30min+1)^(0+1280),w,c
  3439  003046  6E2F               	movwf	(??_TEMPORIZATION_1s+1)^(0+1280),c
  3440  003048  4A44               	infsnz	_uiCount30min^(0+1280),f,c
  3441  00304A  2A45               	incf	(_uiCount30min+1)^(0+1280),f,c
  3442  00304C  0E09               	movlw	9
  3443  00304E  5C2E               	subwf	??_TEMPORIZATION_1s^(0+1280),w,c
  3444  003050  0E07               	movlw	7
  3445  003052  582F               	subwfb	(??_TEMPORIZATION_1s+1)^(0+1280),w,c
  3446  003054  A0D8               	btfss	status,0,c
  3447  003056  EF2F  F018         	goto	i2u190_41
  3448  00305A  EF31  F018         	goto	i2u190_40
  3449  00305E                     i2u190_41:
  3450  00305E  EF39  F018         	goto	i2l3080
  3451  003062                     i2u190_40:
  3452  003062                     
  3453                           ;TEMPORIZATIONS.c: 23:     {;TEMPORIZATIONS.c: 24:         TEMPORIZATION_30mins();
  3454  003062  ECEC  F01D         	call	_TEMPORIZATION_30mins	;wreg free
  3455  003066                     
  3456                           ;TEMPORIZATIONS.c: 25:         uiCount30min = 0;
  3457  003066  0E00               	movlw	0
  3458  003068  6E45               	movwf	(_uiCount30min+1)^(0+1280),c
  3459  00306A  0E00               	movlw	0
  3460  00306C  6E44               	movwf	_uiCount30min^(0+1280),c
  3461                           
  3462                           ;TEMPORIZATIONS.c: 26:     }
  3463  00306E  EF84  F018         	goto	i2l892
  3464  003072                     i2l3080:
  3465  003072  5042               	movf	_uiCount15min^(0+1280),w,c
  3466  003074  6E2E               	movwf	??_TEMPORIZATION_1s^(0+1280),c
  3467  003076  5043               	movf	(_uiCount15min+1)^(0+1280),w,c
  3468  003078  6E2F               	movwf	(??_TEMPORIZATION_1s+1)^(0+1280),c
  3469  00307A  4A42               	infsnz	_uiCount15min^(0+1280),f,c
  3470  00307C  2A43               	incf	(_uiCount15min+1)^(0+1280),f,c
  3471  00307E  0E85               	movlw	133
  3472  003080  5C2E               	subwf	??_TEMPORIZATION_1s^(0+1280),w,c
  3473  003082  0E03               	movlw	3
  3474  003084  582F               	subwfb	(??_TEMPORIZATION_1s+1)^(0+1280),w,c
  3475  003086  A0D8               	btfss	status,0,c
  3476  003088  EF48  F018         	goto	i2u191_41
  3477  00308C  EF4A  F018         	goto	i2u191_40
  3478  003090                     i2u191_41:
  3479  003090  EF52  F018         	goto	i2l3086
  3480  003094                     i2u191_40:
  3481  003094                     
  3482                           ;TEMPORIZATIONS.c: 28:     {;TEMPORIZATIONS.c: 29:         TEMPORIZATION_15mins();
  3483  003094  ECEE  F01D         	call	_TEMPORIZATION_15mins	;wreg free
  3484  003098                     
  3485                           ;TEMPORIZATIONS.c: 30:         uiCount15min = 0;
  3486  003098  0E00               	movlw	0
  3487  00309A  6E43               	movwf	(_uiCount15min+1)^(0+1280),c
  3488  00309C  0E00               	movlw	0
  3489  00309E  6E42               	movwf	_uiCount15min^(0+1280),c
  3490                           
  3491                           ;TEMPORIZATIONS.c: 31:     }
  3492  0030A0  EF84  F018         	goto	i2l892
  3493  0030A4                     i2l3086:
  3494  0030A4  5040               	movf	_uiCount1min^(0+1280),w,c
  3495  0030A6  6E2E               	movwf	??_TEMPORIZATION_1s^(0+1280),c
  3496  0030A8  5041               	movf	(_uiCount1min+1)^(0+1280),w,c
  3497  0030AA  6E2F               	movwf	(??_TEMPORIZATION_1s+1)^(0+1280),c
  3498  0030AC  4A40               	infsnz	_uiCount1min^(0+1280),f,c
  3499  0030AE  2A41               	incf	(_uiCount1min+1)^(0+1280),f,c
  3500  0030B0  502F               	movf	(??_TEMPORIZATION_1s+1)^(0+1280),w,c
  3501  0030B2  E109               	bnz	i2u192_40
  3502  0030B4  0E3D               	movlw	61
  3503  0030B6  5C2E               	subwf	??_TEMPORIZATION_1s^(0+1280),w,c
  3504  0030B8  A0D8               	btfss	status,0,c
  3505  0030BA  EF61  F018         	goto	i2u192_41
  3506  0030BE  EF63  F018         	goto	i2u192_40
  3507  0030C2                     i2u192_41:
  3508  0030C2  EF6B  F018         	goto	i2l3092
  3509  0030C6                     i2u192_40:
  3510  0030C6                     
  3511                           ;TEMPORIZATIONS.c: 33:     {;TEMPORIZATIONS.c: 34:         TEMPORIZATION_1mins();
  3512  0030C6  ECED  F01D         	call	_TEMPORIZATION_1mins	;wreg free
  3513  0030CA                     
  3514                           ;TEMPORIZATIONS.c: 35:         uiCount1min = 0;
  3515  0030CA  0E00               	movlw	0
  3516  0030CC  6E41               	movwf	(_uiCount1min+1)^(0+1280),c
  3517  0030CE  0E00               	movlw	0
  3518  0030D0  6E40               	movwf	_uiCount1min^(0+1280),c
  3519                           
  3520                           ;TEMPORIZATIONS.c: 36:     }
  3521  0030D2  EF84  F018         	goto	i2l892
  3522  0030D6                     i2l3092:
  3523  0030D6  503E               	movf	_uiCount5s^(0+1280),w,c
  3524  0030D8  6E2E               	movwf	??_TEMPORIZATION_1s^(0+1280),c
  3525  0030DA  503F               	movf	(_uiCount5s+1)^(0+1280),w,c
  3526  0030DC  6E2F               	movwf	(??_TEMPORIZATION_1s+1)^(0+1280),c
  3527  0030DE  4A3E               	infsnz	_uiCount5s^(0+1280),f,c
  3528  0030E0  2A3F               	incf	(_uiCount5s+1)^(0+1280),f,c
  3529  0030E2  502F               	movf	(??_TEMPORIZATION_1s+1)^(0+1280),w,c
  3530  0030E4  E109               	bnz	i2u193_40
  3531  0030E6  0E06               	movlw	6
  3532  0030E8  5C2E               	subwf	??_TEMPORIZATION_1s^(0+1280),w,c
  3533  0030EA  A0D8               	btfss	status,0,c
  3534  0030EC  EF7A  F018         	goto	i2u193_41
  3535  0030F0  EF7C  F018         	goto	i2u193_40
  3536  0030F4                     i2u193_41:
  3537  0030F4  EF84  F018         	goto	i2l888
  3538  0030F8                     i2u193_40:
  3539  0030F8                     
  3540                           ;TEMPORIZATIONS.c: 38:     {;TEMPORIZATIONS.c: 39:         TEMPORIZATION_5s();
  3541  0030F8  ECE1  F01D         	call	_TEMPORIZATION_5s	;wreg free
  3542  0030FC                     
  3543                           ;TEMPORIZATIONS.c: 40:         uiCount5s = 0;
  3544  0030FC  0E00               	movlw	0
  3545  0030FE  6E3F               	movwf	(_uiCount5s+1)^(0+1280),c
  3546  003100  0E00               	movlw	0
  3547  003102  6E3E               	movwf	_uiCount5s^(0+1280),c
  3548  003104  EF84  F018         	goto	i2l892
  3549  003108                     i2l888:
  3550  003108                     i2l892:
  3551  003108  0012               	return		;funcret
  3552  00310A                     __end_of_TEMPORIZATION_1s:
  3553                           	callstack 0
  3554                           
  3555 ;; *************** function _TEMPORIZATION_5s *****************
  3556 ;; Defined at:
  3557 ;;		line 71 in file "TEMPORIZATIONS.c"
  3558 ;; Parameters:    Size  Location     Type
  3559 ;;		None
  3560 ;; Auto vars:     Size  Location     Type
  3561 ;;		None
  3562 ;; Return value:  Size  Location     Type
  3563 ;;                  1    wreg      void 
  3564 ;; Registers used:
  3565 ;;		wreg, fsr1l, fsr1h, fsr2l, fsr2h, status,2, status,0, tblptrl, tblptrh, tblptru, prodl, prodh, cstack
  3566 ;; Tracked objects:
  3567 ;;		On entry : 0/0
  3568 ;;		On exit  : 0/0
  3569 ;;		Unchanged: 0/0
  3570 ;; Data sizes:     COMRAM   BANK5   BANK6   BANK7   BANK8   BANK9  BANK10  BANK11  BANK12  BANK13  BANK14  BANK15  BANK1
      +6  BANK17  BANK18  BANK19  BANK20  BANK21  BANK22  BANK23  BANK24  BANK25  BANK26  BANK27  BANK28  BANK29  BANK30  BANK3
      +1  BANK32  BANK33  BANK34  BANK35  BANK36  BANK37
  3571 ;;      Params:         0       0       0       0       0       0       0       0       0       0       0       0       
      +0       0       0       0       0       0       0       0       0       0       0       0       0       0       0       
      +0       0       0       0       0       0       0
  3572 ;;      Locals:         0       0       0       0       0       0       0       0       0       0       0       0       
      +0       0       0       0       0       0       0       0       0       0       0       0       0       0       0       
      +0       0       0       0       0       0       0
  3573 ;;      Temps:          0       0       0       0       0       0       0       0       0       0       0       0       
      +0       0       0       0       0       0       0       0       0       0       0       0       0       0       0       
      +0       0       0       0       0       0       0
  3574 ;;      Totals:         0       0       0       0       0       0       0       0       0       0       0       0       
      +0       0       0       0       0       0       0       0       0       0       0       0       0       0       0       
      +0       0       0       0       0       0       0
  3575 ;;Total ram usage:        0 bytes
  3576 ;; Hardware stack levels used:    1
  3577 ;; Hardware stack levels required when called:    5
  3578 ;; This function calls:
  3579 ;;		_MESSSAGES_ASSIState
  3580 ;; This function is called by:
  3581 ;;		_TEMPORIZATION_1s
  3582 ;; This function uses a non-reentrant model
  3583 ;;
  3584                           
  3585                           	psect	text39
  3586  003BC2                     __ptext39:
  3587                           	callstack 0
  3588  003BC2                     _TEMPORIZATION_5s:
  3589                           	callstack 115
  3590  003BC2                     
  3591                           ;TEMPORIZATIONS.c: 73:     MESSSAGES_ASSIState();
  3592  003BC2  ECF5  F015         	call	_MESSSAGES_ASSIState	;wreg free
  3593  003BC6  0012               	return		;funcret
  3594  003BC8                     __end_of_TEMPORIZATION_5s:
  3595                           	callstack 0
  3596                           
  3597 ;; *************** function _MESSSAGES_ASSIState *****************
  3598 ;; Defined at:
  3599 ;;		line 124 in file "MESSAGES.c"
  3600 ;; Parameters:    Size  Location     Type
  3601 ;;		None
  3602 ;; Auto vars:     Size  Location     Type
  3603 ;;		None
  3604 ;; Return value:  Size  Location     Type
  3605 ;;                  1    wreg      void 
  3606 ;; Registers used:
  3607 ;;		wreg, fsr1l, fsr1h, fsr2l, fsr2h, status,2, status,0, tblptrl, tblptrh, tblptru, prodl, prodh, cstack
  3608 ;; Tracked objects:
  3609 ;;		On entry : 0/0
  3610 ;;		On exit  : 0/0
  3611 ;;		Unchanged: 0/0
  3612 ;; Data sizes:     COMRAM   BANK5   BANK6   BANK7   BANK8   BANK9  BANK10  BANK11  BANK12  BANK13  BANK14  BANK15  BANK1
      +6  BANK17  BANK18  BANK19  BANK20  BANK21  BANK22  BANK23  BANK24  BANK25  BANK26  BANK27  BANK28  BANK29  BANK30  BANK3
      +1  BANK32  BANK33  BANK34  BANK35  BANK36  BANK37
  3613 ;;      Params:         0       0       0       0       0       0       0       0       0       0       0       0       
      +0       0       0       0       0       0       0       0       0       0       0       0       0       0       0       
      +0       0       0       0       0       0       0
  3614 ;;      Locals:         0       0       0       0       0       0       0       0       0       0       0       0       
      +0       0       0       0       0       0       0       0       0       0       0       0       0       0       0       
      +0       0       0       0       0       0       0
  3615 ;;      Temps:          2       0       0       0       0       0       0       0       0       0       0       0       
      +0       0       0       0       0       0       0       0       0       0       0       0       0       0       0       
      +0       0       0       0       0       0       0
  3616 ;;      Totals:         2       0       0       0       0       0       0       0       0       0       0       0       
      +0       0       0       0       0       0       0       0       0       0       0       0       0       0       0       
      +0       0       0       0       0       0       0
  3617 ;;Total ram usage:        2 bytes
  3618 ;; Hardware stack levels used:    1
  3619 ;; Hardware stack levels required when called:    4
  3620 ;; This function calls:
  3621 ;;		_CANWriteMessage
  3622 ;; This function is called by:
  3623 ;;		_TEMPORIZATION_5s
  3624 ;; This function uses a non-reentrant model
  3625 ;;
  3626                           
  3627                           	psect	text40
  3628  002BEA                     __ptext40:
  3629                           	callstack 0
  3630  002BEA                     _MESSSAGES_ASSIState:
  3631                           	callstack 115
  3632  002BEA                     
  3633                           ;MESSAGES.c: 126:     switch ( ucASSIName )
  3634  002BEA  EF51  F016         	goto	i2l2860
  3635  002BEE                     i2l2852:
  3636                           
  3637                           ;MESSAGES.c: 129:             CANWriteMessage(0x350, 8, ucASState, ucASState_prev, 0, 0,
      +                           0, 0, 0, 0);
  3638  002BEE  0E50               	movlw	80
  3639  002BF0  6E1E               	movwf	CANWriteMessage@id^(0+1280),c
  3640  002BF2  0E03               	movlw	3
  3641  002BF4  6E1F               	movwf	(CANWriteMessage@id+1)^(0+1280),c
  3642  002BF6  0E00               	movlw	0
  3643  002BF8  6E20               	movwf	(CANWriteMessage@id+2)^(0+1280),c
  3644  002BFA  0E00               	movlw	0
  3645  002BFC  6E21               	movwf	(CANWriteMessage@id+3)^(0+1280),c
  3646  002BFE  0E08               	movlw	8
  3647  002C00  6E22               	movwf	CANWriteMessage@dataLength^(0+1280),c
  3648  002C02  C54C  F523         	movff	_ucASState,CANWriteMessage@data1
  3649  002C06  C54B  F524         	movff	_ucASState_prev,CANWriteMessage@data2
  3650  002C0A  0E00               	movlw	0
  3651  002C0C  6E25               	movwf	CANWriteMessage@data3^(0+1280),c
  3652  002C0E  0E00               	movlw	0
  3653  002C10  6E26               	movwf	CANWriteMessage@data4^(0+1280),c
  3654  002C12  0E00               	movlw	0
  3655  002C14  6E27               	movwf	CANWriteMessage@data5^(0+1280),c
  3656  002C16  0E00               	movlw	0
  3657  002C18  6E28               	movwf	CANWriteMessage@data6^(0+1280),c
  3658  002C1A  0E00               	movlw	0
  3659  002C1C  6E29               	movwf	CANWriteMessage@data7^(0+1280),c
  3660  002C1E  0E00               	movlw	0
  3661  002C20  6E2A               	movwf	CANWriteMessage@data8^(0+1280),c
  3662  002C22  EC4D  F017         	call	_CANWriteMessage	;wreg free
  3663                           
  3664                           ;MESSAGES.c: 130:             break;
  3665  002C26  EF6A  F016         	goto	i2l841
  3666  002C2A                     i2l2854:
  3667                           
  3668                           ;MESSAGES.c: 132:             CANWriteMessage(0x351, 8, ucASState, ucASState_prev, 0, 0,
      +                           0, 0, 0, 0);
  3669  002C2A  0E51               	movlw	81
  3670  002C2C  6E1E               	movwf	CANWriteMessage@id^(0+1280),c
  3671  002C2E  0E03               	movlw	3
  3672  002C30  6E1F               	movwf	(CANWriteMessage@id+1)^(0+1280),c
  3673  002C32  0E00               	movlw	0
  3674  002C34  6E20               	movwf	(CANWriteMessage@id+2)^(0+1280),c
  3675  002C36  0E00               	movlw	0
  3676  002C38  6E21               	movwf	(CANWriteMessage@id+3)^(0+1280),c
  3677  002C3A  0E08               	movlw	8
  3678  002C3C  6E22               	movwf	CANWriteMessage@dataLength^(0+1280),c
  3679  002C3E  C54C  F523         	movff	_ucASState,CANWriteMessage@data1
  3680  002C42  C54B  F524         	movff	_ucASState_prev,CANWriteMessage@data2
  3681  002C46  0E00               	movlw	0
  3682  002C48  6E25               	movwf	CANWriteMessage@data3^(0+1280),c
  3683  002C4A  0E00               	movlw	0
  3684  002C4C  6E26               	movwf	CANWriteMessage@data4^(0+1280),c
  3685  002C4E  0E00               	movlw	0
  3686  002C50  6E27               	movwf	CANWriteMessage@data5^(0+1280),c
  3687  002C52  0E00               	movlw	0
  3688  002C54  6E28               	movwf	CANWriteMessage@data6^(0+1280),c
  3689  002C56  0E00               	movlw	0
  3690  002C58  6E29               	movwf	CANWriteMessage@data7^(0+1280),c
  3691  002C5A  0E00               	movlw	0
  3692  002C5C  6E2A               	movwf	CANWriteMessage@data8^(0+1280),c
  3693  002C5E  EC4D  F017         	call	_CANWriteMessage	;wreg free
  3694                           
  3695                           ;MESSAGES.c: 133:             break;
  3696  002C62  EF6A  F016         	goto	i2l841
  3697  002C66                     i2l2856:
  3698                           
  3699                           ;MESSAGES.c: 135:             CANWriteMessage(0x352, 8, ucASState, ucASState_prev, 0, 0,
      +                           0, 0, 0, 0);
  3700  002C66  0E52               	movlw	82
  3701  002C68  6E1E               	movwf	CANWriteMessage@id^(0+1280),c
  3702  002C6A  0E03               	movlw	3
  3703  002C6C  6E1F               	movwf	(CANWriteMessage@id+1)^(0+1280),c
  3704  002C6E  0E00               	movlw	0
  3705  002C70  6E20               	movwf	(CANWriteMessage@id+2)^(0+1280),c
  3706  002C72  0E00               	movlw	0
  3707  002C74  6E21               	movwf	(CANWriteMessage@id+3)^(0+1280),c
  3708  002C76  0E08               	movlw	8
  3709  002C78  6E22               	movwf	CANWriteMessage@dataLength^(0+1280),c
  3710  002C7A  C54C  F523         	movff	_ucASState,CANWriteMessage@data1
  3711  002C7E  C54B  F524         	movff	_ucASState_prev,CANWriteMessage@data2
  3712  002C82  0E00               	movlw	0
  3713  002C84  6E25               	movwf	CANWriteMessage@data3^(0+1280),c
  3714  002C86  0E00               	movlw	0
  3715  002C88  6E26               	movwf	CANWriteMessage@data4^(0+1280),c
  3716  002C8A  0E00               	movlw	0
  3717  002C8C  6E27               	movwf	CANWriteMessage@data5^(0+1280),c
  3718  002C8E  0E00               	movlw	0
  3719  002C90  6E28               	movwf	CANWriteMessage@data6^(0+1280),c
  3720  002C92  0E00               	movlw	0
  3721  002C94  6E29               	movwf	CANWriteMessage@data7^(0+1280),c
  3722  002C96  0E00               	movlw	0
  3723  002C98  6E2A               	movwf	CANWriteMessage@data8^(0+1280),c
  3724  002C9A  EC4D  F017         	call	_CANWriteMessage	;wreg free
  3725                           
  3726                           ;MESSAGES.c: 136:             break;
  3727  002C9E  EF6A  F016         	goto	i2l841
  3728  002CA2                     i2l2860:
  3729  002CA2  504A               	movf	_ucASSIName^(0+1280),w,c
  3730  002CA4  6E2C               	movwf	??_MESSSAGES_ASSIState^(0+1280),c
  3731  002CA6  6A2D               	clrf	(??_MESSSAGES_ASSIState+1)^(0+1280),c
  3732                           
  3733                           ; Switch on 2 bytes has been partitioned into a top level switch of size 1, and 1 sub-sw
      +                          itches
  3734                           ; Switch size 1, requested type "simple"
  3735                           ; Number of cases is 1, Range of values is 0 to 0
  3736                           ; switch strategies available:
  3737                           ; Name         Instructions Cycles
  3738                           ; simple_byte            4     3 (average)
  3739                           ;	Chosen strategy is simple_byte
  3740  002CA8  502D               	movf	(??_MESSSAGES_ASSIState+1)^(0+1280),w,c
  3741  002CAA  0A00               	xorlw	0	; case 0
  3742  002CAC  B4D8               	btfsc	status,2,c
  3743  002CAE  EF5B  F016         	goto	i2l3372
  3744  002CB2  EF6A  F016         	goto	i2l841
  3745  002CB6                     i2l3372:
  3746                           
  3747                           ; Switch size 1, requested type "simple"
  3748                           ; Number of cases is 3, Range of values is 0 to 2
  3749                           ; switch strategies available:
  3750                           ; Name         Instructions Cycles
  3751                           ; simple_byte           10     6 (average)
  3752                           ;	Chosen strategy is simple_byte
  3753  002CB6  502C               	movf	??_MESSSAGES_ASSIState^(0+1280),w,c
  3754  002CB8  0A00               	xorlw	0	; case 0
  3755  002CBA  B4D8               	btfsc	status,2,c
  3756  002CBC  EFF7  F015         	goto	i2l2852
  3757  002CC0  0A01               	xorlw	1	; case 1
  3758  002CC2  B4D8               	btfsc	status,2,c
  3759  002CC4  EF15  F016         	goto	i2l2854
  3760  002CC8  0A03               	xorlw	3	; case 2
  3761  002CCA  B4D8               	btfsc	status,2,c
  3762  002CCC  EF33  F016         	goto	i2l2856
  3763  002CD0  EF6A  F016         	goto	i2l841
  3764  002CD4                     i2l841:
  3765  002CD4  0012               	return		;funcret
  3766  002CD6                     __end_of_MESSSAGES_ASSIState:
  3767                           	callstack 0
  3768                           
  3769 ;; *************** function _CANWriteMessage *****************
  3770 ;; Defined at:
  3771 ;;		line 23 in file "MESSAGES.c"
  3772 ;; Parameters:    Size  Location     Type
  3773 ;;  id              4   29[COMRAM] unsigned long 
  3774 ;;  dataLength      1   33[COMRAM] unsigned char 
  3775 ;;  data1           1   34[COMRAM] unsigned char 
  3776 ;;  data2           1   35[COMRAM] unsigned char 
  3777 ;;  data3           1   36[COMRAM] unsigned char 
  3778 ;;  data4           1   37[COMRAM] unsigned char 
  3779 ;;  data5           1   38[COMRAM] unsigned char 
  3780 ;;  data6           1   39[COMRAM] unsigned char 
  3781 ;;  data7           1   40[COMRAM] unsigned char 
  3782 ;;  data8           1   41[COMRAM] unsigned char 
  3783 ;; Auto vars:     Size  Location     Type
  3784 ;;		None
  3785 ;; Return value:  Size  Location     Type
  3786 ;;                  1    wreg      void 
  3787 ;; Registers used:
  3788 ;;		wreg, fsr1l, fsr1h, fsr2l, fsr2h, status,2, status,0, tblptrl, tblptrh, tblptru, prodl, prodh, cstack
  3789 ;; Tracked objects:
  3790 ;;		On entry : 0/0
  3791 ;;		On exit  : 0/0
  3792 ;;		Unchanged: 0/0
  3793 ;; Data sizes:     COMRAM   BANK5   BANK6   BANK7   BANK8   BANK9  BANK10  BANK11  BANK12  BANK13  BANK14  BANK15  BANK1
      +6  BANK17  BANK18  BANK19  BANK20  BANK21  BANK22  BANK23  BANK24  BANK25  BANK26  BANK27  BANK28  BANK29  BANK30  BANK3
      +1  BANK32  BANK33  BANK34  BANK35  BANK36  BANK37
  3794 ;;      Params:        13       0       0       0       0       0       0       0       0       0       0       0       
      +0       0       0       0       0       0       0       0       0       0       0       0       0       0       0       
      +0       0       0       0       0       0       0
  3795 ;;      Locals:         0       0       0       0       0       0       0       0       0       0       0       0       
      +0       0       0       0       0       0       0       0       0       0       0       0       0       0       0       
      +0       0       0       0       0       0       0
  3796 ;;      Temps:          1       0       0       0       0       0       0       0       0       0       0       0       
      +0       0       0       0       0       0       0       0       0       0       0       0       0       0       0       
      +0       0       0       0       0       0       0
  3797 ;;      Totals:        14       0       0       0       0       0       0       0       0       0       0       0       
      +0       0       0       0       0       0       0       0       0       0       0       0       0       0       0       
      +0       0       0       0       0       0       0
  3798 ;;Total ram usage:       14 bytes
  3799 ;; Hardware stack levels used:    1
  3800 ;; Hardware stack levels required when called:    3
  3801 ;; This function calls:
  3802 ;;		_CAN1_IsBusOff
  3803 ;;		_CAN1_IsTxErrorActive
  3804 ;;		_CAN1_IsTxErrorPassive
  3805 ;;		_CAN1_IsTxErrorWarning
  3806 ;;		_CAN1_Transmit
  3807 ;;		_CAN1_TransmitFIFOStatusGet
  3808 ;; This function is called by:
  3809 ;;		_MESSSAGES_ASSIState
  3810 ;; This function uses a non-reentrant model
  3811 ;;
  3812                           
  3813                           	psect	text41
  3814  002E9A                     __ptext41:
  3815                           	callstack 0
  3816  002E9A                     _CANWriteMessage:
  3817                           	callstack 115
  3818  002E9A                     
  3819                           ;MESSAGES.c: 23: void CANWriteMessage( unsigned long id, unsigned char dataLength, unsig
      +                          ned char data1, unsigned char data2, unsigned char data3, unsigned char data4, unsigned 
      +                          char data5, unsigned char data6, unsigned char data7, unsigned char data8);MESSAGES.c: 2
      +                          4: {;MESSAGES.c: 26:     CANDATAdata [0] = data1;
  3820  002E9A  C523  F576         	movff	CANWriteMessage@data1,_CANDATAdata
  3821                           
  3822                           ;MESSAGES.c: 27:     CANDATAdata [1] = data2;
  3823  002E9E  C524  F577         	movff	CANWriteMessage@data2,_CANDATAdata+1
  3824                           
  3825                           ;MESSAGES.c: 28:     CANDATAdata [2] = data3;
  3826  002EA2  C525  F578         	movff	CANWriteMessage@data3,_CANDATAdata+2
  3827                           
  3828                           ;MESSAGES.c: 29:     CANDATAdata [3] = data4;
  3829  002EA6  C526  F579         	movff	CANWriteMessage@data4,_CANDATAdata+3
  3830                           
  3831                           ;MESSAGES.c: 30:     CANDATAdata [4] = data5;
  3832  002EAA  C527  F57A         	movff	CANWriteMessage@data5,_CANDATAdata+4
  3833                           
  3834                           ;MESSAGES.c: 31:     CANDATAdata [5] = data6;
  3835  002EAE  C528  F57B         	movff	CANWriteMessage@data6,_CANDATAdata+5
  3836                           
  3837                           ;MESSAGES.c: 32:     CANDATAdata [6] = data7;
  3838  002EB2  C529  F57C         	movff	CANWriteMessage@data7,_CANDATAdata+6
  3839                           
  3840                           ;MESSAGES.c: 33:     CANDATAdata [7] = data8;
  3841  002EB6  C52A  F57D         	movff	CANWriteMessage@data8,_CANDATAdata+7
  3842                           
  3843                           ;MESSAGES.c: 35:     msgTransmit.msgId = id;
  3844  002EBA  C51E  F556         	movff	CANWriteMessage@id,_msgTransmit
  3845  002EBE  C51F  F557         	movff	CANWriteMessage@id+1,_msgTransmit+1
  3846  002EC2  C520  F558         	movff	CANWriteMessage@id+2,_msgTransmit+2
  3847  002EC6  C521  F559         	movff	CANWriteMessage@id+3,_msgTransmit+3
  3848                           
  3849                           ;MESSAGES.c: 36:     msgTransmit.field.formatType = CAN_2_0_FORMAT;
  3850  002ECA  9C5A               	bcf	(_msgTransmit+4)^(0+1280),6,c
  3851                           
  3852                           ;MESSAGES.c: 37:     msgTransmit.field.brs = CAN_NON_BRS_MODE;
  3853  002ECC  9E5A               	bcf	(_msgTransmit+4)^(0+1280),7,c
  3854                           
  3855                           ;MESSAGES.c: 38:     msgTransmit.field.frameType = CAN_FRAME_DATA;
  3856  002ECE  925A               	bcf	(_msgTransmit+4)^(0+1280),1,c
  3857                           
  3858                           ;MESSAGES.c: 39:     msgTransmit.field.idType = CAN_FRAME_STD;
  3859  002ED0  905A               	bcf	(_msgTransmit+4)^(0+1280),0,c
  3860  002ED2                     
  3861                           ;MESSAGES.c: 40:     msgTransmit.field.dlc = ( dataLength & 0x0F );
  3862  002ED2  C522  F52B         	movff	CANWriteMessage@dataLength,??_CANWriteMessage
  3863  002ED6  0E0F               	movlw	15
  3864  002ED8  162B               	andwf	??_CANWriteMessage^(0+1280),f,c
  3865  002EDA  462B               	rlncf	??_CANWriteMessage^(0+1280),f,c
  3866  002EDC  462B               	rlncf	??_CANWriteMessage^(0+1280),f,c
  3867  002EDE  505A               	movf	(_msgTransmit+4)^(0+1280),w,c
  3868  002EE0  182B               	xorwf	??_CANWriteMessage^(0+1280),w,c
  3869  002EE2  0BC3               	andlw	-61
  3870  002EE4  182B               	xorwf	??_CANWriteMessage^(0+1280),w,c
  3871  002EE6  6E5A               	movwf	(_msgTransmit+4)^(0+1280),c
  3872                           
  3873                           ;MESSAGES.c: 41:     msgTransmit.data = CANDATAdata;
  3874  002EE8  0E76               	movlw	low _CANDATAdata
  3875  002EEA  6E5B               	movwf	(_msgTransmit+5)^(0+1280),c
  3876  002EEC  0E05               	movlw	high _CANDATAdata
  3877  002EEE  6E5C               	movwf	(_msgTransmit+6)^(0+1280),c
  3878  002EF0                     
  3879                           ;MESSAGES.c: 43:     if(CAN1_IsBusOff() == 0x01)
  3880  002EF0  EC83  F01D         	call	_CAN1_IsBusOff	;wreg free
  3881  002EF4  06E8               	decf	wreg,f,c
  3882  002EF6  A4D8               	btfss	status,2,c
  3883  002EF8  EF80  F017         	goto	i2u162_41
  3884  002EFC  EF82  F017         	goto	i2u162_40
  3885  002F00                     i2u162_41:
  3886  002F00  EF83  F017         	goto	i2l2738
  3887  002F04                     i2u162_40:
  3888  002F04                     
  3889                           ;MESSAGES.c: 44:     {;MESSAGES.c: 45:         __nop();
  3890  002F04  F000               	nop	
  3891  002F06                     i2l2738:
  3892                           
  3893                           ;MESSAGES.c: 47:     if(CAN1_IsTxErrorPassive() == 0x01)
  3894  002F06  EC78  F01D         	call	_CAN1_IsTxErrorPassive	;wreg free
  3895  002F0A  06E8               	decf	wreg,f,c
  3896  002F0C  A4D8               	btfss	status,2,c
  3897  002F0E  EF8B  F017         	goto	i2u163_41
  3898  002F12  EF8D  F017         	goto	i2u163_40
  3899  002F16                     i2u163_41:
  3900  002F16  EF8E  F017         	goto	i2l2742
  3901  002F1A                     i2u163_40:
  3902  002F1A                     
  3903                           ;MESSAGES.c: 48:     {;MESSAGES.c: 49:         __nop();
  3904  002F1A  F000               	nop	
  3905  002F1C                     i2l2742:
  3906                           
  3907                           ;MESSAGES.c: 51:     if(CAN1_IsTxErrorWarning() == 0x01)
  3908  002F1C  EC6D  F01D         	call	_CAN1_IsTxErrorWarning	;wreg free
  3909  002F20  06E8               	decf	wreg,f,c
  3910  002F22  A4D8               	btfss	status,2,c
  3911  002F24  EF96  F017         	goto	i2u164_41
  3912  002F28  EF98  F017         	goto	i2u164_40
  3913  002F2C                     i2u164_41:
  3914  002F2C  EF99  F017         	goto	i2l2746
  3915  002F30                     i2u164_40:
  3916  002F30                     
  3917                           ;MESSAGES.c: 52:     {;MESSAGES.c: 53:         __nop();
  3918  002F30  F000               	nop	
  3919  002F32                     i2l2746:
  3920                           
  3921                           ;MESSAGES.c: 55:     if(CAN1_IsTxErrorActive() == 0x01)
  3922  002F32  EC31  F01D         	call	_CAN1_IsTxErrorActive	;wreg free
  3923  002F36  06E8               	decf	wreg,f,c
  3924  002F38  A4D8               	btfss	status,2,c
  3925  002F3A  EFA1  F017         	goto	i2u165_41
  3926  002F3E  EFA3  F017         	goto	i2u165_40
  3927  002F42                     i2u165_41:
  3928  002F42  EFA4  F017         	goto	i2l2750
  3929  002F46                     i2u165_40:
  3930  002F46                     
  3931                           ;MESSAGES.c: 56:     {;MESSAGES.c: 57:         __nop();
  3932  002F46  F000               	nop	
  3933  002F48                     i2l2750:
  3934                           
  3935                           ;MESSAGES.c: 60:     if(CAN_TX_FIFO_AVAILABLE == (CAN1_TransmitFIFOStatusGet(TXQ) & CAN_
      +                          TX_FIFO_AVAILABLE))
  3936  002F48  0E00               	movlw	0
  3937  002F4A  ECDB  F01C         	call	_CAN1_TransmitFIFOStatusGet
  3938  002F4E  6E2B               	movwf	??_CANWriteMessage^(0+1280),c
  3939  002F50  A02B               	btfss	??_CANWriteMessage^(0+1280),0,c
  3940  002F52  EFAD  F017         	goto	i2u166_41
  3941  002F56  EFAF  F017         	goto	i2u166_40
  3942  002F5A                     i2u166_41:
  3943  002F5A  EFB7  F017         	goto	i2l823
  3944  002F5E                     i2u166_40:
  3945  002F5E                     
  3946                           ;MESSAGES.c: 61:     {;MESSAGES.c: 62:         CAN1_Transmit(TXQ, &msgTransmit);
  3947  002F5E  0E56               	movlw	low _msgTransmit
  3948  002F60  6E18               	movwf	CAN1_Transmit@txCanMsg^(0+1280),c
  3949  002F62  0E05               	movlw	high _msgTransmit
  3950  002F64  6E19               	movwf	(CAN1_Transmit@txCanMsg+1)^(0+1280),c
  3951  002F66  0E00               	movlw	0
  3952  002F68  ECF6  F019         	call	_CAN1_Transmit
  3953  002F6C                     
  3954                           ;MESSAGES.c: 63:         __nop();
  3955  002F6C  F000               	nop	
  3956  002F6E                     i2l823:
  3957  002F6E  0012               	return		;funcret
  3958  002F70                     __end_of_CANWriteMessage:
  3959                           	callstack 0
  3960                           
  3961 ;; *************** function _CAN1_TransmitFIFOStatusGet *****************
  3962 ;; Defined at:
  3963 ;;		line 589 in file "mcc_generated_files/can1.c"
  3964 ;; Parameters:    Size  Location     Type
  3965 ;;  fifoChannel     1    wreg     const enum E22383
  3966 ;; Auto vars:     Size  Location     Type
  3967 ;;  fifoChannel     1    3[COMRAM] const enum E22383
  3968 ;;  status          1    2[COMRAM] enum E22361
  3969 ;; Return value:  Size  Location     Type
  3970 ;;                  1    wreg      enum E22361
  3971 ;; Registers used:
  3972 ;;		wreg, fsr2l, fsr2h, status,2, status,0, prodl, prodh, cstack
  3973 ;; Tracked objects:
  3974 ;;		On entry : 0/0
  3975 ;;		On exit  : 0/0
  3976 ;;		Unchanged: 0/0
  3977 ;; Data sizes:     COMRAM   BANK5   BANK6   BANK7   BANK8   BANK9  BANK10  BANK11  BANK12  BANK13  BANK14  BANK15  BANK1
      +6  BANK17  BANK18  BANK19  BANK20  BANK21  BANK22  BANK23  BANK24  BANK25  BANK26  BANK27  BANK28  BANK29  BANK30  BANK3
      +1  BANK32  BANK33  BANK34  BANK35  BANK36  BANK37
  3978 ;;      Params:         0       0       0       0       0       0       0       0       0       0       0       0       
      +0       0       0       0       0       0       0       0       0       0       0       0       0       0       0       
      +0       0       0       0       0       0       0
  3979 ;;      Locals:         2       0       0       0       0       0       0       0       0       0       0       0       
      +0       0       0       0       0       0       0       0       0       0       0       0       0       0       0       
      +0       0       0       0       0       0       0
  3980 ;;      Temps:          0       0       0       0       0       0       0       0       0       0       0       0       
      +0       0       0       0       0       0       0       0       0       0       0       0       0       0       0       
      +0       0       0       0       0       0       0
  3981 ;;      Totals:         2       0       0       0       0       0       0       0       0       0       0       0       
      +0       0       0       0       0       0       0       0       0       0       0       0       0       0       0       
      +0       0       0       0       0       0       0
  3982 ;;Total ram usage:        2 bytes
  3983 ;; Hardware stack levels used:    1
  3984 ;; Hardware stack levels required when called:    1
  3985 ;; This function calls:
  3986 ;;		_GetTxFifoStatus
  3987 ;;		_isTxChannel
  3988 ;; This function is called by:
  3989 ;;		_CANWriteMessage
  3990 ;; This function uses a non-reentrant model
  3991 ;;
  3992                           
  3993                           	psect	text42
  3994  0039B6                     __ptext42:
  3995                           	callstack 0
  3996  0039B6                     _CAN1_TransmitFIFOStatusGet:
  3997                           	callstack 116
  3998                           
  3999                           ;incstack = 0
  4000                           ;CAN1_TransmitFIFOStatusGet@fifoChannel stored from wreg
  4001  0039B6  6E04               	movwf	CAN1_TransmitFIFOStatusGet@fifoChannel^(0+1280),c
  4002  0039B8                     
  4003                           ;mcc_generated_files/can1.c: 589: CAN_TX_FIFO_STATUS CAN1_TransmitFIFOStatusGet(const CA
      +                          N1_TX_FIFO_CHANNELS fifoChannel);mcc_generated_files/can1.c: 590: {;mcc_generated_files/
      +                          can1.c: 591:     CAN_TX_FIFO_STATUS status = CAN_TX_FIFO_FULL;
  4004  0039B8  0E00               	movlw	0
  4005  0039BA  6E03               	movwf	CAN1_TransmitFIFOStatusGet@status^(0+1280),c
  4006  0039BC                     
  4007                           ;mcc_generated_files/can1.c: 593:     if (isTxChannel(fifoChannel))
  4008  0039BC  5004               	movf	CAN1_TransmitFIFOStatusGet@fifoChannel^(0+1280),w,c
  4009  0039BE  ECD7  F01B         	call	_isTxChannel
  4010  0039C2  0900               	iorlw	0
  4011  0039C4  B4D8               	btfsc	status,2,c
  4012  0039C6  EFE7  F01C         	goto	i2u153_41
  4013  0039CA  EFE9  F01C         	goto	i2u153_40
  4014  0039CE                     i2u153_41:
  4015  0039CE  EFED  F01C         	goto	i2l2684
  4016  0039D2                     i2u153_40:
  4017  0039D2                     
  4018                           ;mcc_generated_files/can1.c: 594:     {;mcc_generated_files/can1.c: 595:         status 
      +                          = GetTxFifoStatus(fifoChannel);
  4019  0039D2  5004               	movf	CAN1_TransmitFIFOStatusGet@fifoChannel^(0+1280),w,c
  4020  0039D4  EC4A  F01D         	call	_GetTxFifoStatus
  4021  0039D8  6E03               	movwf	CAN1_TransmitFIFOStatusGet@status^(0+1280),c
  4022  0039DA                     i2l2684:
  4023                           
  4024                           ;mcc_generated_files/can1.c: 598:     return status;
  4025  0039DA  5003               	movf	CAN1_TransmitFIFOStatusGet@status^(0+1280),w,c
  4026  0039DC  0012               	return		;funcret
  4027  0039DE                     __end_of_CAN1_TransmitFIFOStatusGet:
  4028                           	callstack 0
  4029                           
  4030 ;; *************** function _CAN1_Transmit *****************
  4031 ;; Defined at:
  4032 ;;		line 567 in file "mcc_generated_files/can1.c"
  4033 ;; Parameters:    Size  Location     Type
  4034 ;;  fifoChannel     1    wreg     const enum E22383
  4035 ;;  txCanMsg        2   23[COMRAM] PTR struct .
  4036 ;;		 -> msgTransmit(7), 
  4037 ;; Auto vars:     Size  Location     Type
  4038 ;;  fifoChannel     1   28[COMRAM] const enum E22383
  4039 ;;  txFifoObj       2   26[COMRAM] PTR unsigned char 
  4040 ;;		 -> RAM(9727), 
  4041 ;;  status          1   25[COMRAM] enum E22340
  4042 ;; Return value:  Size  Location     Type
  4043 ;;                  1    wreg      enum E22340
  4044 ;; Registers used:
  4045 ;;		wreg, fsr1l, fsr1h, fsr2l, fsr2h, status,2, status,0, tblptrl, tblptrh, tblptru, prodl, prodh, cstack
  4046 ;; Tracked objects:
  4047 ;;		On entry : 0/0
  4048 ;;		On exit  : 0/0
  4049 ;;		Unchanged: 0/0
  4050 ;; Data sizes:     COMRAM   BANK5   BANK6   BANK7   BANK8   BANK9  BANK10  BANK11  BANK12  BANK13  BANK14  BANK15  BANK1
      +6  BANK17  BANK18  BANK19  BANK20  BANK21  BANK22  BANK23  BANK24  BANK25  BANK26  BANK27  BANK28  BANK29  BANK30  BANK3
      +1  BANK32  BANK33  BANK34  BANK35  BANK36  BANK37
  4051 ;;      Params:         2       0       0       0       0       0       0       0       0       0       0       0       
      +0       0       0       0       0       0       0       0       0       0       0       0       0       0       0       
      +0       0       0       0       0       0       0
  4052 ;;      Locals:         4       0       0       0       0       0       0       0       0       0       0       0       
      +0       0       0       0       0       0       0       0       0       0       0       0       0       0       0       
      +0       0       0       0       0       0       0
  4053 ;;      Temps:          0       0       0       0       0       0       0       0       0       0       0       0       
      +0       0       0       0       0       0       0       0       0       0       0       0       0       0       0       
      +0       0       0       0       0       0       0
  4054 ;;      Totals:         6       0       0       0       0       0       0       0       0       0       0       0       
      +0       0       0       0       0       0       0       0       0       0       0       0       0       0       0       
      +0       0       0       0       0       0       0
  4055 ;;Total ram usage:        6 bytes
  4056 ;; Hardware stack levels used:    1
  4057 ;; Hardware stack levels required when called:    2
  4058 ;; This function calls:
  4059 ;;		_ValidateTransmission
  4060 ;;		_WriteMessageToFifo
  4061 ;;		_isTxChannel
  4062 ;; This function is called by:
  4063 ;;		_CANWriteMessage
  4064 ;; This function uses a non-reentrant model
  4065 ;;
  4066                           
  4067                           	psect	text43
  4068  0033EC                     __ptext43:
  4069                           	callstack 0
  4070  0033EC                     _CAN1_Transmit:
  4071                           	callstack 115
  4072                           
  4073                           ;incstack = 0
  4074                           ;CAN1_Transmit@fifoChannel stored from wreg
  4075  0033EC  6E1D               	movwf	CAN1_Transmit@fifoChannel^(0+1280),c
  4076  0033EE                     
  4077                           ;mcc_generated_files/can1.c: 571:     if (isTxChannel(fifoChannel))
  4078  0033EE  501D               	movf	CAN1_Transmit@fifoChannel^(0+1280),w,c
  4079  0033F0  ECD7  F01B         	call	_isTxChannel
  4080  0033F4  0900               	iorlw	0
  4081  0033F6  B4D8               	btfsc	status,2,c
  4082  0033F8  EF00  F01A         	goto	i2u150_41
  4083  0033FC  EF02  F01A         	goto	i2u150_40
  4084  003400                     i2u150_41:
  4085  003400  EF3F  F01A         	goto	i2l272
  4086  003404                     i2u150_40:
  4087  003404                     
  4088                           ;mcc_generated_files/can1.c: 572:     {;mcc_generated_files/can1.c: 573:         status 
      +                          = ValidateTransmission(fifoChannel, txCanMsg);
  4089  003404  C518  F502         	movff	CAN1_Transmit@txCanMsg,ValidateTransmission@txCanMsg
  4090  003408  C519  F503         	movff	CAN1_Transmit@txCanMsg+1,ValidateTransmission@txCanMsg+1
  4091  00340C  501D               	movf	CAN1_Transmit@fifoChannel^(0+1280),w,c
  4092  00340E  ECE1  F016         	call	_ValidateTransmission
  4093  003412  6E1A               	movwf	CAN1_Transmit@status^(0+1280),c
  4094  003414                     
  4095                           ;mcc_generated_files/can1.c: 574:         if (CAN_TX_MSG_REQUEST_SUCCESS == status)
  4096  003414  501A               	movf	CAN1_Transmit@status^(0+1280),w,c
  4097  003416  A4D8               	btfss	status,2,c
  4098  003418  EF10  F01A         	goto	i2u151_41
  4099  00341C  EF12  F01A         	goto	i2u151_40
  4100  003420                     i2u151_41:
  4101  003420  EF3F  F01A         	goto	i2l272
  4102  003424                     i2u151_40:
  4103  003424                     
  4104                           ;mcc_generated_files/can1.c: 575:         {;mcc_generated_files/can1.c: 576:            
      +                           uint8_t *txFifoObj = (uint8_t *) FIFO[fifoChannel].UA;
  4105  003424  501D               	movf	CAN1_Transmit@fifoChannel^(0+1280),w,c
  4106  003426  0D0C               	mullw	12
  4107  003428  0E58               	movlw	88
  4108  00342A  24F3               	addwf	243,w,c
  4109  00342C  6ED9               	movwf	fsr2l,c
  4110  00342E  0E01               	movlw	1
  4111  003430  20F4               	addwfc	prodh,w,c
  4112  003432  6EDA               	movwf	fsr2h,c
  4113  003434  0061 F378  F51B    	movff	postinc2,CAN1_Transmit@txFifoObj
  4114  00343A  0061 F374  F51C    	movff	postdec2,CAN1_Transmit@txFifoObj+1
  4115  003440                     
  4116                           ;mcc_generated_files/can1.c: 578:             if (txFifoObj != ((void*)0))
  4117  003440  501B               	movf	CAN1_Transmit@txFifoObj^(0+1280),w,c
  4118  003442  101C               	iorwf	(CAN1_Transmit@txFifoObj+1)^(0+1280),w,c
  4119  003444  B4D8               	btfsc	status,2,c
  4120  003446  EF27  F01A         	goto	i2u152_41
  4121  00344A  EF29  F01A         	goto	i2u152_40
  4122  00344E                     i2u152_41:
  4123  00344E  EF3F  F01A         	goto	i2l269
  4124  003452                     i2u152_40:
  4125  003452                     
  4126                           ;mcc_generated_files/can1.c: 579:             {;mcc_generated_files/can1.c: 580:        
      +                                   WriteMessageToFifo(txFifoObj, txCanMsg);
  4127  003452  C51B  F50C         	movff	CAN1_Transmit@txFifoObj,WriteMessageToFifo@txFifoObj
  4128  003456  C51C  F50D         	movff	CAN1_Transmit@txFifoObj+1,WriteMessageToFifo@txFifoObj+1
  4129  00345A  C518  F50E         	movff	CAN1_Transmit@txCanMsg,WriteMessageToFifo@txCanMsg
  4130  00345E  C519  F50F         	movff	CAN1_Transmit@txCanMsg+1,WriteMessageToFifo@txCanMsg+1
  4131  003462  EC07  F013         	call	_WriteMessageToFifo	;wreg free
  4132  003466                     
  4133                           ;mcc_generated_files/can1.c: 581:                 FIFO[fifoChannel].CONH |= (0x2 | 0x1);
  4134  003466  501D               	movf	CAN1_Transmit@fifoChannel^(0+1280),w,c
  4135  003468  0D0C               	mullw	12
  4136  00346A  0E51               	movlw	81
  4137  00346C  24F3               	addwf	243,w,c
  4138  00346E  6ED9               	movwf	fsr2l,c
  4139  003470  0E01               	movlw	1
  4140  003472  20F4               	addwfc	prodh,w,c
  4141  003474  6EDA               	movwf	fsr2h,c
  4142  003476  0E03               	movlw	3
  4143  003478  12DF               	iorwf	indf2,f,c
  4144  00347A  EF3F  F01A         	goto	i2l272
  4145  00347E                     i2l269:
  4146  00347E                     i2l272:
  4147  00347E  0012               	return		;funcret
  4148  003480                     __end_of_CAN1_Transmit:
  4149                           	callstack 0
  4150                           
  4151 ;; *************** function _isTxChannel *****************
  4152 ;; Defined at:
  4153 ;;		line 487 in file "mcc_generated_files/can1.c"
  4154 ;; Parameters:    Size  Location     Type
  4155 ;;  channel         1    wreg     unsigned char 
  4156 ;; Auto vars:     Size  Location     Type
  4157 ;;  channel         1    1[COMRAM] unsigned char 
  4158 ;; Return value:  Size  Location     Type
  4159 ;;                  1    wreg      _Bool 
  4160 ;; Registers used:
  4161 ;;		wreg, fsr2l, fsr2h, status,2, status,0, prodl, prodh
  4162 ;; Tracked objects:
  4163 ;;		On entry : 0/0
  4164 ;;		On exit  : 0/0
  4165 ;;		Unchanged: 0/0
  4166 ;; Data sizes:     COMRAM   BANK5   BANK6   BANK7   BANK8   BANK9  BANK10  BANK11  BANK12  BANK13  BANK14  BANK15  BANK1
      +6  BANK17  BANK18  BANK19  BANK20  BANK21  BANK22  BANK23  BANK24  BANK25  BANK26  BANK27  BANK28  BANK29  BANK30  BANK3
      +1  BANK32  BANK33  BANK34  BANK35  BANK36  BANK37
  4167 ;;      Params:         0       0       0       0       0       0       0       0       0       0       0       0       
      +0       0       0       0       0       0       0       0       0       0       0       0       0       0       0       
      +0       0       0       0       0       0       0
  4168 ;;      Locals:         2       0       0       0       0       0       0       0       0       0       0       0       
      +0       0       0       0       0       0       0       0       0       0       0       0       0       0       0       
      +0       0       0       0       0       0       0
  4169 ;;      Temps:          0       0       0       0       0       0       0       0       0       0       0       0       
      +0       0       0       0       0       0       0       0       0       0       0       0       0       0       0       
      +0       0       0       0       0       0       0
  4170 ;;      Totals:         2       0       0       0       0       0       0       0       0       0       0       0       
      +0       0       0       0       0       0       0       0       0       0       0       0       0       0       0       
      +0       0       0       0       0       0       0
  4171 ;;Total ram usage:        2 bytes
  4172 ;; Hardware stack levels used:    1
  4173 ;; This function calls:
  4174 ;;		Nothing
  4175 ;; This function is called by:
  4176 ;;		_CAN1_Transmit
  4177 ;;		_CAN1_TransmitFIFOStatusGet
  4178 ;; This function uses a non-reentrant model
  4179 ;;
  4180                           
  4181                           	psect	text44
  4182  0037AE                     __ptext44:
  4183                           	callstack 0
  4184  0037AE                     _isTxChannel:
  4185                           	callstack 116
  4186                           
  4187                           ;incstack = 0
  4188                           ;isTxChannel@channel stored from wreg
  4189  0037AE  6E02               	movwf	isTxChannel@channel^(0+1280),c
  4190  0037B0                     
  4191                           ;mcc_generated_files/can1.c: 487: static _Bool isTxChannel(uint8_t channel);mcc_generate
      +                          d_files/can1.c: 488: {;mcc_generated_files/can1.c: 489:     return channel < 4u && (FIFO
      +                          [channel].CONL & 0x80);
  4192  0037B0  0E00               	movlw	0
  4193  0037B2  6E01               	movwf	_isTxChannel$718^(0+1280),c
  4194  0037B4  0E04               	movlw	4
  4195  0037B6  6002               	cpfslt	isTxChannel@channel^(0+1280),c
  4196  0037B8  EFE0  F01B         	goto	i2u118_41
  4197  0037BC  EFE2  F01B         	goto	i2u118_40
  4198  0037C0                     i2u118_41:
  4199  0037C0  EFF4  F01B         	goto	i2l247
  4200  0037C4                     i2u118_40:
  4201  0037C4  5002               	movf	isTxChannel@channel^(0+1280),w,c
  4202  0037C6  0D0C               	mullw	12
  4203  0037C8  0E50               	movlw	80
  4204  0037CA  24F3               	addwf	243,w,c
  4205  0037CC  6ED9               	movwf	fsr2l,c
  4206  0037CE  0E01               	movlw	1
  4207  0037D0  20F4               	addwfc	prodh,w,c
  4208  0037D2  6EDA               	movwf	fsr2h,c
  4209  0037D4  0101               	movlb	1	; () banked
  4210  0037D6  AEDF               	btfss	indf2,7,c
  4211  0037D8  EFF0  F01B         	goto	i2u119_41
  4212  0037DC  EFF2  F01B         	goto	i2u119_40
  4213  0037E0                     i2u119_41:
  4214  0037E0  EFF4  F01B         	goto	i2l247
  4215  0037E4                     i2u119_40:
  4216  0037E4                     
  4217                           ; BSR set to: 1
  4218  0037E4  0E01               	movlw	1
  4219  0037E6  6E01               	movwf	_isTxChannel$718^(0+1280),c
  4220  0037E8                     i2l247:
  4221  0037E8  5001               	movf	_isTxChannel$718^(0+1280),w,c
  4222  0037EA  0012               	return		;funcret
  4223  0037EC                     __end_of_isTxChannel:
  4224                           	callstack 0
  4225                           
  4226 ;; *************** function _WriteMessageToFifo *****************
  4227 ;; Defined at:
  4228 ;;		line 497 in file "mcc_generated_files/can1.c"
  4229 ;; Parameters:    Size  Location     Type
  4230 ;;  txFifoObj       2   11[COMRAM] PTR unsigned char 
  4231 ;;		 -> RAM(9727), 
  4232 ;;  txCanMsg        2   13[COMRAM] PTR struct .
  4233 ;;		 -> msgTransmit(7), 
  4234 ;; Auto vars:     Size  Location     Type
  4235 ;;  msgId           4   19[COMRAM] unsigned long 
  4236 ;;  status          1   18[COMRAM] unsigned char 
  4237 ;;  payloadOffse    1    0        const unsigned char 
  4238 ;; Return value:  Size  Location     Type
  4239 ;;                  1    wreg      void 
  4240 ;; Registers used:
  4241 ;;		wreg, fsr1l, fsr1h, fsr2l, fsr2h, status,2, status,0, tblptrl, tblptrh, tblptru, cstack
  4242 ;; Tracked objects:
  4243 ;;		On entry : 0/0
  4244 ;;		On exit  : 0/0
  4245 ;;		Unchanged: 0/0
  4246 ;; Data sizes:     COMRAM   BANK5   BANK6   BANK7   BANK8   BANK9  BANK10  BANK11  BANK12  BANK13  BANK14  BANK15  BANK1
      +6  BANK17  BANK18  BANK19  BANK20  BANK21  BANK22  BANK23  BANK24  BANK25  BANK26  BANK27  BANK28  BANK29  BANK30  BANK3
      +1  BANK32  BANK33  BANK34  BANK35  BANK36  BANK37
  4247 ;;      Params:         4       0       0       0       0       0       0       0       0       0       0       0       
      +0       0       0       0       0       0       0       0       0       0       0       0       0       0       0       
      +0       0       0       0       0       0       0
  4248 ;;      Locals:         6       0       0       0       0       0       0       0       0       0       0       0       
      +0       0       0       0       0       0       0       0       0       0       0       0       0       0       0       
      +0       0       0       0       0       0       0
  4249 ;;      Temps:          2       0       0       0       0       0       0       0       0       0       0       0       
      +0       0       0       0       0       0       0       0       0       0       0       0       0       0       0       
      +0       0       0       0       0       0       0
  4250 ;;      Totals:        12       0       0       0       0       0       0       0       0       0       0       0       
      +0       0       0       0       0       0       0       0       0       0       0       0       0       0       0       
      +0       0       0       0       0       0       0
  4251 ;;Total ram usage:       12 bytes
  4252 ;; Hardware stack levels used:    1
  4253 ;; Hardware stack levels required when called:    1
  4254 ;; This function calls:
  4255 ;;		_memcpy
  4256 ;; This function is called by:
  4257 ;;		_CAN1_Transmit
  4258 ;; This function uses a non-reentrant model
  4259 ;;
  4260                           
  4261                           	psect	text45
  4262  00260E                     __ptext45:
  4263                           	callstack 0
  4264  00260E                     _WriteMessageToFifo:
  4265                           	callstack 115
  4266  00260E                     
  4267                           ;mcc_generated_files/can1.c: 497: static void WriteMessageToFifo(uint8_t *txFifoObj, CAN
      +                          _MSG_OBJ *txCanMsg);mcc_generated_files/can1.c: 498: {;mcc_generated_files/can1.c: 499: 
      +                              uint32_t msgId = txCanMsg->msgId;
  4268  00260E  0061  F438  F4D9   	movff	WriteMessageToFifo@txCanMsg,fsr2l
  4269  002614  0061  F43C  F4DA   	movff	WriteMessageToFifo@txCanMsg+1,fsr2h
  4270  00261A  0061 F378  F514    	movff	postinc2,WriteMessageToFifo@msgId
  4271  002620  0061 F378  F515    	movff	postinc2,WriteMessageToFifo@msgId+1
  4272  002626  0061 F378  F516    	movff	postinc2,WriteMessageToFifo@msgId+2
  4273  00262C  0061 F378  F517    	movff	postinc2,WriteMessageToFifo@msgId+3
  4274  002632                     
  4275                           ;mcc_generated_files/can1.c: 507:     if (CAN_FRAME_EXT == txCanMsg->field.idType)
  4276  002632  EE20 F004          	lfsr	2,4
  4277  002636  500E               	movf	WriteMessageToFifo@txCanMsg^(0+1280),w,c
  4278  002638  26D9               	addwf	fsr2l,f,c
  4279  00263A  500F               	movf	(WriteMessageToFifo@txCanMsg+1)^(0+1280),w,c
  4280  00263C  22DA               	addwfc	fsr2h,f,c
  4281  00263E  A0DF               	btfss	indf2,0,c
  4282  002640  EF24  F013         	goto	i2u120_41
  4283  002644  EF26  F013         	goto	i2u120_40
  4284  002648                     i2u120_41:
  4285  002648  EF60  F013         	goto	i2l2552
  4286  00264C                     i2u120_40:
  4287  00264C                     
  4288                           ;mcc_generated_files/can1.c: 508:     {;mcc_generated_files/can1.c: 509:         txFifoO
      +                          bj[1] = (msgId << (3U)) & (0xF8U);
  4289  00264C  EE20 F001          	lfsr	2,1
  4290  002650  500C               	movf	WriteMessageToFifo@txFifoObj^(0+1280),w,c
  4291  002652  26D9               	addwf	fsr2l,f,c
  4292  002654  500D               	movf	(WriteMessageToFifo@txFifoObj+1)^(0+1280),w,c
  4293  002656  22DA               	addwfc	fsr2h,f,c
  4294  002658  3814               	swapf	WriteMessageToFifo@msgId^(0+1280),w,c
  4295  00265A  42E8               	rrncf	wreg,f,c
  4296  00265C  0BF8               	andlw	248
  4297  00265E  0BF8               	andlw	248
  4298  002660  6EDF               	movwf	indf2,c
  4299  002662                     
  4300                           ;mcc_generated_files/can1.c: 510:         msgId >>= (5U);
  4301  002662  0E05               	movlw	5
  4302  002664  6E10               	movwf	??_WriteMessageToFifo^(0+1280),c
  4303  002666                     i2u121_45:
  4304  002666  90D8               	bcf	status,0,c
  4305  002668  3217               	rrcf	(WriteMessageToFifo@msgId+3)^(0+1280),f,c
  4306  00266A  3216               	rrcf	(WriteMessageToFifo@msgId+2)^(0+1280),f,c
  4307  00266C  3215               	rrcf	(WriteMessageToFifo@msgId+1)^(0+1280),f,c
  4308  00266E  3214               	rrcf	WriteMessageToFifo@msgId^(0+1280),f,c
  4309  002670  2E10               	decfsz	??_WriteMessageToFifo^(0+1280),f,c
  4310  002672  EF33  F013         	goto	i2u121_45
  4311  002676                     
  4312                           ;mcc_generated_files/can1.c: 511:         txFifoObj[2] = msgId;
  4313  002676  EE20 F002          	lfsr	2,2
  4314  00267A  500C               	movf	WriteMessageToFifo@txFifoObj^(0+1280),w,c
  4315  00267C  26D9               	addwf	fsr2l,f,c
  4316  00267E  500D               	movf	(WriteMessageToFifo@txFifoObj+1)^(0+1280),w,c
  4317  002680  22DA               	addwfc	fsr2h,f,c
  4318  002682  0061  F450  F4DF   	movff	WriteMessageToFifo@msgId,indf2
  4319  002688                     
  4320                           ;mcc_generated_files/can1.c: 512:         msgId >>= (8U);
  4321  002688  C515  F514         	movff	WriteMessageToFifo@msgId+1,WriteMessageToFifo@msgId
  4322  00268C  C516  F515         	movff	WriteMessageToFifo@msgId+2,WriteMessageToFifo@msgId+1
  4323  002690  C517  F516         	movff	WriteMessageToFifo@msgId+3,WriteMessageToFifo@msgId+2
  4324  002694  6A17               	clrf	(WriteMessageToFifo@msgId+3)^(0+1280),c
  4325  002696                     
  4326                           ;mcc_generated_files/can1.c: 513:         txFifoObj[3] = (msgId & (0x1FU));
  4327  002696  EE20 F003          	lfsr	2,3
  4328  00269A  500C               	movf	WriteMessageToFifo@txFifoObj^(0+1280),w,c
  4329  00269C  26D9               	addwf	fsr2l,f,c
  4330  00269E  500D               	movf	(WriteMessageToFifo@txFifoObj+1)^(0+1280),w,c
  4331  0026A0  22DA               	addwfc	fsr2h,f,c
  4332  0026A2  5014               	movf	WriteMessageToFifo@msgId^(0+1280),w,c
  4333  0026A4  0B1F               	andlw	31
  4334  0026A6  6EDF               	movwf	indf2,c
  4335  0026A8                     
  4336                           ;mcc_generated_files/can1.c: 514:         msgId >>= (5U);
  4337  0026A8  0E05               	movlw	5
  4338  0026AA  6E10               	movwf	??_WriteMessageToFifo^(0+1280),c
  4339  0026AC                     i2u122_45:
  4340  0026AC  90D8               	bcf	status,0,c
  4341  0026AE  3217               	rrcf	(WriteMessageToFifo@msgId+3)^(0+1280),f,c
  4342  0026B0  3216               	rrcf	(WriteMessageToFifo@msgId+2)^(0+1280),f,c
  4343  0026B2  3215               	rrcf	(WriteMessageToFifo@msgId+1)^(0+1280),f,c
  4344  0026B4  3214               	rrcf	WriteMessageToFifo@msgId^(0+1280),f,c
  4345  0026B6  2E10               	decfsz	??_WriteMessageToFifo^(0+1280),f,c
  4346  0026B8  EF56  F013         	goto	i2u122_45
  4347                           
  4348                           ;mcc_generated_files/can1.c: 515:     }
  4349  0026BC  EF78  F013         	goto	i2l2554
  4350  0026C0                     i2l2552:
  4351                           
  4352                           ;mcc_generated_files/can1.c: 517:     {;mcc_generated_files/can1.c: 518:         txFifoO
      +                          bj[1] = txFifoObj[2] = txFifoObj[3] = 0;
  4353  0026C0  EE20 F003          	lfsr	2,3
  4354  0026C4  500C               	movf	WriteMessageToFifo@txFifoObj^(0+1280),w,c
  4355  0026C6  26D9               	addwf	fsr2l,f,c
  4356  0026C8  500D               	movf	(WriteMessageToFifo@txFifoObj+1)^(0+1280),w,c
  4357  0026CA  22DA               	addwfc	fsr2h,f,c
  4358  0026CC  0E00               	movlw	0
  4359  0026CE  6EDF               	movwf	indf2,c
  4360  0026D0  EE10 F002          	lfsr	1,2
  4361  0026D4  500C               	movf	WriteMessageToFifo@txFifoObj^(0+1280),w,c
  4362  0026D6  26E1               	addwf	fsr1l,f,c
  4363  0026D8  500D               	movf	(WriteMessageToFifo@txFifoObj+1)^(0+1280),w,c
  4364  0026DA  22E2               	addwfc	fsr1h,f,c
  4365  0026DC  C4DF F4E7          	movff	indf2,indf1
  4366  0026E0  EE20 F001          	lfsr	2,1
  4367  0026E4  500C               	movf	WriteMessageToFifo@txFifoObj^(0+1280),w,c
  4368  0026E6  26D9               	addwf	fsr2l,f,c
  4369  0026E8  500D               	movf	(WriteMessageToFifo@txFifoObj+1)^(0+1280),w,c
  4370  0026EA  22DA               	addwfc	fsr2h,f,c
  4371  0026EC  C4E7 F4DF          	movff	indf1,indf2
  4372  0026F0                     i2l2554:
  4373                           
  4374                           ;mcc_generated_files/can1.c: 521:     txFifoObj[0] = msgId;
  4375  0026F0  0061  F430  F4D9   	movff	WriteMessageToFifo@txFifoObj,fsr2l
  4376  0026F6  0061  F434  F4DA   	movff	WriteMessageToFifo@txFifoObj+1,fsr2h
  4377  0026FC  0061  F450  F4DF   	movff	WriteMessageToFifo@msgId,indf2
  4378  002702                     
  4379                           ;mcc_generated_files/can1.c: 522:     msgId >>= (8U);
  4380  002702  C515  F514         	movff	WriteMessageToFifo@msgId+1,WriteMessageToFifo@msgId
  4381  002706  C516  F515         	movff	WriteMessageToFifo@msgId+2,WriteMessageToFifo@msgId+1
  4382  00270A  C517  F516         	movff	WriteMessageToFifo@msgId+3,WriteMessageToFifo@msgId+2
  4383  00270E  6A17               	clrf	(WriteMessageToFifo@msgId+3)^(0+1280),c
  4384  002710                     
  4385                           ;mcc_generated_files/can1.c: 523:     txFifoObj[1] |= (msgId & (0x07U));
  4386  002710  C514  F510         	movff	WriteMessageToFifo@msgId,??_WriteMessageToFifo
  4387  002714  0E07               	movlw	7
  4388  002716  1610               	andwf	??_WriteMessageToFifo^(0+1280),f,c
  4389  002718  EE20 F001          	lfsr	2,1
  4390  00271C  500C               	movf	WriteMessageToFifo@txFifoObj^(0+1280),w,c
  4391  00271E  26D9               	addwf	fsr2l,f,c
  4392  002720  500D               	movf	(WriteMessageToFifo@txFifoObj+1)^(0+1280),w,c
  4393  002722  22DA               	addwfc	fsr2h,f,c
  4394  002724  5010               	movf	??_WriteMessageToFifo^(0+1280),w,c
  4395  002726  12DF               	iorwf	indf2,f,c
  4396  002728                     
  4397                           ;mcc_generated_files/can1.c: 525:     status = txCanMsg->field.dlc;
  4398  002728  EE20 F004          	lfsr	2,4
  4399  00272C  500E               	movf	WriteMessageToFifo@txCanMsg^(0+1280),w,c
  4400  00272E  26D9               	addwf	fsr2l,f,c
  4401  002730  500F               	movf	(WriteMessageToFifo@txCanMsg+1)^(0+1280),w,c
  4402  002732  22DA               	addwfc	fsr2h,f,c
  4403  002734  30DF               	rrcf	479,w,c
  4404  002736  32E8               	rrcf	wreg,f,c
  4405  002738  0B0F               	andlw	15
  4406  00273A  6E13               	movwf	WriteMessageToFifo@status^(0+1280),c
  4407  00273C                     
  4408                           ;mcc_generated_files/can1.c: 526:     status |= (txCanMsg->field.idType << (4U));
  4409  00273C  EE20 F004          	lfsr	2,4
  4410  002740  500E               	movf	WriteMessageToFifo@txCanMsg^(0+1280),w,c
  4411  002742  26D9               	addwf	fsr2l,f,c
  4412  002744  500F               	movf	(WriteMessageToFifo@txCanMsg+1)^(0+1280),w,c
  4413  002746  22DA               	addwfc	fsr2h,f,c
  4414  002748  B0DF               	btfsc	indf2,0,c
  4415  00274A  EFA9  F013         	goto	i2u123_41
  4416  00274E  EFAD  F013         	goto	i2u123_40
  4417  002752                     i2u123_41:
  4418  002752  6A10               	clrf	??_WriteMessageToFifo^(0+1280),c
  4419  002754  2A10               	incf	??_WriteMessageToFifo^(0+1280),f,c
  4420  002756  EFAE  F013         	goto	i2u123_48
  4421  00275A                     i2u123_40:
  4422  00275A  6A10               	clrf	??_WriteMessageToFifo^(0+1280),c
  4423  00275C                     i2u123_48:
  4424  00275C  3810               	swapf	??_WriteMessageToFifo^(0+1280),w,c
  4425  00275E  0BF0               	andlw	240
  4426  002760  1213               	iorwf	WriteMessageToFifo@status^(0+1280),f,c
  4427  002762                     
  4428                           ;mcc_generated_files/can1.c: 527:     status |= (txCanMsg->field.frameType << (5U));
  4429  002762  EE20 F004          	lfsr	2,4
  4430  002766  500E               	movf	WriteMessageToFifo@txCanMsg^(0+1280),w,c
  4431  002768  26D9               	addwf	fsr2l,f,c
  4432  00276A  500F               	movf	(WriteMessageToFifo@txCanMsg+1)^(0+1280),w,c
  4433  00276C  22DA               	addwfc	fsr2h,f,c
  4434  00276E  B2DF               	btfsc	indf2,1,c
  4435  002770  EFBC  F013         	goto	i2u124_41
  4436  002774  EFC0  F013         	goto	i2u124_40
  4437  002778                     i2u124_41:
  4438  002778  0E20               	movlw	32
  4439  00277A  6E10               	movwf	??_WriteMessageToFifo^(0+1280),c
  4440  00277C  EFC1  F013         	goto	i2u125_45
  4441  002780                     i2u124_40:
  4442  002780  6A10               	clrf	??_WriteMessageToFifo^(0+1280),c
  4443  002782                     i2u125_45:
  4444  002782  5010               	movf	??_WriteMessageToFifo^(0+1280),w,c
  4445  002784  1213               	iorwf	WriteMessageToFifo@status^(0+1280),f,c
  4446  002786                     
  4447                           ;mcc_generated_files/can1.c: 528:     status |= (txCanMsg->field.brs << (6U));
  4448  002786  EE20 F004          	lfsr	2,4
  4449  00278A  500E               	movf	WriteMessageToFifo@txCanMsg^(0+1280),w,c
  4450  00278C  26D9               	addwf	fsr2l,f,c
  4451  00278E  500F               	movf	(WriteMessageToFifo@txCanMsg+1)^(0+1280),w,c
  4452  002790  22DA               	addwfc	fsr2h,f,c
  4453  002792  BEDF               	btfsc	indf2,7,c
  4454  002794  EFCE  F013         	goto	i2u126_41
  4455  002798  EFD2  F013         	goto	i2u126_40
  4456  00279C                     i2u126_41:
  4457  00279C  0E40               	movlw	64
  4458  00279E  6E10               	movwf	??_WriteMessageToFifo^(0+1280),c
  4459  0027A0  EFD3  F013         	goto	i2u127_45
  4460  0027A4                     i2u126_40:
  4461  0027A4  6A10               	clrf	??_WriteMessageToFifo^(0+1280),c
  4462  0027A6                     i2u127_45:
  4463  0027A6  5010               	movf	??_WriteMessageToFifo^(0+1280),w,c
  4464  0027A8  1213               	iorwf	WriteMessageToFifo@status^(0+1280),f,c
  4465  0027AA                     
  4466                           ;mcc_generated_files/can1.c: 529:     status |= (txCanMsg->field.formatType << (7U));
  4467  0027AA  EE20 F004          	lfsr	2,4
  4468  0027AE  500E               	movf	WriteMessageToFifo@txCanMsg^(0+1280),w,c
  4469  0027B0  26D9               	addwf	fsr2l,f,c
  4470  0027B2  500F               	movf	(WriteMessageToFifo@txCanMsg+1)^(0+1280),w,c
  4471  0027B4  22DA               	addwfc	fsr2h,f,c
  4472  0027B6  BCDF               	btfsc	indf2,6,c
  4473  0027B8  EFE0  F013         	goto	i2u128_41
  4474  0027BC  EFE4  F013         	goto	i2u128_40
  4475  0027C0                     i2u128_41:
  4476  0027C0  0E80               	movlw	128
  4477  0027C2  6E10               	movwf	??_WriteMessageToFifo^(0+1280),c
  4478  0027C4  EFE5  F013         	goto	i2u129_45
  4479  0027C8                     i2u128_40:
  4480  0027C8  6A10               	clrf	??_WriteMessageToFifo^(0+1280),c
  4481  0027CA                     i2u129_45:
  4482  0027CA  5010               	movf	??_WriteMessageToFifo^(0+1280),w,c
  4483  0027CC  1213               	iorwf	WriteMessageToFifo@status^(0+1280),f,c
  4484  0027CE                     
  4485                           ;mcc_generated_files/can1.c: 530:     txFifoObj[4] = status;
  4486  0027CE  EE20 F004          	lfsr	2,4
  4487  0027D2  500C               	movf	WriteMessageToFifo@txFifoObj^(0+1280),w,c
  4488  0027D4  26D9               	addwf	fsr2l,f,c
  4489  0027D6  500D               	movf	(WriteMessageToFifo@txFifoObj+1)^(0+1280),w,c
  4490  0027D8  22DA               	addwfc	fsr2h,f,c
  4491  0027DA  0061  F44C  F4DF   	movff	WriteMessageToFifo@status,indf2
  4492  0027E0                     
  4493                           ;mcc_generated_files/can1.c: 532:     if (CAN_FRAME_DATA == txCanMsg->field.frameType)
  4494  0027E0  EE20 F004          	lfsr	2,4
  4495  0027E4  500E               	movf	WriteMessageToFifo@txCanMsg^(0+1280),w,c
  4496  0027E6  26D9               	addwf	fsr2l,f,c
  4497  0027E8  500F               	movf	(WriteMessageToFifo@txCanMsg+1)^(0+1280),w,c
  4498  0027EA  22DA               	addwfc	fsr2h,f,c
  4499  0027EC  B2DF               	btfsc	indf2,1,c
  4500  0027EE  EFFB  F013         	goto	i2u130_41
  4501  0027F2  EFFD  F013         	goto	i2u130_40
  4502  0027F6                     i2u130_41:
  4503  0027F6  EF29  F014         	goto	i2l257
  4504  0027FA                     i2u130_40:
  4505  0027FA                     
  4506                           ;mcc_generated_files/can1.c: 533:     {;mcc_generated_files/can1.c: 534:         memcpy(
      +                          txFifoObj + payloadOffsetBytes, txCanMsg->data, (DLC_BYTES[(txCanMsg->field.dlc)]));
  4507  0027FA  0E08               	movlw	8
  4508  0027FC  240C               	addwf	WriteMessageToFifo@txFifoObj^(0+1280),w,c
  4509  0027FE  6E01               	movwf	memcpy@d1^(0+1280),c
  4510  002800  0E00               	movlw	0
  4511  002802  200D               	addwfc	(WriteMessageToFifo@txFifoObj+1)^(0+1280),w,c
  4512  002804  6E02               	movwf	(memcpy@d1+1)^(0+1280),c
  4513  002806  EE20 F005          	lfsr	2,5
  4514  00280A  500E               	movf	WriteMessageToFifo@txCanMsg^(0+1280),w,c
  4515  00280C  26D9               	addwf	fsr2l,f,c
  4516  00280E  500F               	movf	(WriteMessageToFifo@txCanMsg+1)^(0+1280),w,c
  4517  002810  22DA               	addwfc	fsr2h,f,c
  4518  002812  0061 F378  F503    	movff	postinc2,memcpy@s1
  4519  002818  0061 F374  F504    	movff	postdec2,memcpy@s1+1
  4520  00281E  EE20 F004          	lfsr	2,4
  4521  002822  500E               	movf	WriteMessageToFifo@txCanMsg^(0+1280),w,c
  4522  002824  26D9               	addwf	fsr2l,f,c
  4523  002826  500F               	movf	(WriteMessageToFifo@txCanMsg+1)^(0+1280),w,c
  4524  002828  22DA               	addwfc	fsr2h,f,c
  4525  00282A  30DF               	rrcf	479,w,c
  4526  00282C  32E8               	rrcf	wreg,f,c
  4527  00282E  0B0F               	andlw	15
  4528  002830  6E10               	movwf	??_WriteMessageToFifo^(0+1280),c
  4529  002832  6A11               	clrf	(??_WriteMessageToFifo+1)^(0+1280),c
  4530  002834  0E01               	movlw	low _DLC_BYTES
  4531  002836  2410               	addwf	??_WriteMessageToFifo^(0+1280),w,c
  4532  002838  6EF6               	movwf	tblptrl,c
  4533  00283A  0E26               	movlw	high _DLC_BYTES
  4534  00283C  2011               	addwfc	(??_WriteMessageToFifo+1)^(0+1280),w,c
  4535  00283E  6EF7               	movwf	tblptrh,c
  4536  002840                     	if	1	;There are 3 active tblptr bytes
  4537  002840  6AF8               	clrf	tblptru,c
  4538  002842  0E00               	movlw	low (__mediumconst shr (0+16))
  4539  002844  22F8               	addwfc	tblptru,f,c
  4540  002846                     	endif
  4541  002846  0008               	tblrd		*
  4542  002848  50F5               	movf	tablat,w,c
  4543  00284A  6E05               	movwf	memcpy@n^(0+1280),c
  4544  00284C  6A06               	clrf	(memcpy@n+1)^(0+1280),c
  4545  00284E  ECEB  F01A         	call	_memcpy	;wreg free
  4546  002852                     i2l257:
  4547  002852  0012               	return		;funcret
  4548  002854                     __end_of_WriteMessageToFifo:
  4549                           	callstack 0
  4550                           
  4551 ;; *************** function _ValidateTransmission *****************
  4552 ;; Defined at:
  4553 ;;		line 538 in file "mcc_generated_files/can1.c"
  4554 ;; Parameters:    Size  Location     Type
  4555 ;;  validChannel    1    wreg     unsigned char 
  4556 ;;  txCanMsg        2    1[COMRAM] PTR struct .
  4557 ;;		 -> msgTransmit(7), 
  4558 ;; Auto vars:     Size  Location     Type
  4559 ;;  validChannel    1    6[COMRAM] unsigned char 
  4560 ;;  field           1    9[COMRAM] struct .
  4561 ;;  txMsgStatus     1    8[COMRAM] enum E22340
  4562 ;;  plsize          1    0        unsigned char 
  4563 ;; Return value:  Size  Location     Type
  4564 ;;                  1    wreg      enum E22340
  4565 ;; Registers used:
  4566 ;;		wreg, fsr2l, fsr2h, status,2, status,0, tblptrl, tblptrh, tblptru, prodl, prodh, cstack
  4567 ;; Tracked objects:
  4568 ;;		On entry : 0/0
  4569 ;;		On exit  : 0/0
  4570 ;;		Unchanged: 0/0
  4571 ;; Data sizes:     COMRAM   BANK5   BANK6   BANK7   BANK8   BANK9  BANK10  BANK11  BANK12  BANK13  BANK14  BANK15  BANK1
      +6  BANK17  BANK18  BANK19  BANK20  BANK21  BANK22  BANK23  BANK24  BANK25  BANK26  BANK27  BANK28  BANK29  BANK30  BANK3
      +1  BANK32  BANK33  BANK34  BANK35  BANK36  BANK37
  4572 ;;      Params:         2       0       0       0       0       0       0       0       0       0       0       0       
      +0       0       0       0       0       0       0       0       0       0       0       0       0       0       0       
      +0       0       0       0       0       0       0
  4573 ;;      Locals:         4       0       0       0       0       0       0       0       0       0       0       0       
      +0       0       0       0       0       0       0       0       0       0       0       0       0       0       0       
      +0       0       0       0       0       0       0
  4574 ;;      Temps:          3       0       0       0       0       0       0       0       0       0       0       0       
      +0       0       0       0       0       0       0       0       0       0       0       0       0       0       0       
      +0       0       0       0       0       0       0
  4575 ;;      Totals:         9       0       0       0       0       0       0       0       0       0       0       0       
      +0       0       0       0       0       0       0       0       0       0       0       0       0       0       0       
      +0       0       0       0       0       0       0
  4576 ;;Total ram usage:        9 bytes
  4577 ;; Hardware stack levels used:    1
  4578 ;; Hardware stack levels required when called:    1
  4579 ;; This function calls:
  4580 ;;		_GetTxFifoStatus
  4581 ;;		i2_CAN1_OperationModeGet
  4582 ;; This function is called by:
  4583 ;;		_CAN1_Transmit
  4584 ;; This function uses a non-reentrant model
  4585 ;;
  4586                           
  4587                           	psect	text46
  4588  002DC2                     __ptext46:
  4589                           	callstack 0
  4590  002DC2                     _ValidateTransmission:
  4591                           	callstack 115
  4592                           
  4593                           ;incstack = 0
  4594                           ;ValidateTransmission@validChannel stored from wreg
  4595  002DC2  6E07               	movwf	ValidateTransmission@validChannel^(0+1280),c
  4596  002DC4                     
  4597                           ;mcc_generated_files/can1.c: 538: static CAN_TX_MSG_REQUEST_STATUS ValidateTransmission(
      +                          uint8_t validChannel, CAN_MSG_OBJ *txCanMsg);mcc_generated_files/can1.c: 539: {;mcc_gene
      +                          rated_files/can1.c: 540:     CAN_TX_MSG_REQUEST_STATUS txMsgStatus = CAN_TX_MSG_REQUEST_
      +                          SUCCESS;
  4598  002DC4  0E00               	movlw	0
  4599  002DC6  6E09               	movwf	ValidateTransmission@txMsgStatus^(0+1280),c
  4600  002DC8                     
  4601                           ;mcc_generated_files/can1.c: 541:     CAN_MSG_FIELD field = txCanMsg->field;
  4602  002DC8  EE20 F004          	lfsr	2,4
  4603  002DCC  5002               	movf	ValidateTransmission@txCanMsg^(0+1280),w,c
  4604  002DCE  26D9               	addwf	fsr2l,f,c
  4605  002DD0  5003               	movf	(ValidateTransmission@txCanMsg+1)^(0+1280),w,c
  4606  002DD2  22DA               	addwfc	fsr2h,f,c
  4607  002DD4  50DF               	movf	indf2,w,c
  4608  002DD6  6E0A               	movwf	ValidateTransmission@field^(0+1280),c
  4609  002DD8                     
  4610                           ;mcc_generated_files/can1.c: 544:     if (CAN_BRS_MODE == field.brs && (CAN_NORMAL_2_0_M
      +                          ODE == CAN1_OperationModeGet()))
  4611  002DD8  AE0A               	btfss	ValidateTransmission@field^(0+1280),7,c
  4612  002DDA  EFF1  F016         	goto	i2u131_41
  4613  002DDE  EFF3  F016         	goto	i2u131_40
  4614  002DE2                     i2u131_41:
  4615  002DE2  EFFE  F016         	goto	i2l2588
  4616  002DE6                     i2u131_40:
  4617  002DE6  ECD9  F01D         	call	i2_CAN1_OperationModeGet	;wreg free
  4618  002DEA  0A06               	xorlw	6
  4619  002DEC  A4D8               	btfss	status,2,c
  4620  002DEE  EFFB  F016         	goto	i2u132_41
  4621  002DF2  EFFD  F016         	goto	i2u132_40
  4622  002DF6                     i2u132_41:
  4623  002DF6  EFFE  F016         	goto	i2l2588
  4624  002DFA                     i2u132_40:
  4625  002DFA                     
  4626                           ;mcc_generated_files/can1.c: 545:     {;mcc_generated_files/can1.c: 546:         txMsgSt
      +                          atus |= CAN_TX_MSG_REQUEST_BRS_ERROR;
  4627  002DFA  8209               	bsf	ValidateTransmission@txMsgStatus^(0+1280),1,c
  4628  002DFC                     i2l2588:
  4629                           
  4630                           ;mcc_generated_files/can1.c: 549:     if (field.dlc > DLC_8 && (CAN_2_0_FORMAT == field.
      +                          formatType || CAN_NORMAL_2_0_MODE == CAN1_OperationModeGet()))
  4631  002DFC  300A               	rrcf	ValidateTransmission@field^(0+1280),w,c
  4632  002DFE  32E8               	rrcf	wreg,f,c
  4633  002E00  0B0F               	andlw	15
  4634  002E02  6E04               	movwf	??_ValidateTransmission^(0+1280),c
  4635  002E04  0E08               	movlw	8
  4636  002E06  6404               	cpfsgt	??_ValidateTransmission^(0+1280),c
  4637  002E08  EF08  F017         	goto	i2u133_41
  4638  002E0C  EF0A  F017         	goto	i2u133_40
  4639  002E10                     i2u133_41:
  4640  002E10  EF1C  F017         	goto	i2l2596
  4641  002E14                     i2u133_40:
  4642  002E14  AC0A               	btfss	ValidateTransmission@field^(0+1280),6,c
  4643  002E16  EF0F  F017         	goto	i2u134_41
  4644  002E1A  EF11  F017         	goto	i2u134_40
  4645  002E1E                     i2u134_41:
  4646  002E1E  EF1B  F017         	goto	i2l2594
  4647  002E22                     i2u134_40:
  4648  002E22  ECD9  F01D         	call	i2_CAN1_OperationModeGet	;wreg free
  4649  002E26  0A06               	xorlw	6
  4650  002E28  A4D8               	btfss	status,2,c
  4651  002E2A  EF19  F017         	goto	i2u135_41
  4652  002E2E  EF1B  F017         	goto	i2u135_40
  4653  002E32                     i2u135_41:
  4654  002E32  EF1C  F017         	goto	i2l2596
  4655  002E36                     i2u135_40:
  4656  002E36                     i2l2594:
  4657                           
  4658                           ;mcc_generated_files/can1.c: 550:     {;mcc_generated_files/can1.c: 551:         txMsgSt
      +                          atus |= CAN_TX_MSG_REQUEST_DLC_EXCEED_ERROR;
  4659  002E36  8009               	bsf	ValidateTransmission@txMsgStatus^(0+1280),0,c
  4660  002E38                     i2l2596:
  4661                           
  4662                           ;mcc_generated_files/can1.c: 554:     if ((DLC_BYTES[(field.dlc)]) > ((DLC_BYTES[(8u + (
      +                          plsize))])))
  4663  002E38  0E09               	movlw	low (_DLC_BYTES+8)
  4664  002E3A  6EF6               	movwf	tblptrl,c
  4665  002E3C  0E26               	movlw	high (_DLC_BYTES+8)
  4666  002E3E  6EF7               	movwf	tblptrh,c
  4667  002E40                     	if	1	;Program memory is < 0x10000, tblptru is always zero
  4668  002E40  6AF8               	clrf	tblptru,c
  4669  002E42                     	endif
  4670  002E42                     	if	0	;tblptru may be non-zero
  4671  002E42                     	endif
  4672  002E42  0008               	tblrd		*
  4673  002E44  0061 F3D4  F504    	movff	tablat,??_ValidateTransmission
  4674  002E4A  300A               	rrcf	ValidateTransmission@field^(0+1280),w,c
  4675  002E4C  32E8               	rrcf	wreg,f,c
  4676  002E4E  0B0F               	andlw	15
  4677  002E50  6E05               	movwf	(??_ValidateTransmission+1)^(0+1280),c
  4678  002E52  6A06               	clrf	(??_ValidateTransmission+2)^(0+1280),c
  4679  002E54  0E01               	movlw	low _DLC_BYTES
  4680  002E56  2405               	addwf	(??_ValidateTransmission+1)^(0+1280),w,c
  4681  002E58  6EF6               	movwf	tblptrl,c
  4682  002E5A  0E26               	movlw	high _DLC_BYTES
  4683  002E5C  2006               	addwfc	(??_ValidateTransmission+2)^(0+1280),w,c
  4684  002E5E  6EF7               	movwf	tblptrh,c
  4685  002E60                     	if	1	;There are 3 active tblptr bytes
  4686  002E60  6AF8               	clrf	tblptru,c
  4687  002E62  0E00               	movlw	low (__mediumconst shr (0+16))
  4688  002E64  22F8               	addwfc	tblptru,f,c
  4689  002E66                     	endif
  4690  002E66  0008               	tblrd		*
  4691  002E68  50F5               	movf	tablat,w,c
  4692  002E6A  5C04               	subwf	??_ValidateTransmission^(0+1280),w,c
  4693  002E6C  B0D8               	btfsc	status,0,c
  4694  002E6E  EF3B  F017         	goto	i2u136_41
  4695  002E72  EF3D  F017         	goto	i2u136_40
  4696  002E76                     i2u136_41:
  4697  002E76  EF3E  F017         	goto	i2l2600
  4698  002E7A                     i2u136_40:
  4699  002E7A                     
  4700                           ;mcc_generated_files/can1.c: 555:     {;mcc_generated_files/can1.c: 556:         txMsgSt
      +                          atus |= CAN_TX_MSG_REQUEST_DLC_EXCEED_ERROR;
  4701  002E7A  8009               	bsf	ValidateTransmission@txMsgStatus^(0+1280),0,c
  4702  002E7C                     i2l2600:
  4703                           
  4704                           ;mcc_generated_files/can1.c: 559:     if (CAN_TX_FIFO_FULL == GetTxFifoStatus(validChann
      +                          el))
  4705  002E7C  5007               	movf	ValidateTransmission@validChannel^(0+1280),w,c
  4706  002E7E  EC4A  F01D         	call	_GetTxFifoStatus
  4707  002E82  0900               	iorlw	0
  4708  002E84  A4D8               	btfss	status,2,c
  4709  002E86  EF47  F017         	goto	i2u137_41
  4710  002E8A  EF49  F017         	goto	i2u137_40
  4711  002E8E                     i2u137_41:
  4712  002E8E  EF4B  F017         	goto	i2l2604
  4713  002E92                     i2u137_40:
  4714  002E92                     
  4715                           ;mcc_generated_files/can1.c: 560:     {;mcc_generated_files/can1.c: 561:         txMsgSt
      +                          atus |= CAN_TX_MSG_REQUEST_FIFO_FULL;
  4716  002E92  0E03               	movlw	3
  4717  002E94  1209               	iorwf	ValidateTransmission@txMsgStatus^(0+1280),f,c
  4718  002E96                     i2l2604:
  4719                           
  4720                           ;mcc_generated_files/can1.c: 564:     return txMsgStatus;
  4721  002E96  5009               	movf	ValidateTransmission@txMsgStatus^(0+1280),w,c
  4722  002E98  0012               	return		;funcret
  4723  002E9A                     __end_of_ValidateTransmission:
  4724                           	callstack 0
  4725                           
  4726 ;; *************** function i2_CAN1_OperationModeGet *****************
  4727 ;; Defined at:
  4728 ;;		line 328 in file "mcc_generated_files/can1.c"
  4729 ;; Parameters:    Size  Location     Type
  4730 ;;		None
  4731 ;; Auto vars:     Size  Location     Type
  4732 ;;		None
  4733 ;; Return value:  Size  Location     Type
  4734 ;;                  1    wreg      enum E22346
  4735 ;; Registers used:
  4736 ;;		wreg, status,2, status,0
  4737 ;; Tracked objects:
  4738 ;;		On entry : 0/0
  4739 ;;		On exit  : 0/0
  4740 ;;		Unchanged: 0/0
  4741 ;; Data sizes:     COMRAM   BANK5   BANK6   BANK7   BANK8   BANK9  BANK10  BANK11  BANK12  BANK13  BANK14  BANK15  BANK1
      +6  BANK17  BANK18  BANK19  BANK20  BANK21  BANK22  BANK23  BANK24  BANK25  BANK26  BANK27  BANK28  BANK29  BANK30  BANK3
      +1  BANK32  BANK33  BANK34  BANK35  BANK36  BANK37
  4742 ;;      Params:         0       0       0       0       0       0       0       0       0       0       0       0       
      +0       0       0       0       0       0       0       0       0       0       0       0       0       0       0       
      +0       0       0       0       0       0       0
  4743 ;;      Locals:         0       0       0       0       0       0       0       0       0       0       0       0       
      +0       0       0       0       0       0       0       0       0       0       0       0       0       0       0       
      +0       0       0       0       0       0       0
  4744 ;;      Temps:          0       0       0       0       0       0       0       0       0       0       0       0       
      +0       0       0       0       0       0       0       0       0       0       0       0       0       0       0       
      +0       0       0       0       0       0       0
  4745 ;;      Totals:         0       0       0       0       0       0       0       0       0       0       0       0       
      +0       0       0       0       0       0       0       0       0       0       0       0       0       0       0       
      +0       0       0       0       0       0       0
  4746 ;;Total ram usage:        0 bytes
  4747 ;; Hardware stack levels used:    1
  4748 ;; This function calls:
  4749 ;;		Nothing
  4750 ;; This function is called by:
  4751 ;;		_ValidateTransmission
  4752 ;; This function uses a non-reentrant model
  4753 ;;
  4754                           
  4755                           	psect	text47
  4756  003BB2                     __ptext47:
  4757                           	callstack 0
  4758  003BB2                     i2_CAN1_OperationModeGet:
  4759                           	callstack 115
  4760  003BB2                     
  4761                           ;mcc_generated_files/can1.c: 330:     return C1CONUbits.OPMOD;
  4762  003BB2  0101               	movlb	1	; () banked
  4763  003BB4  3902               	swapf	2,w,b	;volatile
  4764  003BB6  32E8               	rrcf	wreg,f,c
  4765  003BB8  0B07               	andlw	7
  4766  003BBA                     
  4767                           ; BSR set to: 1
  4768  003BBA  0012               	return		;funcret
  4769  003BBC                     __end_ofi2_CAN1_OperationModeGet:
  4770                           	callstack 0
  4771                           
  4772 ;; *************** function _GetTxFifoStatus *****************
  4773 ;; Defined at:
  4774 ;;		line 492 in file "mcc_generated_files/can1.c"
  4775 ;; Parameters:    Size  Location     Type
  4776 ;;  validChannel    1    wreg     unsigned char 
  4777 ;; Auto vars:     Size  Location     Type
  4778 ;;  validChannel    1    0[COMRAM] unsigned char 
  4779 ;; Return value:  Size  Location     Type
  4780 ;;                  1    wreg      enum E22361
  4781 ;; Registers used:
  4782 ;;		wreg, fsr2l, fsr2h, status,2, status,0, prodl, prodh
  4783 ;; Tracked objects:
  4784 ;;		On entry : 0/0
  4785 ;;		On exit  : 0/0
  4786 ;;		Unchanged: 0/0
  4787 ;; Data sizes:     COMRAM   BANK5   BANK6   BANK7   BANK8   BANK9  BANK10  BANK11  BANK12  BANK13  BANK14  BANK15  BANK1
      +6  BANK17  BANK18  BANK19  BANK20  BANK21  BANK22  BANK23  BANK24  BANK25  BANK26  BANK27  BANK28  BANK29  BANK30  BANK3
      +1  BANK32  BANK33  BANK34  BANK35  BANK36  BANK37
  4788 ;;      Params:         0       0       0       0       0       0       0       0       0       0       0       0       
      +0       0       0       0       0       0       0       0       0       0       0       0       0       0       0       
      +0       0       0       0       0       0       0
  4789 ;;      Locals:         1       0       0       0       0       0       0       0       0       0       0       0       
      +0       0       0       0       0       0       0       0       0       0       0       0       0       0       0       
      +0       0       0       0       0       0       0
  4790 ;;      Temps:          0       0       0       0       0       0       0       0       0       0       0       0       
      +0       0       0       0       0       0       0       0       0       0       0       0       0       0       0       
      +0       0       0       0       0       0       0
  4791 ;;      Totals:         1       0       0       0       0       0       0       0       0       0       0       0       
      +0       0       0       0       0       0       0       0       0       0       0       0       0       0       0       
      +0       0       0       0       0       0       0
  4792 ;;Total ram usage:        1 bytes
  4793 ;; Hardware stack levels used:    1
  4794 ;; This function calls:
  4795 ;;		Nothing
  4796 ;; This function is called by:
  4797 ;;		_ValidateTransmission
  4798 ;;		_CAN1_TransmitFIFOStatusGet
  4799 ;; This function uses a non-reentrant model
  4800 ;;
  4801                           
  4802                           	psect	text48
  4803  003A94                     __ptext48:
  4804                           	callstack 0
  4805  003A94                     _GetTxFifoStatus:
  4806                           	callstack 116
  4807                           
  4808                           ; BSR set to: 1
  4809                           ;incstack = 0
  4810                           ;GetTxFifoStatus@validChannel stored from wreg
  4811  003A94  6E01               	movwf	GetTxFifoStatus@validChannel^(0+1280),c
  4812  003A96                     
  4813                           ;mcc_generated_files/can1.c: 492: static CAN_TX_FIFO_STATUS GetTxFifoStatus(uint8_t vali
      +                          dChannel);mcc_generated_files/can1.c: 493: {;mcc_generated_files/can1.c: 494:     return
      +                           (FIFO[validChannel].STAL & 0x1);
  4814  003A96  5001               	movf	GetTxFifoStatus@validChannel^(0+1280),w,c
  4815  003A98  0D0C               	mullw	12
  4816  003A9A  0E54               	movlw	84
  4817  003A9C  24F3               	addwf	243,w,c
  4818  003A9E  6ED9               	movwf	fsr2l,c
  4819  003AA0  0E01               	movlw	1
  4820  003AA2  20F4               	addwfc	prodh,w,c
  4821  003AA4  6EDA               	movwf	fsr2h,c
  4822  003AA6  50DF               	movf	indf2,w,c
  4823  003AA8  0B01               	andlw	1
  4824  003AAA  0012               	return		;funcret
  4825  003AAC                     __end_of_GetTxFifoStatus:
  4826                           	callstack 0
  4827                           
  4828 ;; *************** function _CAN1_IsTxErrorWarning *****************
  4829 ;; Defined at:
  4830 ;;		line 626 in file "mcc_generated_files/can1.c"
  4831 ;; Parameters:    Size  Location     Type
  4832 ;;		None
  4833 ;; Auto vars:     Size  Location     Type
  4834 ;;		None
  4835 ;; Return value:  Size  Location     Type
  4836 ;;                  1    wreg      _Bool 
  4837 ;; Registers used:
  4838 ;;		wreg
  4839 ;; Tracked objects:
  4840 ;;		On entry : 0/0
  4841 ;;		On exit  : 0/0
  4842 ;;		Unchanged: 0/0
  4843 ;; Data sizes:     COMRAM   BANK5   BANK6   BANK7   BANK8   BANK9  BANK10  BANK11  BANK12  BANK13  BANK14  BANK15  BANK1
      +6  BANK17  BANK18  BANK19  BANK20  BANK21  BANK22  BANK23  BANK24  BANK25  BANK26  BANK27  BANK28  BANK29  BANK30  BANK3
      +1  BANK32  BANK33  BANK34  BANK35  BANK36  BANK37
  4844 ;;      Params:         0       0       0       0       0       0       0       0       0       0       0       0       
      +0       0       0       0       0       0       0       0       0       0       0       0       0       0       0       
      +0       0       0       0       0       0       0
  4845 ;;      Locals:         0       0       0       0       0       0       0       0       0       0       0       0       
      +0       0       0       0       0       0       0       0       0       0       0       0       0       0       0       
      +0       0       0       0       0       0       0
  4846 ;;      Temps:          0       0       0       0       0       0       0       0       0       0       0       0       
      +0       0       0       0       0       0       0       0       0       0       0       0       0       0       0       
      +0       0       0       0       0       0       0
  4847 ;;      Totals:         0       0       0       0       0       0       0       0       0       0       0       0       
      +0       0       0       0       0       0       0       0       0       0       0       0       0       0       0       
      +0       0       0       0       0       0       0
  4848 ;;Total ram usage:        0 bytes
  4849 ;; Hardware stack levels used:    1
  4850 ;; This function calls:
  4851 ;;		Nothing
  4852 ;; This function is called by:
  4853 ;;		_CANWriteMessage
  4854 ;; This function uses a non-reentrant model
  4855 ;;
  4856                           
  4857                           	psect	text49
  4858  003ADA                     __ptext49:
  4859                           	callstack 0
  4860  003ADA                     _CAN1_IsTxErrorWarning:
  4861                           	callstack 117
  4862  003ADA                     
  4863                           ;mcc_generated_files/can1.c: 628:     return C1TRECUbits.TXWARN;
  4864  003ADA  0101               	movlb	1	; () banked
  4865  003ADC  B536               	btfsc	54,2,b	;volatile
  4866  003ADE  EF73  F01D         	goto	i2u155_41
  4867  003AE2  EF76  F01D         	goto	i2u155_40
  4868  003AE6                     i2u155_41:
  4869  003AE6  0E01               	movlw	1
  4870  003AE8  EF77  F01D         	goto	i2u155_46
  4871  003AEC                     i2u155_40:
  4872  003AEC  0E00               	movlw	0
  4873  003AEE                     i2u155_46:
  4874  003AEE                     
  4875                           ; BSR set to: 1
  4876  003AEE  0012               	return		;funcret
  4877  003AF0                     __end_of_CAN1_IsTxErrorWarning:
  4878                           	callstack 0
  4879                           
  4880 ;; *************** function _CAN1_IsTxErrorActive *****************
  4881 ;; Defined at:
  4882 ;;		line 631 in file "mcc_generated_files/can1.c"
  4883 ;; Parameters:    Size  Location     Type
  4884 ;;		None
  4885 ;; Auto vars:     Size  Location     Type
  4886 ;;		None
  4887 ;; Return value:  Size  Location     Type
  4888 ;;                  1    wreg      _Bool 
  4889 ;; Registers used:
  4890 ;;		wreg, status,2, cstack
  4891 ;; Tracked objects:
  4892 ;;		On entry : 0/0
  4893 ;;		On exit  : 0/0
  4894 ;;		Unchanged: 0/0
  4895 ;; Data sizes:     COMRAM   BANK5   BANK6   BANK7   BANK8   BANK9  BANK10  BANK11  BANK12  BANK13  BANK14  BANK15  BANK1
      +6  BANK17  BANK18  BANK19  BANK20  BANK21  BANK22  BANK23  BANK24  BANK25  BANK26  BANK27  BANK28  BANK29  BANK30  BANK3
      +1  BANK32  BANK33  BANK34  BANK35  BANK36  BANK37
  4896 ;;      Params:         0       0       0       0       0       0       0       0       0       0       0       0       
      +0       0       0       0       0       0       0       0       0       0       0       0       0       0       0       
      +0       0       0       0       0       0       0
  4897 ;;      Locals:         0       0       0       0       0       0       0       0       0       0       0       0       
      +0       0       0       0       0       0       0       0       0       0       0       0       0       0       0       
      +0       0       0       0       0       0       0
  4898 ;;      Temps:          0       0       0       0       0       0       0       0       0       0       0       0       
      +0       0       0       0       0       0       0       0       0       0       0       0       0       0       0       
      +0       0       0       0       0       0       0
  4899 ;;      Totals:         0       0       0       0       0       0       0       0       0       0       0       0       
      +0       0       0       0       0       0       0       0       0       0       0       0       0       0       0       
      +0       0       0       0       0       0       0
  4900 ;;Total ram usage:        0 bytes
  4901 ;; Hardware stack levels used:    1
  4902 ;; Hardware stack levels required when called:    1
  4903 ;; This function calls:
  4904 ;;		_CAN1_IsTxErrorPassive
  4905 ;; This function is called by:
  4906 ;;		_CANWriteMessage
  4907 ;; This function uses a non-reentrant model
  4908 ;;
  4909                           
  4910                           	psect	text50
  4911  003A62                     __ptext50:
  4912                           	callstack 0
  4913  003A62                     _CAN1_IsTxErrorActive:
  4914                           	callstack 116
  4915  003A62                     
  4916                           ;mcc_generated_files/can1.c: 633:     return !CAN1_IsTxErrorPassive();
  4917  003A62  EC78  F01D         	call	_CAN1_IsTxErrorPassive	;wreg free
  4918  003A66  0900               	iorlw	0
  4919  003A68  B4D8               	btfsc	status,2,c
  4920  003A6A  EF39  F01D         	goto	i2u156_41
  4921  003A6E  EF3C  F01D         	goto	i2u156_40
  4922  003A72                     i2u156_41:
  4923  003A72  0E01               	movlw	1
  4924  003A74  EF3D  F01D         	goto	i2u157_40
  4925  003A78                     i2u156_40:
  4926  003A78  0E00               	movlw	0
  4927  003A7A                     i2u157_40:
  4928  003A7A  0012               	return		;funcret
  4929  003A7C                     __end_of_CAN1_IsTxErrorActive:
  4930                           	callstack 0
  4931                           
  4932 ;; *************** function _CAN1_IsTxErrorPassive *****************
  4933 ;; Defined at:
  4934 ;;		line 621 in file "mcc_generated_files/can1.c"
  4935 ;; Parameters:    Size  Location     Type
  4936 ;;		None
  4937 ;; Auto vars:     Size  Location     Type
  4938 ;;		None
  4939 ;; Return value:  Size  Location     Type
  4940 ;;                  1    wreg      _Bool 
  4941 ;; Registers used:
  4942 ;;		wreg
  4943 ;; Tracked objects:
  4944 ;;		On entry : 0/0
  4945 ;;		On exit  : 0/0
  4946 ;;		Unchanged: 0/0
  4947 ;; Data sizes:     COMRAM   BANK5   BANK6   BANK7   BANK8   BANK9  BANK10  BANK11  BANK12  BANK13  BANK14  BANK15  BANK1
      +6  BANK17  BANK18  BANK19  BANK20  BANK21  BANK22  BANK23  BANK24  BANK25  BANK26  BANK27  BANK28  BANK29  BANK30  BANK3
      +1  BANK32  BANK33  BANK34  BANK35  BANK36  BANK37
  4948 ;;      Params:         0       0       0       0       0       0       0       0       0       0       0       0       
      +0       0       0       0       0       0       0       0       0       0       0       0       0       0       0       
      +0       0       0       0       0       0       0
  4949 ;;      Locals:         0       0       0       0       0       0       0       0       0       0       0       0       
      +0       0       0       0       0       0       0       0       0       0       0       0       0       0       0       
      +0       0       0       0       0       0       0
  4950 ;;      Temps:          0       0       0       0       0       0       0       0       0       0       0       0       
      +0       0       0       0       0       0       0       0       0       0       0       0       0       0       0       
      +0       0       0       0       0       0       0
  4951 ;;      Totals:         0       0       0       0       0       0       0       0       0       0       0       0       
      +0       0       0       0       0       0       0       0       0       0       0       0       0       0       0       
      +0       0       0       0       0       0       0
  4952 ;;Total ram usage:        0 bytes
  4953 ;; Hardware stack levels used:    1
  4954 ;; This function calls:
  4955 ;;		Nothing
  4956 ;; This function is called by:
  4957 ;;		_CAN1_IsTxErrorActive
  4958 ;;		_CANWriteMessage
  4959 ;; This function uses a non-reentrant model
  4960 ;;
  4961                           
  4962                           	psect	text51
  4963  003AF0                     __ptext51:
  4964                           	callstack 0
  4965  003AF0                     _CAN1_IsTxErrorPassive:
  4966                           	callstack 117
  4967  003AF0                     
  4968                           ;mcc_generated_files/can1.c: 623:     return C1TRECUbits.TXBP;
  4969  003AF0  0101               	movlb	1	; () banked
  4970  003AF2  B936               	btfsc	54,4,b	;volatile
  4971  003AF4  EF7E  F01D         	goto	i2u138_41
  4972  003AF8  EF81  F01D         	goto	i2u138_40
  4973  003AFC                     i2u138_41:
  4974  003AFC  0E01               	movlw	1
  4975  003AFE  EF82  F01D         	goto	i2u138_46
  4976  003B02                     i2u138_40:
  4977  003B02  0E00               	movlw	0
  4978  003B04                     i2u138_46:
  4979  003B04                     
  4980                           ; BSR set to: 1
  4981  003B04  0012               	return		;funcret
  4982  003B06                     __end_of_CAN1_IsTxErrorPassive:
  4983                           	callstack 0
  4984                           
  4985 ;; *************** function _CAN1_IsBusOff *****************
  4986 ;; Defined at:
  4987 ;;		line 601 in file "mcc_generated_files/can1.c"
  4988 ;; Parameters:    Size  Location     Type
  4989 ;;		None
  4990 ;; Auto vars:     Size  Location     Type
  4991 ;;		None
  4992 ;; Return value:  Size  Location     Type
  4993 ;;                  1    wreg      _Bool 
  4994 ;; Registers used:
  4995 ;;		wreg
  4996 ;; Tracked objects:
  4997 ;;		On entry : 0/0
  4998 ;;		On exit  : 0/0
  4999 ;;		Unchanged: 0/0
  5000 ;; Data sizes:     COMRAM   BANK5   BANK6   BANK7   BANK8   BANK9  BANK10  BANK11  BANK12  BANK13  BANK14  BANK15  BANK1
      +6  BANK17  BANK18  BANK19  BANK20  BANK21  BANK22  BANK23  BANK24  BANK25  BANK26  BANK27  BANK28  BANK29  BANK30  BANK3
      +1  BANK32  BANK33  BANK34  BANK35  BANK36  BANK37
  5001 ;;      Params:         0       0       0       0       0       0       0       0       0       0       0       0       
      +0       0       0       0       0       0       0       0       0       0       0       0       0       0       0       
      +0       0       0       0       0       0       0
  5002 ;;      Locals:         0       0       0       0       0       0       0       0       0       0       0       0       
      +0       0       0       0       0       0       0       0       0       0       0       0       0       0       0       
      +0       0       0       0       0       0       0
  5003 ;;      Temps:          0       0       0       0       0       0       0       0       0       0       0       0       
      +0       0       0       0       0       0       0       0       0       0       0       0       0       0       0       
      +0       0       0       0       0       0       0
  5004 ;;      Totals:         0       0       0       0       0       0       0       0       0       0       0       0       
      +0       0       0       0       0       0       0       0       0       0       0       0       0       0       0       
      +0       0       0       0       0       0       0
  5005 ;;Total ram usage:        0 bytes
  5006 ;; Hardware stack levels used:    1
  5007 ;; This function calls:
  5008 ;;		Nothing
  5009 ;; This function is called by:
  5010 ;;		_CANWriteMessage
  5011 ;; This function uses a non-reentrant model
  5012 ;;
  5013                           
  5014                           	psect	text52
  5015  003B06                     __ptext52:
  5016                           	callstack 0
  5017  003B06                     _CAN1_IsBusOff:
  5018                           	callstack 117
  5019  003B06                     
  5020                           ;mcc_generated_files/can1.c: 603:     return C1TRECUbits.TXBO;
  5021  003B06  0101               	movlb	1	; () banked
  5022  003B08  BB36               	btfsc	54,5,b	;volatile
  5023  003B0A  EF89  F01D         	goto	i2u154_41
  5024  003B0E  EF8C  F01D         	goto	i2u154_40
  5025  003B12                     i2u154_41:
  5026  003B12  0E01               	movlw	1
  5027  003B14  EF8D  F01D         	goto	i2u154_46
  5028  003B18                     i2u154_40:
  5029  003B18  0E00               	movlw	0
  5030  003B1A                     i2u154_46:
  5031  003B1A                     
  5032                           ; BSR set to: 1
  5033  003B1A  0012               	return		;funcret
  5034  003B1C                     __end_of_CAN1_IsBusOff:
  5035                           	callstack 0
  5036                           
  5037 ;; *************** function _TEMPORIZATION_30mins *****************
  5038 ;; Defined at:
  5039 ;;		line 55 in file "TEMPORIZATIONS.c"
  5040 ;; Parameters:    Size  Location     Type
  5041 ;;		None
  5042 ;; Auto vars:     Size  Location     Type
  5043 ;;		None
  5044 ;; Return value:  Size  Location     Type
  5045 ;;                  1    wreg      void 
  5046 ;; Registers used:
  5047 ;;		None
  5048 ;; Tracked objects:
  5049 ;;		On entry : 0/0
  5050 ;;		On exit  : 0/0
  5051 ;;		Unchanged: 0/0
  5052 ;; Data sizes:     COMRAM   BANK5   BANK6   BANK7   BANK8   BANK9  BANK10  BANK11  BANK12  BANK13  BANK14  BANK15  BANK1
      +6  BANK17  BANK18  BANK19  BANK20  BANK21  BANK22  BANK23  BANK24  BANK25  BANK26  BANK27  BANK28  BANK29  BANK30  BANK3
      +1  BANK32  BANK33  BANK34  BANK35  BANK36  BANK37
  5053 ;;      Params:         0       0       0       0       0       0       0       0       0       0       0       0       
      +0       0       0       0       0       0       0       0       0       0       0       0       0       0       0       
      +0       0       0       0       0       0       0
  5054 ;;      Locals:         0       0       0       0       0       0       0       0       0       0       0       0       
      +0       0       0       0       0       0       0       0       0       0       0       0       0       0       0       
      +0       0       0       0       0       0       0
  5055 ;;      Temps:          0       0       0       0       0       0       0       0       0       0       0       0       
      +0       0       0       0       0       0       0       0       0       0       0       0       0       0       0       
      +0       0       0       0       0       0       0
  5056 ;;      Totals:         0       0       0       0       0       0       0       0       0       0       0       0       
      +0       0       0       0       0       0       0       0       0       0       0       0       0       0       0       
      +0       0       0       0       0       0       0
  5057 ;;Total ram usage:        0 bytes
  5058 ;; Hardware stack levels used:    1
  5059 ;; This function calls:
  5060 ;;		Nothing
  5061 ;; This function is called by:
  5062 ;;		_TEMPORIZATION_1s
  5063 ;; This function uses a non-reentrant model
  5064 ;;
  5065                           
  5066                           	psect	text53
  5067  003BD8                     __ptext53:
  5068                           	callstack 0
  5069  003BD8                     _TEMPORIZATION_30mins:
  5070                           	callstack 120
  5071  003BD8  0012               	return		;funcret
  5072  003BDA                     __end_of_TEMPORIZATION_30mins:
  5073                           	callstack 0
  5074                           
  5075 ;; *************** function _TEMPORIZATION_1mins *****************
  5076 ;; Defined at:
  5077 ;;		line 66 in file "TEMPORIZATIONS.c"
  5078 ;; Parameters:    Size  Location     Type
  5079 ;;		None
  5080 ;; Auto vars:     Size  Location     Type
  5081 ;;		None
  5082 ;; Return value:  Size  Location     Type
  5083 ;;                  1    wreg      void 
  5084 ;; Registers used:
  5085 ;;		None
  5086 ;; Tracked objects:
  5087 ;;		On entry : 0/0
  5088 ;;		On exit  : 0/0
  5089 ;;		Unchanged: 0/0
  5090 ;; Data sizes:     COMRAM   BANK5   BANK6   BANK7   BANK8   BANK9  BANK10  BANK11  BANK12  BANK13  BANK14  BANK15  BANK1
      +6  BANK17  BANK18  BANK19  BANK20  BANK21  BANK22  BANK23  BANK24  BANK25  BANK26  BANK27  BANK28  BANK29  BANK30  BANK3
      +1  BANK32  BANK33  BANK34  BANK35  BANK36  BANK37
  5091 ;;      Params:         0       0       0       0       0       0       0       0       0       0       0       0       
      +0       0       0       0       0       0       0       0       0       0       0       0       0       0       0       
      +0       0       0       0       0       0       0
  5092 ;;      Locals:         0       0       0       0       0       0       0       0       0       0       0       0       
      +0       0       0       0       0       0       0       0       0       0       0       0       0       0       0       
      +0       0       0       0       0       0       0
  5093 ;;      Temps:          0       0       0       0       0       0       0       0       0       0       0       0       
      +0       0       0       0       0       0       0       0       0       0       0       0       0       0       0       
      +0       0       0       0       0       0       0
  5094 ;;      Totals:         0       0       0       0       0       0       0       0       0       0       0       0       
      +0       0       0       0       0       0       0       0       0       0       0       0       0       0       0       
      +0       0       0       0       0       0       0
  5095 ;;Total ram usage:        0 bytes
  5096 ;; Hardware stack levels used:    1
  5097 ;; This function calls:
  5098 ;;		Nothing
  5099 ;; This function is called by:
  5100 ;;		_TEMPORIZATION_1s
  5101 ;; This function uses a non-reentrant model
  5102 ;;
  5103                           
  5104                           	psect	text54
  5105  003BDA                     __ptext54:
  5106                           	callstack 0
  5107  003BDA                     _TEMPORIZATION_1mins:
  5108                           	callstack 120
  5109  003BDA  0012               	return		;funcret
  5110  003BDC                     __end_of_TEMPORIZATION_1mins:
  5111                           	callstack 0
  5112                           
  5113 ;; *************** function _TEMPORIZATION_15mins *****************
  5114 ;; Defined at:
  5115 ;;		line 60 in file "TEMPORIZATIONS.c"
  5116 ;; Parameters:    Size  Location     Type
  5117 ;;		None
  5118 ;; Auto vars:     Size  Location     Type
  5119 ;;		None
  5120 ;; Return value:  Size  Location     Type
  5121 ;;                  1    wreg      void 
  5122 ;; Registers used:
  5123 ;;		None
  5124 ;; Tracked objects:
  5125 ;;		On entry : 0/0
  5126 ;;		On exit  : 0/0
  5127 ;;		Unchanged: 0/0
  5128 ;; Data sizes:     COMRAM   BANK5   BANK6   BANK7   BANK8   BANK9  BANK10  BANK11  BANK12  BANK13  BANK14  BANK15  BANK1
      +6  BANK17  BANK18  BANK19  BANK20  BANK21  BANK22  BANK23  BANK24  BANK25  BANK26  BANK27  BANK28  BANK29  BANK30  BANK3
      +1  BANK32  BANK33  BANK34  BANK35  BANK36  BANK37
  5129 ;;      Params:         0       0       0       0       0       0       0       0       0       0       0       0       
      +0       0       0       0       0       0       0       0       0       0       0       0       0       0       0       
      +0       0       0       0       0       0       0
  5130 ;;      Locals:         0       0       0       0       0       0       0       0       0       0       0       0       
      +0       0       0       0       0       0       0       0       0       0       0       0       0       0       0       
      +0       0       0       0       0       0       0
  5131 ;;      Temps:          0       0       0       0       0       0       0       0       0       0       0       0       
      +0       0       0       0       0       0       0       0       0       0       0       0       0       0       0       
      +0       0       0       0       0       0       0
  5132 ;;      Totals:         0       0       0       0       0       0       0       0       0       0       0       0       
      +0       0       0       0       0       0       0       0       0       0       0       0       0       0       0       
      +0       0       0       0       0       0       0
  5133 ;;Total ram usage:        0 bytes
  5134 ;; Hardware stack levels used:    1
  5135 ;; This function calls:
  5136 ;;		Nothing
  5137 ;; This function is called by:
  5138 ;;		_TEMPORIZATION_1s
  5139 ;; This function uses a non-reentrant model
  5140 ;;
  5141                           
  5142                           	psect	text55
  5143  003BDC                     __ptext55:
  5144                           	callstack 0
  5145  003BDC                     _TEMPORIZATION_15mins:
  5146                           	callstack 120
  5147  003BDC  0012               	return		;funcret
  5148  003BDE                     __end_of_TEMPORIZATION_15mins:
  5149                           	callstack 0
  5150                           
  5151 ;; *************** function _CAN1_RXI_ISR *****************
  5152 ;; Defined at:
  5153 ;;		line 738 in file "mcc_generated_files/can1.c"
  5154 ;; Parameters:    Size  Location     Type
  5155 ;;		None
  5156 ;; Auto vars:     Size  Location     Type
  5157 ;;		None
  5158 ;; Return value:  Size  Location     Type
  5159 ;;                  1    wreg      void 
  5160 ;; Registers used:
  5161 ;;		wreg, fsr2l, fsr2h, status,2, status,0, pclath, tosl, tblptrl, tblptrh, tblptru, prodl, prodh, cstack
  5162 ;; Tracked objects:
  5163 ;;		On entry : 0/0
  5164 ;;		On exit  : 0/0
  5165 ;;		Unchanged: 0/0
  5166 ;; Data sizes:     COMRAM   BANK5   BANK6   BANK7   BANK8   BANK9  BANK10  BANK11  BANK12  BANK13  BANK14  BANK15  BANK1
      +6  BANK17  BANK18  BANK19  BANK20  BANK21  BANK22  BANK23  BANK24  BANK25  BANK26  BANK27  BANK28  BANK29  BANK30  BANK3
      +1  BANK32  BANK33  BANK34  BANK35  BANK36  BANK37
  5167 ;;      Params:         0       0       0       0       0       0       0       0       0       0       0       0       
      +0       0       0       0       0       0       0       0       0       0       0       0       0       0       0       
      +0       0       0       0       0       0       0
  5168 ;;      Locals:         0       0       0       0       0       0       0       0       0       0       0       0       
      +0       0       0       0       0       0       0       0       0       0       0       0       0       0       0       
      +0       0       0       0       0       0       0
  5169 ;;      Temps:          0       0       0       0       0       0       0       0       0       0       0       0       
      +0       0       0       0       0       0       0       0       0       0       0       0       0       0       0       
      +0       0       0       0       0       0       0
  5170 ;;      Totals:         0       0       0       0       0       0       0       0       0       0       0       0       
      +0       0       0       0       0       0       0       0       0       0       0       0       0       0       0       
      +0       0       0       0       0       0       0
  5171 ;;Total ram usage:        0 bytes
  5172 ;; Hardware stack levels used:    1
  5173 ;; Hardware stack levels required when called:    6
  5174 ;; This function calls:
  5175 ;;		Absolute function
  5176 ;;		_DefaultFIFO1NotEmptyHandler
  5177 ;; This function is called by:
  5178 ;;		_INTERRUPT_InterruptManager
  5179 ;; This function uses a non-reentrant model
  5180 ;;
  5181                           
  5182                           	psect	text56
  5183  00393C                     __ptext56:
  5184                           	callstack 0
  5185  00393C                     _CAN1_RXI_ISR:
  5186                           	callstack 116
  5187  00393C                     
  5188                           ;mcc_generated_files/can1.c: 740:     if (1 == C1FIFOSTA1Lbits.TFNRFNIF)
  5189  00393C  0101               	movlb	1	; () banked
  5190  00393E  A160               	btfss	96,0,b	;volatile
  5191  003940  EFA4  F01C         	goto	i2u213_41
  5192  003944  EFA6  F01C         	goto	i2u213_40
  5193  003948                     i2u213_41:
  5194  003948  EFB2  F01C         	goto	i2l340
  5195  00394C                     i2u213_40:
  5196  00394C                     
  5197                           ; BSR set to: 1
  5198                           ;mcc_generated_files/can1.c: 741:     {;mcc_generated_files/can1.c: 742:         CAN1_FI
      +                          FO1NotEmptyHandler();
  5199  00394C  D802               	call	i2u214_48
  5200  00394E  EFB2  F01C         	goto	i2u214_49
  5201  003952                     i2u214_48:
  5202  003952  0005               	push	
  5203  003954  6EFA               	movwf	pclath,c
  5204  003956  5048               	movf	_CAN1_FIFO1NotEmptyHandler^(0+1280),w,c
  5205  003958  6EFD               	movwf	tosl,c
  5206  00395A  5049               	movf	(_CAN1_FIFO1NotEmptyHandler+1)^(0+1280),w,c
  5207  00395C  6EFE               	movwf	tosh,c
  5208  00395E  6AFF               	clrf	tosu,c
  5209  003960  50FA               	movf	pclath,w,c
  5210  003962  0012               	return		;indir
  5211  003964                     i2u214_49:
  5212  003964                     i2l340:
  5213  003964  0012               	return		;funcret
  5214  003966                     __end_of_CAN1_RXI_ISR:
  5215                           	callstack 0
  5216                           
  5217 ;; *************** function _DefaultFIFO1NotEmptyHandler *****************
  5218 ;; Defined at:
  5219 ;;		line 119 in file "mcc_generated_files/can1.c"
  5220 ;; Parameters:    Size  Location     Type
  5221 ;;		None
  5222 ;; Auto vars:     Size  Location     Type
  5223 ;;		None
  5224 ;; Return value:  Size  Location     Type
  5225 ;;                  1    wreg      void 
  5226 ;; Registers used:
  5227 ;;		wreg, fsr2l, fsr2h, status,2, status,0, tblptrl, tblptrh, tblptru, prodl, prodh, cstack
  5228 ;; Tracked objects:
  5229 ;;		On entry : 0/0
  5230 ;;		On exit  : 0/0
  5231 ;;		Unchanged: 0/0
  5232 ;; Data sizes:     COMRAM   BANK5   BANK6   BANK7   BANK8   BANK9  BANK10  BANK11  BANK12  BANK13  BANK14  BANK15  BANK1
      +6  BANK17  BANK18  BANK19  BANK20  BANK21  BANK22  BANK23  BANK24  BANK25  BANK26  BANK27  BANK28  BANK29  BANK30  BANK3
      +1  BANK32  BANK33  BANK34  BANK35  BANK36  BANK37
  5233 ;;      Params:         0       0       0       0       0       0       0       0       0       0       0       0       
      +0       0       0       0       0       0       0       0       0       0       0       0       0       0       0       
      +0       0       0       0       0       0       0
  5234 ;;      Locals:         0       0       0       0       0       0       0       0       0       0       0       0       
      +0       0       0       0       0       0       0       0       0       0       0       0       0       0       0       
      +0       0       0       0       0       0       0
  5235 ;;      Temps:          0       0       0       0       0       0       0       0       0       0       0       0       
      +0       0       0       0       0       0       0       0       0       0       0       0       0       0       0       
      +0       0       0       0       0       0       0
  5236 ;;      Totals:         0       0       0       0       0       0       0       0       0       0       0       0       
      +0       0       0       0       0       0       0       0       0       0       0       0       0       0       0       
      +0       0       0       0       0       0       0
  5237 ;;Total ram usage:        0 bytes
  5238 ;; Hardware stack levels used:    1
  5239 ;; Hardware stack levels required when called:    5
  5240 ;; This function calls:
  5241 ;;		_CANReadMessage
  5242 ;; This function is called by:
  5243 ;;		_CAN1_RX_FIFO_Configuration
  5244 ;;		_CAN1_RXI_ISR
  5245 ;; This function uses a non-reentrant model
  5246 ;;
  5247                           
  5248                           	psect	text57
  5249  003BC8                     __ptext57:
  5250                           	callstack 0
  5251  003BC8                     _DefaultFIFO1NotEmptyHandler:
  5252                           	callstack 116
  5253  003BC8                     
  5254                           ;mcc_generated_files/can1.c: 121:     CANReadMessage();
  5255  003BC8  ECB8  F017         	call	_CANReadMessage	;wreg free
  5256  003BCC  0012               	return		;funcret
  5257  003BCE                     __end_of_DefaultFIFO1NotEmptyHandler:
  5258                           	callstack 0
  5259                           
  5260 ;; *************** function _CANReadMessage *****************
  5261 ;; Defined at:
  5262 ;;		line 68 in file "MESSAGES.c"
  5263 ;; Parameters:    Size  Location     Type
  5264 ;;		None
  5265 ;; Auto vars:     Size  Location     Type
  5266 ;;  id              4   50[COMRAM] unsigned long 
  5267 ;;  data1           1   54[COMRAM] unsigned char 
  5268 ;;  data8           1    0        unsigned char 
  5269 ;;  data7           1    0        unsigned char 
  5270 ;;  data6           1    0        unsigned char 
  5271 ;;  data5           1    0        unsigned char 
  5272 ;;  data4           1    0        unsigned char 
  5273 ;;  data3           1    0        unsigned char 
  5274 ;;  data2           1    0        unsigned char 
  5275 ;;  dlc             1    0        unsigned char 
  5276 ;;  idType          1    0        unsigned char 
  5277 ;; Return value:  Size  Location     Type
  5278 ;;                  1    wreg      void 
  5279 ;; Registers used:
  5280 ;;		wreg, fsr2l, fsr2h, status,2, status,0, tblptrl, tblptrh, tblptru, prodl, prodh, cstack
  5281 ;; Tracked objects:
  5282 ;;		On entry : 0/0
  5283 ;;		On exit  : 0/0
  5284 ;;		Unchanged: 0/0
  5285 ;; Data sizes:     COMRAM   BANK5   BANK6   BANK7   BANK8   BANK9  BANK10  BANK11  BANK12  BANK13  BANK14  BANK15  BANK1
      +6  BANK17  BANK18  BANK19  BANK20  BANK21  BANK22  BANK23  BANK24  BANK25  BANK26  BANK27  BANK28  BANK29  BANK30  BANK3
      +1  BANK32  BANK33  BANK34  BANK35  BANK36  BANK37
  5286 ;;      Params:         0       0       0       0       0       0       0       0       0       0       0       0       
      +0       0       0       0       0       0       0       0       0       0       0       0       0       0       0       
      +0       0       0       0       0       0       0
  5287 ;;      Locals:        14       0       0       0       0       0       0       0       0       0       0       0       
      +0       0       0       0       0       0       0       0       0       0       0       0       0       0       0       
      +0       0       0       0       0       0       0
  5288 ;;      Temps:          4       0       0       0       0       0       0       0       0       0       0       0       
      +0       0       0       0       0       0       0       0       0       0       0       0       0       0       0       
      +0       0       0       0       0       0       0
  5289 ;;      Totals:        18       0       0       0       0       0       0       0       0       0       0       0       
      +0       0       0       0       0       0       0       0       0       0       0       0       0       0       0       
      +0       0       0       0       0       0       0
  5290 ;;Total ram usage:       18 bytes
  5291 ;; Hardware stack levels used:    1
  5292 ;; Hardware stack levels required when called:    4
  5293 ;; This function calls:
  5294 ;;		_CAN1_Receive
  5295 ;;		_CAN1_ReceivedMessageCountGet
  5296 ;;		_LEDS
  5297 ;;		_SPEAKER
  5298 ;; This function is called by:
  5299 ;;		_DefaultFIFO1NotEmptyHandler
  5300 ;; This function uses a non-reentrant model
  5301 ;;
  5302                           
  5303                           	psect	text58
  5304  002F70                     __ptext58:
  5305                           	callstack 0
  5306  002F70                     _CANReadMessage:
  5307                           	callstack 116
  5308  002F70                     
  5309                           ;MESSAGES.c: 70:     uint32_t id;;MESSAGES.c: 71:     unsigned char idType;;MESSAGES.c: 
      +                          72:     unsigned char dlc;;MESSAGES.c: 73:     unsigned char data1;;MESSAGES.c: 74:     
      +                          unsigned char data2;;MESSAGES.c: 75:     unsigned char data3;;MESSAGES.c: 76:     unsign
      +                          ed char data4;;MESSAGES.c: 77:     unsigned char data5;;MESSAGES.c: 78:     unsigned cha
      +                          r data6;;MESSAGES.c: 79:     unsigned char data7;;MESSAGES.c: 80:     unsigned char data
      +                          8;;MESSAGES.c: 82:     __nop();
  5310  002F70  F000               	nop	
  5311  002F72                     
  5312                           ;MESSAGES.c: 84:     if(CAN1_ReceivedMessageCountGet() > 0)
  5313  002F72  EC85  F018         	call	_CAN1_ReceivedMessageCountGet	;wreg free
  5314  002F76  0900               	iorlw	0
  5315  002F78  B4D8               	btfsc	status,2,c
  5316  002F7A  EFC1  F017         	goto	i2u177_41
  5317  002F7E  EFC3  F017         	goto	i2u177_40
  5318  002F82                     i2u177_41:
  5319  002F82  EF1F  F018         	goto	i2l833
  5320  002F86                     i2u177_40:
  5321  002F86                     
  5322                           ;MESSAGES.c: 85:     {;MESSAGES.c: 86:         if(1 == CAN1_Receive(&msgReceipt))
  5323  002F86  0E4F               	movlw	low _msgReceipt
  5324  002F88  6E22               	movwf	CAN1_Receive@rxCanMsg^(0+1280),c
  5325  002F8A  0E05               	movlw	high _msgReceipt
  5326  002F8C  6E23               	movwf	(CAN1_Receive@rxCanMsg+1)^(0+1280),c
  5327  002F8E  EC44  F01B         	call	_CAN1_Receive	;wreg free
  5328  002F92  06E8               	decf	wreg,f,c
  5329  002F94  A4D8               	btfss	status,2,c
  5330  002F96  EFCF  F017         	goto	i2u178_41
  5331  002F9A  EFD1  F017         	goto	i2u178_40
  5332  002F9E                     i2u178_41:
  5333  002F9E  EF1F  F018         	goto	i2l833
  5334  002FA2                     i2u178_40:
  5335  002FA2                     
  5336                           ;MESSAGES.c: 87:         {;MESSAGES.c: 88:             __nop();
  5337  002FA2  F000               	nop	
  5338                           
  5339                           ;MESSAGES.c: 89:             id = msgReceipt.msgId;
  5340  002FA4  C54F  F533         	movff	_msgReceipt,CANReadMessage@id
  5341  002FA8  C550  F534         	movff	_msgReceipt+1,CANReadMessage@id+1
  5342  002FAC  C551  F535         	movff	_msgReceipt+2,CANReadMessage@id+2
  5343  002FB0  C552  F536         	movff	_msgReceipt+3,CANReadMessage@id+3
  5344  002FB4                     
  5345                           ;MESSAGES.c: 92:             data1 = msgReceipt.data[0];
  5346  002FB4  0061  F550  F4D9   	movff	_msgReceipt+5,fsr2l
  5347  002FBA  0061  F554  F4DA   	movff	_msgReceipt+6,fsr2h
  5348  002FC0  50DF               	movf	indf2,w,c
  5349  002FC2  6E37               	movwf	CANReadMessage@data1^(0+1280),c
  5350  002FC4                     
  5351                           ;MESSAGES.c: 101:             switch (id)
  5352  002FC4  EFFB  F017         	goto	i2l2900
  5353  002FC8                     i2l829:
  5354                           
  5355                           ;MESSAGES.c: 104:                     ucASState_prev = ucASState;
  5356  002FC8  C54C  F54B         	movff	_ucASState,_ucASState_prev
  5357  002FCC                     
  5358                           ;MESSAGES.c: 105:                     ucASState = ( data1 & 0x07 );
  5359  002FCC  5037               	movf	CANReadMessage@data1^(0+1280),w,c
  5360  002FCE  0B07               	andlw	7
  5361  002FD0  6E4C               	movwf	_ucASState^(0+1280),c
  5362                           
  5363                           ;MESSAGES.c: 106:                     if (ucASState_prev != ucASState)
  5364  002FD2  504C               	movf	_ucASState^(0+1280),w,c
  5365  002FD4  184B               	xorwf	_ucASState_prev^(0+1280),w,c
  5366  002FD6  B4D8               	btfsc	status,2,c
  5367  002FD8  EFF0  F017         	goto	i2u179_41
  5368  002FDC  EFF2  F017         	goto	i2u179_40
  5369  002FE0                     i2u179_41:
  5370  002FE0  EF1F  F018         	goto	i2l827
  5371  002FE4                     i2u179_40:
  5372  002FE4                     
  5373                           ;MESSAGES.c: 107:                     {;MESSAGES.c: 109:                         LEDS();
  5374  002FE4  EC4D  F019         	call	_LEDS	;wreg free
  5375                           
  5376                           ;MESSAGES.c: 110:                         SPEAKER();
  5377  002FE8  ECEF  F01C         	call	_SPEAKER	;wreg free
  5378  002FEC  EF1F  F018         	goto	i2l833
  5379  002FF0                     i2l832:
  5380                           
  5381                           ;MESSAGES.c: 114:                     __nop();
  5382  002FF0  F000               	nop	
  5383                           
  5384                           ;MESSAGES.c: 115:                     break;
  5385  002FF2  EF1F  F018         	goto	i2l833
  5386  002FF6                     i2l2900:
  5387  002FF6  C533  F526         	movff	CANReadMessage@id,??_CANReadMessage
  5388  002FFA  C534  F527         	movff	CANReadMessage@id+1,??_CANReadMessage+1
  5389  002FFE  C535  F528         	movff	CANReadMessage@id+2,??_CANReadMessage+2
  5390  003002  C536  F529         	movff	CANReadMessage@id+3,??_CANReadMessage+3
  5391                           
  5392                           ; Switch on 2 bytes has been partitioned into a top level switch of size 1, and 2 sub-sw
      +                          itches
  5393                           ; Switch size 1, requested type "simple"
  5394                           ; Number of cases is 1, Range of values is 0 to 0
  5395                           ; switch strategies available:
  5396                           ; Name         Instructions Cycles
  5397                           ; simple_byte            4     3 (average)
  5398                           ;	Chosen strategy is simple_byte
  5399  003006  5029               	movf	(??_CANReadMessage+3)^(0+1280),w,c
  5400  003008  0A00               	xorlw	0	; case 0
  5401  00300A  B4D8               	btfsc	status,2,c
  5402  00300C  EF18  F018         	goto	i2l3376
  5403  003010  EFF8  F017         	goto	i2l832
  5404  003014                     i2l3374:
  5405                           
  5406                           ; Switch on 2 bytes has been partitioned into a top level switch of size 1, and 1 sub-sw
      +                          itches
  5407                           ; Switch size 1, requested type "simple"
  5408                           ; Number of cases is 1, Range of values is 5 to 5
  5409                           ; switch strategies available:
  5410                           ; Name         Instructions Cycles
  5411                           ; simple_byte            4     3 (average)
  5412                           ;	Chosen strategy is simple_byte
  5413  003014  5027               	movf	(??_CANReadMessage+1)^(0+1280),w,c
  5414  003016  0A05               	xorlw	5	; case 5
  5415  003018  B4D8               	btfsc	status,2,c
  5416  00301A  EF11  F018         	goto	i2l3378
  5417  00301E  EFF8  F017         	goto	i2l832
  5418  003022                     i2l3378:
  5419                           
  5420                           ; Switch size 1, requested type "simple"
  5421                           ; Number of cases is 1, Range of values is 2 to 2
  5422                           ; switch strategies available:
  5423                           ; Name         Instructions Cycles
  5424                           ; simple_byte            4     3 (average)
  5425                           ;	Chosen strategy is simple_byte
  5426  003022  5026               	movf	??_CANReadMessage^(0+1280),w,c
  5427  003024  0A02               	xorlw	2	; case 2
  5428  003026  B4D8               	btfsc	status,2,c
  5429  003028  EFE4  F017         	goto	i2l829
  5430  00302C  EFF8  F017         	goto	i2l832
  5431  003030                     i2l3376:
  5432                           
  5433                           ; Switch size 1, requested type "simple"
  5434                           ; Number of cases is 1, Range of values is 0 to 0
  5435                           ; switch strategies available:
  5436                           ; Name         Instructions Cycles
  5437                           ; simple_byte            4     3 (average)
  5438                           ;	Chosen strategy is simple_byte
  5439  003030  5028               	movf	(??_CANReadMessage+2)^(0+1280),w,c
  5440  003032  0A00               	xorlw	0	; case 0
  5441  003034  B4D8               	btfsc	status,2,c
  5442  003036  EF0A  F018         	goto	i2l3374
  5443  00303A  EFF8  F017         	goto	i2l832
  5444  00303E                     i2l827:
  5445  00303E                     i2l833:
  5446  00303E  0012               	return		;funcret
  5447  003040                     __end_of_CANReadMessage:
  5448                           	callstack 0
  5449                           
  5450 ;; *************** function _SPEAKER *****************
  5451 ;; Defined at:
  5452 ;;		line 15 in file "SPEAKER.c"
  5453 ;; Parameters:    Size  Location     Type
  5454 ;;		None
  5455 ;; Auto vars:     Size  Location     Type
  5456 ;;		None
  5457 ;; Return value:  Size  Location     Type
  5458 ;;                  1    wreg      void 
  5459 ;; Registers used:
  5460 ;;		wreg, status,2, status,0
  5461 ;; Tracked objects:
  5462 ;;		On entry : 0/0
  5463 ;;		On exit  : 0/0
  5464 ;;		Unchanged: 0/0
  5465 ;; Data sizes:     COMRAM   BANK5   BANK6   BANK7   BANK8   BANK9  BANK10  BANK11  BANK12  BANK13  BANK14  BANK15  BANK1
      +6  BANK17  BANK18  BANK19  BANK20  BANK21  BANK22  BANK23  BANK24  BANK25  BANK26  BANK27  BANK28  BANK29  BANK30  BANK3
      +1  BANK32  BANK33  BANK34  BANK35  BANK36  BANK37
  5466 ;;      Params:         0       0       0       0       0       0       0       0       0       0       0       0       
      +0       0       0       0       0       0       0       0       0       0       0       0       0       0       0       
      +0       0       0       0       0       0       0
  5467 ;;      Locals:         0       0       0       0       0       0       0       0       0       0       0       0       
      +0       0       0       0       0       0       0       0       0       0       0       0       0       0       0       
      +0       0       0       0       0       0       0
  5468 ;;      Temps:          0       0       0       0       0       0       0       0       0       0       0       0       
      +0       0       0       0       0       0       0       0       0       0       0       0       0       0       0       
      +0       0       0       0       0       0       0
  5469 ;;      Totals:         0       0       0       0       0       0       0       0       0       0       0       0       
      +0       0       0       0       0       0       0       0       0       0       0       0       0       0       0       
      +0       0       0       0       0       0       0
  5470 ;;Total ram usage:        0 bytes
  5471 ;; Hardware stack levels used:    1
  5472 ;; This function calls:
  5473 ;;		Nothing
  5474 ;; This function is called by:
  5475 ;;		_CANReadMessage
  5476 ;; This function uses a non-reentrant model
  5477 ;;
  5478                           
  5479                           	psect	text59
  5480  0039DE                     __ptext59:
  5481                           	callstack 0
  5482  0039DE                     _SPEAKER:
  5483                           	callstack 119
  5484  0039DE                     
  5485                           ;SPEAKER.c: 17:     if (ucASState == 4 )
  5486  0039DE  0E04               	movlw	4
  5487  0039E0  184C               	xorwf	_ucASState^(0+1280),w,c
  5488  0039E2  A4D8               	btfss	status,2,c
  5489  0039E4  EFF6  F01C         	goto	i2u176_41
  5490  0039E8  EFF8  F01C         	goto	i2u176_40
  5491  0039EC                     i2u176_41:
  5492  0039EC  EFFD  F01C         	goto	i2l738
  5493  0039F0                     i2u176_40:
  5494  0039F0  86C0               	bsf	192,3,c	;volatile
  5495  0039F2                     
  5496                           ;SPEAKER.c: 20:         ucFlagEmergencySpeaker = 1;
  5497  0039F2  0E01               	movlw	1
  5498  0039F4  6E4E               	movwf	_ucFlagEmergencySpeaker^(0+1280),c
  5499                           
  5500                           ;SPEAKER.c: 21:     }
  5501  0039F6  EF00  F01D         	goto	i2l740
  5502  0039FA                     i2l738:
  5503  0039FA  96C0               	bcf	192,3,c	;volatile
  5504  0039FC                     
  5505                           ;SPEAKER.c: 25:         ucFlagEmergencySpeaker = 0;
  5506  0039FC  0E00               	movlw	0
  5507  0039FE  6E4E               	movwf	_ucFlagEmergencySpeaker^(0+1280),c
  5508  003A00                     i2l740:
  5509  003A00  0012               	return		;funcret
  5510  003A02                     __end_of_SPEAKER:
  5511                           	callstack 0
  5512                           
  5513 ;; *************** function _LEDS *****************
  5514 ;; Defined at:
  5515 ;;		line 12 in file "LEDS.c"
  5516 ;; Parameters:    Size  Location     Type
  5517 ;;		None
  5518 ;; Auto vars:     Size  Location     Type
  5519 ;;		None
  5520 ;; Return value:  Size  Location     Type
  5521 ;;                  1    wreg      void 
  5522 ;; Registers used:
  5523 ;;		wreg, status,2, status,0
  5524 ;; Tracked objects:
  5525 ;;		On entry : 0/0
  5526 ;;		On exit  : 0/0
  5527 ;;		Unchanged: 0/0
  5528 ;; Data sizes:     COMRAM   BANK5   BANK6   BANK7   BANK8   BANK9  BANK10  BANK11  BANK12  BANK13  BANK14  BANK15  BANK1
      +6  BANK17  BANK18  BANK19  BANK20  BANK21  BANK22  BANK23  BANK24  BANK25  BANK26  BANK27  BANK28  BANK29  BANK30  BANK3
      +1  BANK32  BANK33  BANK34  BANK35  BANK36  BANK37
  5529 ;;      Params:         0       0       0       0       0       0       0       0       0       0       0       0       
      +0       0       0       0       0       0       0       0       0       0       0       0       0       0       0       
      +0       0       0       0       0       0       0
  5530 ;;      Locals:         0       0       0       0       0       0       0       0       0       0       0       0       
      +0       0       0       0       0       0       0       0       0       0       0       0       0       0       0       
      +0       0       0       0       0       0       0
  5531 ;;      Temps:          2       0       0       0       0       0       0       0       0       0       0       0       
      +0       0       0       0       0       0       0       0       0       0       0       0       0       0       0       
      +0       0       0       0       0       0       0
  5532 ;;      Totals:         2       0       0       0       0       0       0       0       0       0       0       0       
      +0       0       0       0       0       0       0       0       0       0       0       0       0       0       0       
      +0       0       0       0       0       0       0
  5533 ;;Total ram usage:        2 bytes
  5534 ;; Hardware stack levels used:    1
  5535 ;; This function calls:
  5536 ;;		Nothing
  5537 ;; This function is called by:
  5538 ;;		_TMR1_ISR
  5539 ;;		_CANReadMessage
  5540 ;; This function uses a non-reentrant model
  5541 ;;
  5542                           
  5543                           	psect	text60
  5544  00329A                     __ptext60:
  5545                           	callstack 0
  5546  00329A                     _LEDS:
  5547                           	callstack 121
  5548  00329A                     
  5549                           ;LEDS.c: 14:     switch (ucASState)
  5550  00329A  EF88  F019         	goto	i2l2838
  5551  00329E                     i2l749:
  5552  00329E  92BF               	bcf	191,1,c	;volatile
  5553  0032A0  94BF               	bcf	191,2,c	;volatile
  5554  0032A2  EFA9  F019         	goto	i2l779
  5555  0032A6                     i2l755:
  5556  0032A6  94BF               	bcf	191,2,c	;volatile
  5557  0032A8  82BF               	bsf	191,1,c	;volatile
  5558  0032AA  EFA9  F019         	goto	i2l779
  5559  0032AE                     i2l760:
  5560  0032AE  94BF               	bcf	191,2,c	;volatile
  5561  0032B0  B2BF               	btfsc	191,1,c	;volatile
  5562  0032B2  EF5D  F019         	goto	i2u174_41
  5563  0032B6  EF60  F019         	goto	i2u174_40
  5564  0032BA                     i2u174_41:
  5565  0032BA  0E01               	movlw	1
  5566  0032BC  EF61  F019         	goto	i2u174_46
  5567  0032C0                     i2u174_40:
  5568  0032C0  0E00               	movlw	0
  5569  0032C2                     i2u174_46:
  5570  0032C2  0AFF               	xorlw	255
  5571  0032C4  6E01               	movwf	??_LEDS^(0+1280),c
  5572  0032C6  4601               	rlncf	??_LEDS^(0+1280),f,c
  5573  0032C8  50BF               	movf	191,w,c	;volatile
  5574  0032CA  1801               	xorwf	??_LEDS^(0+1280),w,c
  5575  0032CC  0BFD               	andlw	-3
  5576  0032CE  1801               	xorwf	??_LEDS^(0+1280),w,c
  5577  0032D0  6EBF               	movwf	191,c	;volatile
  5578  0032D2  EFA9  F019         	goto	i2l779
  5579  0032D6                     i2l765:
  5580  0032D6  92BF               	bcf	191,1,c	;volatile
  5581  0032D8  B4BF               	btfsc	191,2,c	;volatile
  5582  0032DA  EF71  F019         	goto	i2u175_41
  5583  0032DE  EF74  F019         	goto	i2u175_40
  5584  0032E2                     i2u175_41:
  5585  0032E2  0E01               	movlw	1
  5586  0032E4  EF75  F019         	goto	i2u175_46
  5587  0032E8                     i2u175_40:
  5588  0032E8  0E00               	movlw	0
  5589  0032EA                     i2u175_46:
  5590  0032EA  0AFF               	xorlw	255
  5591  0032EC  6E01               	movwf	??_LEDS^(0+1280),c
  5592  0032EE  4601               	rlncf	??_LEDS^(0+1280),f,c
  5593  0032F0  4601               	rlncf	??_LEDS^(0+1280),f,c
  5594  0032F2  50BF               	movf	191,w,c	;volatile
  5595  0032F4  1801               	xorwf	??_LEDS^(0+1280),w,c
  5596  0032F6  0BFB               	andlw	-5
  5597  0032F8  1801               	xorwf	??_LEDS^(0+1280),w,c
  5598  0032FA  6EBF               	movwf	191,c	;volatile
  5599  0032FC  EFA9  F019         	goto	i2l779
  5600  003300                     i2l770:
  5601  003300  92BF               	bcf	191,1,c	;volatile
  5602  003302  84BF               	bsf	191,2,c	;volatile
  5603  003304  EFA9  F019         	goto	i2l779
  5604  003308                     i2l775:
  5605  003308  92BF               	bcf	191,1,c	;volatile
  5606  00330A  94BF               	bcf	191,2,c	;volatile
  5607  00330C  EFA9  F019         	goto	i2l779
  5608  003310                     i2l2838:
  5609  003310  504C               	movf	_ucASState^(0+1280),w,c
  5610  003312  6E01               	movwf	??_LEDS^(0+1280),c
  5611  003314  6A02               	clrf	(??_LEDS+1)^(0+1280),c
  5612                           
  5613                           ; Switch on 2 bytes has been partitioned into a top level switch of size 1, and 1 sub-sw
      +                          itches
  5614                           ; Switch size 1, requested type "simple"
  5615                           ; Number of cases is 1, Range of values is 0 to 0
  5616                           ; switch strategies available:
  5617                           ; Name         Instructions Cycles
  5618                           ; simple_byte            4     3 (average)
  5619                           ;	Chosen strategy is simple_byte
  5620  003316  5002               	movf	(??_LEDS+1)^(0+1280),w,c
  5621  003318  0A00               	xorlw	0	; case 0
  5622  00331A  B4D8               	btfsc	status,2,c
  5623  00331C  EF92  F019         	goto	i2l3380
  5624  003320  EF84  F019         	goto	i2l775
  5625  003324                     i2l3380:
  5626                           
  5627                           ; Switch size 1, requested type "simple"
  5628                           ; Number of cases is 5, Range of values is 1 to 5
  5629                           ; switch strategies available:
  5630                           ; Name         Instructions Cycles
  5631                           ; simple_byte           16     9 (average)
  5632                           ;	Chosen strategy is simple_byte
  5633  003324  5001               	movf	??_LEDS^(0+1280),w,c
  5634  003326  0A01               	xorlw	1	; case 1
  5635  003328  B4D8               	btfsc	status,2,c
  5636  00332A  EF4F  F019         	goto	i2l749
  5637  00332E  0A03               	xorlw	3	; case 2
  5638  003330  B4D8               	btfsc	status,2,c
  5639  003332  EF53  F019         	goto	i2l755
  5640  003336  0A01               	xorlw	1	; case 3
  5641  003338  B4D8               	btfsc	status,2,c
  5642  00333A  EF57  F019         	goto	i2l760
  5643  00333E  0A07               	xorlw	7	; case 4
  5644  003340  B4D8               	btfsc	status,2,c
  5645  003342  EF6B  F019         	goto	i2l765
  5646  003346  0A01               	xorlw	1	; case 5
  5647  003348  B4D8               	btfsc	status,2,c
  5648  00334A  EF80  F019         	goto	i2l770
  5649  00334E  EF84  F019         	goto	i2l775
  5650  003352                     i2l779:
  5651  003352  0012               	return		;funcret
  5652  003354                     __end_of_LEDS:
  5653                           	callstack 0
  5654                           
  5655 ;; *************** function _CAN1_ReceivedMessageCountGet *****************
  5656 ;; Defined at:
  5657 ;;		line 444 in file "mcc_generated_files/can1.c"
  5658 ;; Parameters:    Size  Location     Type
  5659 ;;		None
  5660 ;; Auto vars:     Size  Location     Type
  5661 ;;  fifoHead        1    8[COMRAM] unsigned char 
  5662 ;;  fifoTail        1    7[COMRAM] unsigned char 
  5663 ;;  fifoDepth       1    6[COMRAM] unsigned char 
  5664 ;;  numOfMsg        1    3[COMRAM] unsigned char 
  5665 ;;  channel         1    5[COMRAM] enum E22386
  5666 ;;  rxMsgStatus     1    4[COMRAM] enum E22534
  5667 ;;  index           1    9[COMRAM] unsigned char 
  5668 ;;  totalMsgObj     1    2[COMRAM] unsigned char 
  5669 ;; Return value:  Size  Location     Type
  5670 ;;                  1    wreg      unsigned char 
  5671 ;; Registers used:
  5672 ;;		wreg, fsr2l, fsr2h, status,2, status,0, prodl, prodh, cstack
  5673 ;; Tracked objects:
  5674 ;;		On entry : 0/0
  5675 ;;		On exit  : 0/0
  5676 ;;		Unchanged: 0/0
  5677 ;; Data sizes:     COMRAM   BANK5   BANK6   BANK7   BANK8   BANK9  BANK10  BANK11  BANK12  BANK13  BANK14  BANK15  BANK1
      +6  BANK17  BANK18  BANK19  BANK20  BANK21  BANK22  BANK23  BANK24  BANK25  BANK26  BANK27  BANK28  BANK29  BANK30  BANK3
      +1  BANK32  BANK33  BANK34  BANK35  BANK36  BANK37
  5678 ;;      Params:         0       0       0       0       0       0       0       0       0       0       0       0       
      +0       0       0       0       0       0       0       0       0       0       0       0       0       0       0       
      +0       0       0       0       0       0       0
  5679 ;;      Locals:         8       0       0       0       0       0       0       0       0       0       0       0       
      +0       0       0       0       0       0       0       0       0       0       0       0       0       0       0       
      +0       0       0       0       0       0       0
  5680 ;;      Temps:          0       0       0       0       0       0       0       0       0       0       0       0       
      +0       0       0       0       0       0       0       0       0       0       0       0       0       0       0       
      +0       0       0       0       0       0       0
  5681 ;;      Totals:         8       0       0       0       0       0       0       0       0       0       0       0       
      +0       0       0       0       0       0       0       0       0       0       0       0       0       0       0       
      +0       0       0       0       0       0       0
  5682 ;;Total ram usage:        8 bytes
  5683 ;; Hardware stack levels used:    1
  5684 ;; Hardware stack levels required when called:    1
  5685 ;; This function calls:
  5686 ;;		_GetRxFifoDepth
  5687 ;;		_GetRxFifoStatus
  5688 ;; This function is called by:
  5689 ;;		_CANReadMessage
  5690 ;; This function uses a non-reentrant model
  5691 ;;
  5692                           
  5693                           	psect	text61
  5694  00310A                     __ptext61:
  5695                           	callstack 0
  5696  00310A                     _CAN1_ReceivedMessageCountGet:
  5697                           	callstack 118
  5698  00310A                     
  5699                           ;mcc_generated_files/can1.c: 446:     uint8_t index, totalMsgObj = 0;
  5700  00310A  0E00               	movlw	0
  5701  00310C  6E03               	movwf	CAN1_ReceivedMessageCountGet@totalMsgObj^(0+1280),c
  5702                           
  5703                           ;mcc_generated_files/can1.c: 448:     for (index = 0; index < (1U); index++)
  5704  00310E  0E00               	movlw	0
  5705  003110  6E0A               	movwf	CAN1_ReceivedMessageCountGet@index^(0+1280),c
  5706  003112                     i2l2798:
  5707                           
  5708                           ;mcc_generated_files/can1.c: 449:     {;mcc_generated_files/can1.c: 450:         CAN1_RX
      +                          _FIFO_CHANNELS channel = rxFifos[index].channel;
  5709  003112  500A               	movf	CAN1_ReceivedMessageCountGet@index^(0+1280),w,c
  5710  003114  0D02               	mullw	2
  5711  003116  0E86               	movlw	low _rxFifos
  5712  003118  24F3               	addwf	243,w,c
  5713  00311A  6ED9               	movwf	fsr2l,c
  5714  00311C  0E05               	movlw	high _rxFifos
  5715  00311E  20F4               	addwfc	prodh,w,c
  5716  003120  6EDA               	movwf	fsr2h,c
  5717  003122  50DF               	movf	indf2,w,c
  5718  003124  6E06               	movwf	CAN1_ReceivedMessageCountGet@channel^(0+1280),c
  5719  003126                     
  5720                           ;mcc_generated_files/can1.c: 451:         CAN_RX_FIFO_STATUS rxMsgStatus = GetRxFifoStat
      +                          us(channel);
  5721  003126  5006               	movf	CAN1_ReceivedMessageCountGet@channel^(0+1280),w,c
  5722  003128  EC56  F01D         	call	_GetRxFifoStatus
  5723  00312C  6E05               	movwf	CAN1_ReceivedMessageCountGet@rxMsgStatus^(0+1280),c
  5724  00312E                     
  5725                           ;mcc_generated_files/can1.c: 453:         if (CAN_RX_MSG_AVAILABLE == (rxMsgStatus & CAN
      +                          _RX_MSG_AVAILABLE))
  5726  00312E  A005               	btfss	CAN1_ReceivedMessageCountGet@rxMsgStatus^(0+1280),0,c
  5727  003130  EF9C  F018         	goto	i2u169_41
  5728  003134  EF9E  F018         	goto	i2u169_40
  5729  003138                     i2u169_41:
  5730  003138  EFDF  F018         	goto	i2l2822
  5731  00313C                     i2u169_40:
  5732  00313C                     
  5733                           ;mcc_generated_files/can1.c: 454:         {;mcc_generated_files/can1.c: 455:            
      +                           uint8_t numOfMsg, fifoDepth = GetRxFifoDepth(channel);
  5734  00313C  5006               	movf	CAN1_ReceivedMessageCountGet@channel^(0+1280),w,c
  5735  00313E  EC22  F01D         	call	_GetRxFifoDepth
  5736  003142  6E07               	movwf	CAN1_ReceivedMessageCountGet@fifoDepth^(0+1280),c
  5737  003144                     
  5738                           ;mcc_generated_files/can1.c: 457:             if (CAN_RX_MSG_OVERFLOW == (rxMsgStatus & 
      +                          CAN_RX_MSG_OVERFLOW))
  5739  003144  A605               	btfss	CAN1_ReceivedMessageCountGet@rxMsgStatus^(0+1280),3,c
  5740  003146  EFA7  F018         	goto	i2u170_41
  5741  00314A  EFA9  F018         	goto	i2u170_40
  5742  00314E                     i2u170_41:
  5743  00314E  EFAD  F018         	goto	i2l2810
  5744  003152                     i2u170_40:
  5745  003152                     i2l2808:
  5746                           
  5747                           ;mcc_generated_files/can1.c: 458:             {;mcc_generated_files/can1.c: 459:        
      +                                   numOfMsg = fifoDepth;
  5748  003152  C507  F504         	movff	CAN1_ReceivedMessageCountGet@fifoDepth,CAN1_ReceivedMessageCountGet@numOfMsg
  5749                           
  5750                           ;mcc_generated_files/can1.c: 460:             }
  5751  003156  EFDD  F018         	goto	i2l2820
  5752  00315A                     i2l2810:
  5753                           
  5754                           ;mcc_generated_files/can1.c: 462:             {;mcc_generated_files/can1.c: 463:        
      +                                   uint8_t fifoTail = FIFO[channel].STAH & 0x1F;
  5755  00315A  5006               	movf	CAN1_ReceivedMessageCountGet@channel^(0+1280),w,c
  5756  00315C  0D0C               	mullw	12
  5757  00315E  0E55               	movlw	85
  5758  003160  24F3               	addwf	243,w,c
  5759  003162  6ED9               	movwf	fsr2l,c
  5760  003164  0E01               	movlw	1
  5761  003166  20F4               	addwfc	prodh,w,c
  5762  003168  6EDA               	movwf	fsr2h,c
  5763  00316A  50DF               	movf	indf2,w,c
  5764  00316C  0B1F               	andlw	31
  5765  00316E  6E08               	movwf	CAN1_ReceivedMessageCountGet@fifoTail^(0+1280),c
  5766                           
  5767                           ;mcc_generated_files/can1.c: 464:                 uint8_t fifoHead = rxFifos[index].fifo
      +                          Head;
  5768  003170  500A               	movf	CAN1_ReceivedMessageCountGet@index^(0+1280),w,c
  5769  003172  0D02               	mullw	2
  5770  003174  0E87               	movlw	low (_rxFifos+1)
  5771  003176  24F3               	addwf	243,w,c
  5772  003178  6ED9               	movwf	fsr2l,c
  5773  00317A  0E05               	movlw	high (_rxFifos+1)
  5774  00317C  20F4               	addwfc	prodh,w,c
  5775  00317E  6EDA               	movwf	fsr2h,c
  5776  003180  50DF               	movf	indf2,w,c
  5777  003182  6E09               	movwf	CAN1_ReceivedMessageCountGet@fifoHead^(0+1280),c
  5778  003184                     
  5779                           ;mcc_generated_files/can1.c: 466:                 if (fifoTail < fifoHead)
  5780  003184  5009               	movf	CAN1_ReceivedMessageCountGet@fifoHead^(0+1280),w,c
  5781  003186  5C08               	subwf	CAN1_ReceivedMessageCountGet@fifoTail^(0+1280),w,c
  5782  003188  B0D8               	btfsc	status,0,c
  5783  00318A  EFC9  F018         	goto	i2u171_41
  5784  00318E  EFCB  F018         	goto	i2u171_40
  5785  003192                     i2u171_41:
  5786  003192  EFD1  F018         	goto	i2l2816
  5787  003196                     i2u171_40:
  5788  003196                     
  5789                           ;mcc_generated_files/can1.c: 467:                 {;mcc_generated_files/can1.c: 468:    
      +                                           numOfMsg = ((fifoTail + fifoDepth) - fifoHead);
  5790  003196  5009               	movf	CAN1_ReceivedMessageCountGet@fifoHead^(0+1280),w,c
  5791  003198  5C08               	subwf	CAN1_ReceivedMessageCountGet@fifoTail^(0+1280),w,c
  5792  00319A  2407               	addwf	CAN1_ReceivedMessageCountGet@fifoDepth^(0+1280),w,c
  5793  00319C  6E04               	movwf	CAN1_ReceivedMessageCountGet@numOfMsg^(0+1280),c
  5794                           
  5795                           ;mcc_generated_files/can1.c: 469:                 }
  5796  00319E  EFDD  F018         	goto	i2l2820
  5797  0031A2                     i2l2816:
  5798  0031A2  5008               	movf	CAN1_ReceivedMessageCountGet@fifoTail^(0+1280),w,c
  5799  0031A4  5C09               	subwf	CAN1_ReceivedMessageCountGet@fifoHead^(0+1280),w,c
  5800  0031A6  B0D8               	btfsc	status,0,c
  5801  0031A8  EFD8  F018         	goto	i2u172_41
  5802  0031AC  EFDA  F018         	goto	i2u172_40
  5803  0031B0                     i2u172_41:
  5804  0031B0  EFA9  F018         	goto	i2l2808
  5805  0031B4                     i2u172_40:
  5806  0031B4                     
  5807                           ;mcc_generated_files/can1.c: 471:                 {;mcc_generated_files/can1.c: 472:    
      +                                           numOfMsg = fifoTail - fifoHead;
  5808  0031B4  5009               	movf	CAN1_ReceivedMessageCountGet@fifoHead^(0+1280),w,c
  5809  0031B6  5C08               	subwf	CAN1_ReceivedMessageCountGet@fifoTail^(0+1280),w,c
  5810  0031B8  6E04               	movwf	CAN1_ReceivedMessageCountGet@numOfMsg^(0+1280),c
  5811  0031BA                     i2l2820:
  5812                           
  5813                           ;mcc_generated_files/can1.c: 480:             totalMsgObj += numOfMsg;
  5814  0031BA  5004               	movf	CAN1_ReceivedMessageCountGet@numOfMsg^(0+1280),w,c
  5815  0031BC  2603               	addwf	CAN1_ReceivedMessageCountGet@totalMsgObj^(0+1280),f,c
  5816  0031BE                     i2l2822:
  5817                           
  5818                           ;mcc_generated_files/can1.c: 482:     }
  5819  0031BE  2A0A               	incf	CAN1_ReceivedMessageCountGet@index^(0+1280),f,c
  5820  0031C0  500A               	movf	CAN1_ReceivedMessageCountGet@index^(0+1280),w,c
  5821  0031C2  B4D8               	btfsc	status,2,c
  5822  0031C4  EFE6  F018         	goto	i2u173_41
  5823  0031C8  EFE8  F018         	goto	i2u173_40
  5824  0031CC                     i2u173_41:
  5825  0031CC  EF89  F018         	goto	i2l2798
  5826  0031D0                     i2u173_40:
  5827  0031D0                     
  5828                           ;mcc_generated_files/can1.c: 484:     return totalMsgObj;
  5829  0031D0  5003               	movf	CAN1_ReceivedMessageCountGet@totalMsgObj^(0+1280),w,c
  5830  0031D2  0012               	return		;funcret
  5831  0031D4                     __end_of_CAN1_ReceivedMessageCountGet:
  5832                           	callstack 0
  5833                           
  5834 ;; *************** function _CAN1_Receive *****************
  5835 ;; Defined at:
  5836 ;;		line 409 in file "mcc_generated_files/can1.c"
  5837 ;; Parameters:    Size  Location     Type
  5838 ;;  rxCanMsg        2   33[COMRAM] PTR struct .
  5839 ;;		 -> msgReceipt(7), 
  5840 ;; Auto vars:     Size  Location     Type
  5841 ;;  index           1   36[COMRAM] unsigned char 
  5842 ;;  status          1   35[COMRAM] _Bool 
  5843 ;; Return value:  Size  Location     Type
  5844 ;;                  1    wreg      _Bool 
  5845 ;; Registers used:
  5846 ;;		wreg, fsr2l, fsr2h, status,2, status,0, tblptrl, tblptrh, tblptru, prodl, prodh, cstack
  5847 ;; Tracked objects:
  5848 ;;		On entry : 0/0
  5849 ;;		On exit  : 0/0
  5850 ;;		Unchanged: 0/0
  5851 ;; Data sizes:     COMRAM   BANK5   BANK6   BANK7   BANK8   BANK9  BANK10  BANK11  BANK12  BANK13  BANK14  BANK15  BANK1
      +6  BANK17  BANK18  BANK19  BANK20  BANK21  BANK22  BANK23  BANK24  BANK25  BANK26  BANK27  BANK28  BANK29  BANK30  BANK3
      +1  BANK32  BANK33  BANK34  BANK35  BANK36  BANK37
  5852 ;;      Params:         2       0       0       0       0       0       0       0       0       0       0       0       
      +0       0       0       0       0       0       0       0       0       0       0       0       0       0       0       
      +0       0       0       0       0       0       0
  5853 ;;      Locals:         2       0       0       0       0       0       0       0       0       0       0       0       
      +0       0       0       0       0       0       0       0       0       0       0       0       0       0       0       
      +0       0       0       0       0       0       0
  5854 ;;      Temps:          0       0       0       0       0       0       0       0       0       0       0       0       
      +0       0       0       0       0       0       0       0       0       0       0       0       0       0       0       
      +0       0       0       0       0       0       0
  5855 ;;      Totals:         4       0       0       0       0       0       0       0       0       0       0       0       
      +0       0       0       0       0       0       0       0       0       0       0       0       0       0       0       
      +0       0       0       0       0       0       0
  5856 ;;Total ram usage:        4 bytes
  5857 ;; Hardware stack levels used:    1
  5858 ;; Hardware stack levels required when called:    3
  5859 ;; This function calls:
  5860 ;;		_Receive
  5861 ;; This function is called by:
  5862 ;;		_CANReadMessage
  5863 ;; This function uses a non-reentrant model
  5864 ;;
  5865                           
  5866                           	psect	text62
  5867  003688                     __ptext62:
  5868                           	callstack 0
  5869  003688                     _CAN1_Receive:
  5870                           	callstack 116
  5871  003688                     
  5872                           ;mcc_generated_files/can1.c: 414:     for (index = 0; index < (1U); index++)
  5873  003688  0E00               	movlw	0
  5874  00368A  6E25               	movwf	CAN1_Receive@index^(0+1280),c
  5875  00368C                     i2l2780:
  5876                           
  5877                           ;mcc_generated_files/can1.c: 415:     {;mcc_generated_files/can1.c: 416:         status 
      +                          = Receive(index, rxFifos[index].channel, rxCanMsg);
  5878  00368C  5025               	movf	CAN1_Receive@index^(0+1280),w,c
  5879  00368E  0D02               	mullw	2
  5880  003690  0E86               	movlw	low _rxFifos
  5881  003692  24F3               	addwf	243,w,c
  5882  003694  6ED9               	movwf	fsr2l,c
  5883  003696  0E05               	movlw	high _rxFifos
  5884  003698  20F4               	addwfc	prodh,w,c
  5885  00369A  6EDA               	movwf	fsr2h,c
  5886  00369C  50DF               	movf	indf2,w,c
  5887  00369E  6E18               	movwf	Receive@channel^(0+1280),c
  5888  0036A0  C522  F519         	movff	CAN1_Receive@rxCanMsg,Receive@rxCanMsg
  5889  0036A4  C523  F51A         	movff	CAN1_Receive@rxCanMsg+1,Receive@rxCanMsg+1
  5890  0036A8  5025               	movf	CAN1_Receive@index^(0+1280),w,c
  5891  0036AA  EC6B  F016         	call	_Receive
  5892  0036AE  6E24               	movwf	CAN1_Receive@status^(0+1280),c
  5893  0036B0                     
  5894                           ;mcc_generated_files/can1.c: 418:         if (status)
  5895  0036B0  5024               	movf	CAN1_Receive@status^(0+1280),w,c
  5896  0036B2  B4D8               	btfsc	status,2,c
  5897  0036B4  EF5E  F01B         	goto	i2u167_41
  5898  0036B8  EF60  F01B         	goto	i2u167_40
  5899  0036BC                     i2u167_41:
  5900  0036BC  EF62  F01B         	goto	i2l2786
  5901  0036C0                     i2u167_40:
  5902  0036C0  EF6B  F01B         	goto	i2l2790
  5903  0036C4                     i2l2786:
  5904                           
  5905                           ;mcc_generated_files/can1.c: 422:     }
  5906  0036C4  2A25               	incf	CAN1_Receive@index^(0+1280),f,c
  5907  0036C6  5025               	movf	CAN1_Receive@index^(0+1280),w,c
  5908  0036C8  B4D8               	btfsc	status,2,c
  5909  0036CA  EF69  F01B         	goto	i2u168_41
  5910  0036CE  EF6B  F01B         	goto	i2u168_40
  5911  0036D2                     i2u168_41:
  5912  0036D2  EF46  F01B         	goto	i2l2780
  5913  0036D6                     i2u168_40:
  5914  0036D6                     i2l2790:
  5915                           
  5916                           ;mcc_generated_files/can1.c: 424:     return status;
  5917  0036D6  5024               	movf	CAN1_Receive@status^(0+1280),w,c
  5918  0036D8  0012               	return		;funcret
  5919  0036DA                     __end_of_CAN1_Receive:
  5920                           	callstack 0
  5921                           
  5922 ;; *************** function _Receive *****************
  5923 ;; Defined at:
  5924 ;;		line 377 in file "mcc_generated_files/can1.c"
  5925 ;; Parameters:    Size  Location     Type
  5926 ;;  index           1    wreg     unsigned char 
  5927 ;;  channel         1   23[COMRAM] enum E22386
  5928 ;;  rxCanMsg        2   24[COMRAM] PTR struct .
  5929 ;;		 -> msgReceipt(7), 
  5930 ;; Auto vars:     Size  Location     Type
  5931 ;;  index           1   32[COMRAM] unsigned char 
  5932 ;;  rxFifoObj       2   29[COMRAM] PTR unsigned char 
  5933 ;;		 -> RAM(9727), 
  5934 ;;  rxMsgStatus     1   31[COMRAM] enum E22534
  5935 ;;  status          1   28[COMRAM] _Bool 
  5936 ;; Return value:  Size  Location     Type
  5937 ;;                  1    wreg      _Bool 
  5938 ;; Registers used:
  5939 ;;		wreg, fsr2l, fsr2h, status,2, status,0, tblptrl, tblptrh, tblptru, prodl, prodh, cstack
  5940 ;; Tracked objects:
  5941 ;;		On entry : 0/0
  5942 ;;		On exit  : 0/0
  5943 ;;		Unchanged: 0/0
  5944 ;; Data sizes:     COMRAM   BANK5   BANK6   BANK7   BANK8   BANK9  BANK10  BANK11  BANK12  BANK13  BANK14  BANK15  BANK1
      +6  BANK17  BANK18  BANK19  BANK20  BANK21  BANK22  BANK23  BANK24  BANK25  BANK26  BANK27  BANK28  BANK29  BANK30  BANK3
      +1  BANK32  BANK33  BANK34  BANK35  BANK36  BANK37
  5945 ;;      Params:         3       0       0       0       0       0       0       0       0       0       0       0       
      +0       0       0       0       0       0       0       0       0       0       0       0       0       0       0       
      +0       0       0       0       0       0       0
  5946 ;;      Locals:         5       0       0       0       0       0       0       0       0       0       0       0       
      +0       0       0       0       0       0       0       0       0       0       0       0       0       0       0       
      +0       0       0       0       0       0       0
  5947 ;;      Temps:          2       0       0       0       0       0       0       0       0       0       0       0       
      +0       0       0       0       0       0       0       0       0       0       0       0       0       0       0       
      +0       0       0       0       0       0       0
  5948 ;;      Totals:        10       0       0       0       0       0       0       0       0       0       0       0       
      +0       0       0       0       0       0       0       0       0       0       0       0       0       0       0       
      +0       0       0       0       0       0       0
  5949 ;;Total ram usage:       10 bytes
  5950 ;; Hardware stack levels used:    1
  5951 ;; Hardware stack levels required when called:    2
  5952 ;; This function calls:
  5953 ;;		_GetRxFifoDepth
  5954 ;;		_GetRxFifoStatus
  5955 ;;		_ReadMessageFromFifo
  5956 ;; This function is called by:
  5957 ;;		_CAN1_Receive
  5958 ;;		_CAN1_ReceiveFrom
  5959 ;; This function uses a non-reentrant model
  5960 ;;
  5961                           
  5962                           	psect	text63
  5963  002CD6                     __ptext63:
  5964                           	callstack 0
  5965  002CD6                     _Receive:
  5966                           	callstack 116
  5967                           
  5968                           ;incstack = 0
  5969                           ;Receive@index stored from wreg
  5970  002CD6  6E21               	movwf	Receive@index^(0+1280),c
  5971  002CD8                     
  5972                           ;mcc_generated_files/can1.c: 377: static _Bool Receive(uint8_t index, CAN1_RX_FIFO_CHANN
      +                          ELS channel, CAN_MSG_OBJ *rxCanMsg);mcc_generated_files/can1.c: 378: {;mcc_generated_fil
      +                          es/can1.c: 379:     _Bool status = 0;
  5973  002CD8  0E00               	movlw	0
  5974  002CDA  6E1D               	movwf	Receive@status^(0+1280),c
  5975  002CDC                     
  5976                           ;mcc_generated_files/can1.c: 380:     CAN_RX_FIFO_STATUS rxMsgStatus = GetRxFifoStatus(c
      +                          hannel);
  5977  002CDC  5018               	movf	Receive@channel^(0+1280),w,c
  5978  002CDE  EC56  F01D         	call	_GetRxFifoStatus
  5979  002CE2  6E20               	movwf	Receive@rxMsgStatus^(0+1280),c
  5980  002CE4                     
  5981                           ;mcc_generated_files/can1.c: 382:     if (CAN_RX_MSG_AVAILABLE == (rxMsgStatus & CAN_RX_
      +                          MSG_AVAILABLE))
  5982  002CE4  A020               	btfss	Receive@rxMsgStatus^(0+1280),0,c
  5983  002CE6  EF77  F016         	goto	i2u158_41
  5984  002CEA  EF79  F016         	goto	i2u158_40
  5985  002CEE                     i2u158_41:
  5986  002CEE  EFDF  F016         	goto	i2l2726
  5987  002CF2                     i2u158_40:
  5988  002CF2                     
  5989                           ;mcc_generated_files/can1.c: 383:     {;mcc_generated_files/can1.c: 384:         uint8_t
      +                           *rxFifoObj = (uint8_t *) FIFO[channel].UA;
  5990  002CF2  5018               	movf	Receive@channel^(0+1280),w,c
  5991  002CF4  0D0C               	mullw	12
  5992  002CF6  0E58               	movlw	88
  5993  002CF8  24F3               	addwf	243,w,c
  5994  002CFA  6ED9               	movwf	fsr2l,c
  5995  002CFC  0E01               	movlw	1
  5996  002CFE  20F4               	addwfc	prodh,w,c
  5997  002D00  6EDA               	movwf	fsr2h,c
  5998  002D02  0061 F378  F51E    	movff	postinc2,Receive@rxFifoObj
  5999  002D08  0061 F374  F51F    	movff	postdec2,Receive@rxFifoObj+1
  6000  002D0E                     
  6001                           ;mcc_generated_files/can1.c: 386:         if (rxFifoObj != ((void*)0))
  6002  002D0E  501E               	movf	Receive@rxFifoObj^(0+1280),w,c
  6003  002D10  101F               	iorwf	(Receive@rxFifoObj+1)^(0+1280),w,c
  6004  002D12  B4D8               	btfsc	status,2,c
  6005  002D14  EF8E  F016         	goto	i2u159_41
  6006  002D18  EF90  F016         	goto	i2u159_40
  6007  002D1C                     i2u159_41:
  6008  002D1C  EFDF  F016         	goto	i2l2726
  6009  002D20                     i2u159_40:
  6010  002D20                     
  6011                           ;mcc_generated_files/can1.c: 387:         {;mcc_generated_files/can1.c: 388:            
      +                           ReadMessageFromFifo(rxFifoObj, rxCanMsg);
  6012  002D20  C51E  F50C         	movff	Receive@rxFifoObj,ReadMessageFromFifo@rxFifoObj
  6013  002D24  C51F  F50D         	movff	Receive@rxFifoObj+1,ReadMessageFromFifo@rxFifoObj+1
  6014  002D28  C519  F50E         	movff	Receive@rxCanMsg,ReadMessageFromFifo@rxCanMsg
  6015  002D2C  C51A  F50F         	movff	Receive@rxCanMsg+1,ReadMessageFromFifo@rxCanMsg+1
  6016  002D30  EC2A  F014         	call	_ReadMessageFromFifo	;wreg free
  6017  002D34                     
  6018                           ;mcc_generated_files/can1.c: 389:             FIFO[channel].CONH |= 0x1;
  6019  002D34  5018               	movf	Receive@channel^(0+1280),w,c
  6020  002D36  0D0C               	mullw	12
  6021  002D38  0E51               	movlw	81
  6022  002D3A  24F3               	addwf	243,w,c
  6023  002D3C  6ED9               	movwf	fsr2l,c
  6024  002D3E  0E01               	movlw	1
  6025  002D40  20F4               	addwfc	prodh,w,c
  6026  002D42  6EDA               	movwf	fsr2h,c
  6027  002D44  0E00               	movlw	0
  6028  002D46  80DB               	bsf	plusw2,0,c
  6029  002D48                     
  6030                           ;mcc_generated_files/can1.c: 391:             rxFifos[index].fifoHead += 1;
  6031  002D48  5021               	movf	Receive@index^(0+1280),w,c
  6032  002D4A  0D02               	mullw	2
  6033  002D4C  0E87               	movlw	low (_rxFifos+1)
  6034  002D4E  24F3               	addwf	243,w,c
  6035  002D50  6ED9               	movwf	fsr2l,c
  6036  002D52  0E05               	movlw	high (_rxFifos+1)
  6037  002D54  20F4               	addwfc	prodh,w,c
  6038  002D56  6EDA               	movwf	fsr2h,c
  6039  002D58  2ADF               	incf	indf2,f,c
  6040  002D5A                     
  6041                           ;mcc_generated_files/can1.c: 392:             if (rxFifos[index].fifoHead >= GetRxFifoDe
      +                          pth(channel))
  6042  002D5A  5018               	movf	Receive@channel^(0+1280),w,c
  6043  002D5C  EC22  F01D         	call	_GetRxFifoDepth
  6044  002D60  6E1B               	movwf	??_Receive^(0+1280),c
  6045  002D62  5021               	movf	Receive@index^(0+1280),w,c
  6046  002D64  0D02               	mullw	2
  6047  002D66  0E87               	movlw	low (_rxFifos+1)
  6048  002D68  24F3               	addwf	243,w,c
  6049  002D6A  6ED9               	movwf	fsr2l,c
  6050  002D6C  0E05               	movlw	high (_rxFifos+1)
  6051  002D6E  20F4               	addwfc	prodh,w,c
  6052  002D70  6EDA               	movwf	fsr2h,c
  6053  002D72  501B               	movf	??_Receive^(0+1280),w,c
  6054  002D74  5CDE               	subwf	postinc2,w,c
  6055  002D76  A0D8               	btfss	status,0,c
  6056  002D78  EFC0  F016         	goto	i2u160_41
  6057  002D7C  EFC2  F016         	goto	i2u160_40
  6058  002D80                     i2u160_41:
  6059  002D80  EFCC  F016         	goto	i2l2720
  6060  002D84                     i2u160_40:
  6061  002D84                     
  6062                           ;mcc_generated_files/can1.c: 393:             {;mcc_generated_files/can1.c: 394:        
      +                                   rxFifos[index].fifoHead = 0;
  6063  002D84  5021               	movf	Receive@index^(0+1280),w,c
  6064  002D86  0D02               	mullw	2
  6065  002D88  0E87               	movlw	low (_rxFifos+1)
  6066  002D8A  24F3               	addwf	243,w,c
  6067  002D8C  6ED9               	movwf	fsr2l,c
  6068  002D8E  0E05               	movlw	high (_rxFifos+1)
  6069  002D90  20F4               	addwfc	prodh,w,c
  6070  002D92  6EDA               	movwf	fsr2h,c
  6071  002D94  0E00               	movlw	0
  6072  002D96  6EDF               	movwf	indf2,c
  6073  002D98                     i2l2720:
  6074                           
  6075                           ;mcc_generated_files/can1.c: 397:             if (CAN_RX_MSG_OVERFLOW == (rxMsgStatus & 
      +                          CAN_RX_MSG_OVERFLOW))
  6076  002D98  A620               	btfss	Receive@rxMsgStatus^(0+1280),3,c
  6077  002D9A  EFD1  F016         	goto	i2u161_41
  6078  002D9E  EFD3  F016         	goto	i2u161_40
  6079  002DA2                     i2u161_41:
  6080  002DA2  EFDD  F016         	goto	i2l2724
  6081  002DA6                     i2u161_40:
  6082  002DA6                     
  6083                           ;mcc_generated_files/can1.c: 398:             {;mcc_generated_files/can1.c: 399:        
      +                                   FIFO[channel].STAL &= ~0x8;
  6084  002DA6  5018               	movf	Receive@channel^(0+1280),w,c
  6085  002DA8  0D0C               	mullw	12
  6086  002DAA  0E54               	movlw	84
  6087  002DAC  24F3               	addwf	243,w,c
  6088  002DAE  6ED9               	movwf	fsr2l,c
  6089  002DB0  0E01               	movlw	1
  6090  002DB2  20F4               	addwfc	prodh,w,c
  6091  002DB4  6EDA               	movwf	fsr2h,c
  6092  002DB6  0EF7               	movlw	247
  6093  002DB8  16DF               	andwf	indf2,f,c
  6094  002DBA                     i2l2724:
  6095                           
  6096                           ;mcc_generated_files/can1.c: 402:             status = 1;
  6097  002DBA  0E01               	movlw	1
  6098  002DBC  6E1D               	movwf	Receive@status^(0+1280),c
  6099  002DBE                     i2l2726:
  6100                           
  6101                           ;mcc_generated_files/can1.c: 406:     return status;
  6102  002DBE  501D               	movf	Receive@status^(0+1280),w,c
  6103  002DC0  0012               	return		;funcret
  6104  002DC2                     __end_of_Receive:
  6105                           	callstack 0
  6106                           
  6107 ;; *************** function _ReadMessageFromFifo *****************
  6108 ;; Defined at:
  6109 ;;		line 343 in file "mcc_generated_files/can1.c"
  6110 ;; Parameters:    Size  Location     Type
  6111 ;;  rxFifoObj       2   11[COMRAM] PTR unsigned char 
  6112 ;;		 -> RAM(9727), 
  6113 ;;  rxCanMsg        2   13[COMRAM] PTR struct .
  6114 ;;		 -> msgReceipt(7), 
  6115 ;; Auto vars:     Size  Location     Type
  6116 ;;  msgId           4   18[COMRAM] unsigned long 
  6117 ;;  status          1   22[COMRAM] unsigned char 
  6118 ;;  payloadOffse    1    0        const unsigned char 
  6119 ;; Return value:  Size  Location     Type
  6120 ;;                  1    wreg      void 
  6121 ;; Registers used:
  6122 ;;		wreg, fsr2l, fsr2h, status,2, status,0, tblptrl, tblptrh, tblptru, cstack
  6123 ;; Tracked objects:
  6124 ;;		On entry : 0/0
  6125 ;;		On exit  : 0/0
  6126 ;;		Unchanged: 0/0
  6127 ;; Data sizes:     COMRAM   BANK5   BANK6   BANK7   BANK8   BANK9  BANK10  BANK11  BANK12  BANK13  BANK14  BANK15  BANK1
      +6  BANK17  BANK18  BANK19  BANK20  BANK21  BANK22  BANK23  BANK24  BANK25  BANK26  BANK27  BANK28  BANK29  BANK30  BANK3
      +1  BANK32  BANK33  BANK34  BANK35  BANK36  BANK37
  6128 ;;      Params:         4       0       0       0       0       0       0       0       0       0       0       0       
      +0       0       0       0       0       0       0       0       0       0       0       0       0       0       0       
      +0       0       0       0       0       0       0
  6129 ;;      Locals:         6       0       0       0       0       0       0       0       0       0       0       0       
      +0       0       0       0       0       0       0       0       0       0       0       0       0       0       0       
      +0       0       0       0       0       0       0
  6130 ;;      Temps:          2       0       0       0       0       0       0       0       0       0       0       0       
      +0       0       0       0       0       0       0       0       0       0       0       0       0       0       0       
      +0       0       0       0       0       0       0
  6131 ;;      Totals:        12       0       0       0       0       0       0       0       0       0       0       0       
      +0       0       0       0       0       0       0       0       0       0       0       0       0       0       0       
      +0       0       0       0       0       0       0
  6132 ;;Total ram usage:       12 bytes
  6133 ;; Hardware stack levels used:    1
  6134 ;; Hardware stack levels required when called:    1
  6135 ;; This function calls:
  6136 ;;		_memcpy
  6137 ;; This function is called by:
  6138 ;;		_Receive
  6139 ;; This function uses a non-reentrant model
  6140 ;;
  6141                           
  6142                           	psect	text64
  6143  002854                     __ptext64:
  6144                           	callstack 0
  6145  002854                     _ReadMessageFromFifo:
  6146                           	callstack 116
  6147  002854                     
  6148                           ;mcc_generated_files/can1.c: 343: static void ReadMessageFromFifo(uint8_t *rxFifoObj, CA
      +                          N_MSG_OBJ *rxCanMsg);mcc_generated_files/can1.c: 344: {;mcc_generated_files/can1.c: 345:
      +                               uint32_t msgId;;mcc_generated_files/can1.c: 346:     uint8_t status = rxFifoObj[4];
  6149  002854  EE20 F004          	lfsr	2,4
  6150  002858  500C               	movf	ReadMessageFromFifo@rxFifoObj^(0+1280),w,c
  6151  00285A  26D9               	addwf	fsr2l,f,c
  6152  00285C  500D               	movf	(ReadMessageFromFifo@rxFifoObj+1)^(0+1280),w,c
  6153  00285E  22DA               	addwfc	fsr2h,f,c
  6154  002860  50DF               	movf	indf2,w,c
  6155  002862  6E17               	movwf	ReadMessageFromFifo@status^(0+1280),c
  6156  002864                     
  6157                           ;mcc_generated_files/can1.c: 353:     rxCanMsg->field.dlc = status;
  6158  002864  C517  F510         	movff	ReadMessageFromFifo@status,??_ReadMessageFromFifo
  6159  002868  EE20 F004          	lfsr	2,4
  6160  00286C  500E               	movf	ReadMessageFromFifo@rxCanMsg^(0+1280),w,c
  6161  00286E  26D9               	addwf	fsr2l,f,c
  6162  002870  500F               	movf	(ReadMessageFromFifo@rxCanMsg+1)^(0+1280),w,c
  6163  002872  22DA               	addwfc	fsr2h,f,c
  6164  002874  4610               	rlncf	??_ReadMessageFromFifo^(0+1280),f,c
  6165  002876  4610               	rlncf	??_ReadMessageFromFifo^(0+1280),f,c
  6166  002878  50DF               	movf	479,w,c
  6167  00287A  1810               	xorwf	??_ReadMessageFromFifo^(0+1280),w,c
  6168  00287C  0BC3               	andlw	-61
  6169  00287E  1810               	xorwf	??_ReadMessageFromFifo^(0+1280),w,c
  6170  002880  6EDF               	movwf	479,c
  6171  002882                     
  6172                           ;mcc_generated_files/can1.c: 354:     rxCanMsg->field.idType = (status & (1UL << (4U))) 
      +                          ? CAN_FRAME_EXT : CAN_FRAME_STD;
  6173  002882  B817               	btfsc	ReadMessageFromFifo@status^(0+1280),4,c
  6174  002884  EF46  F014         	goto	i2u139_41
  6175  002888  EF4A  F014         	goto	i2u139_40
  6176  00288C                     i2u139_41:
  6177  00288C  6A10               	clrf	??_ReadMessageFromFifo^(0+1280),c
  6178  00288E  2A10               	incf	??_ReadMessageFromFifo^(0+1280),f,c
  6179  002890  EF4B  F014         	goto	i2u140_48
  6180  002894                     i2u139_40:
  6181  002894  6A10               	clrf	??_ReadMessageFromFifo^(0+1280),c
  6182  002896                     i2u140_48:
  6183  002896  EE20 F004          	lfsr	2,4
  6184  00289A  500E               	movf	ReadMessageFromFifo@rxCanMsg^(0+1280),w,c
  6185  00289C  26D9               	addwf	fsr2l,f,c
  6186  00289E  500F               	movf	(ReadMessageFromFifo@rxCanMsg+1)^(0+1280),w,c
  6187  0028A0  22DA               	addwfc	fsr2h,f,c
  6188  0028A2  50DF               	movf	479,w,c
  6189  0028A4  1810               	xorwf	??_ReadMessageFromFifo^(0+1280),w,c
  6190  0028A6  0BFE               	andlw	-2
  6191  0028A8  1810               	xorwf	??_ReadMessageFromFifo^(0+1280),w,c
  6192  0028AA  6EDF               	movwf	479,c
  6193  0028AC                     
  6194                           ;mcc_generated_files/can1.c: 355:     rxCanMsg->field.frameType = (status & (1UL << (5U)
      +                          )) ? CAN_FRAME_RTR : CAN_FRAME_DATA;
  6195  0028AC  BA17               	btfsc	ReadMessageFromFifo@status^(0+1280),5,c
  6196  0028AE  EF5B  F014         	goto	i2u141_41
  6197  0028B2  EF5F  F014         	goto	i2u141_40
  6198  0028B6                     i2u141_41:
  6199  0028B6  6A10               	clrf	??_ReadMessageFromFifo^(0+1280),c
  6200  0028B8  2A10               	incf	??_ReadMessageFromFifo^(0+1280),f,c
  6201  0028BA  EF60  F014         	goto	i2u142_48
  6202  0028BE                     i2u141_40:
  6203  0028BE  6A10               	clrf	??_ReadMessageFromFifo^(0+1280),c
  6204  0028C0                     i2u142_48:
  6205  0028C0  EE20 F004          	lfsr	2,4
  6206  0028C4  500E               	movf	ReadMessageFromFifo@rxCanMsg^(0+1280),w,c
  6207  0028C6  26D9               	addwf	fsr2l,f,c
  6208  0028C8  500F               	movf	(ReadMessageFromFifo@rxCanMsg+1)^(0+1280),w,c
  6209  0028CA  22DA               	addwfc	fsr2h,f,c
  6210  0028CC  4610               	rlncf	??_ReadMessageFromFifo^(0+1280),f,c
  6211  0028CE  50DF               	movf	479,w,c
  6212  0028D0  1810               	xorwf	??_ReadMessageFromFifo^(0+1280),w,c
  6213  0028D2  0BFD               	andlw	-3
  6214  0028D4  1810               	xorwf	??_ReadMessageFromFifo^(0+1280),w,c
  6215  0028D6  6EDF               	movwf	479,c
  6216  0028D8                     
  6217                           ;mcc_generated_files/can1.c: 356:     rxCanMsg->field.brs = (status & (1UL << (6U))) ? C
      +                          AN_BRS_MODE : CAN_NON_BRS_MODE;
  6218  0028D8  BC17               	btfsc	ReadMessageFromFifo@status^(0+1280),6,c
  6219  0028DA  EF71  F014         	goto	i2u143_41
  6220  0028DE  EF75  F014         	goto	i2u143_40
  6221  0028E2                     i2u143_41:
  6222  0028E2  6A10               	clrf	??_ReadMessageFromFifo^(0+1280),c
  6223  0028E4  2A10               	incf	??_ReadMessageFromFifo^(0+1280),f,c
  6224  0028E6  EF76  F014         	goto	i2u144_48
  6225  0028EA                     i2u143_40:
  6226  0028EA  6A10               	clrf	??_ReadMessageFromFifo^(0+1280),c
  6227  0028EC                     i2u144_48:
  6228  0028EC  EE20 F004          	lfsr	2,4
  6229  0028F0  500E               	movf	ReadMessageFromFifo@rxCanMsg^(0+1280),w,c
  6230  0028F2  26D9               	addwf	fsr2l,f,c
  6231  0028F4  500F               	movf	(ReadMessageFromFifo@rxCanMsg+1)^(0+1280),w,c
  6232  0028F6  22DA               	addwfc	fsr2h,f,c
  6233  0028F8  3210               	rrcf	??_ReadMessageFromFifo^(0+1280),f,c
  6234  0028FA  3210               	rrcf	??_ReadMessageFromFifo^(0+1280),f,c
  6235  0028FC  50DF               	movf	479,w,c
  6236  0028FE  1810               	xorwf	??_ReadMessageFromFifo^(0+1280),w,c
  6237  002900  0B7F               	andlw	-129
  6238  002902  1810               	xorwf	??_ReadMessageFromFifo^(0+1280),w,c
  6239  002904  6EDF               	movwf	479,c
  6240  002906                     
  6241                           ;mcc_generated_files/can1.c: 357:     rxCanMsg->field.formatType = (status & (1UL << (7U
      +                          ))) ? CAN_FRAME_EXT : CAN_FRAME_STD;
  6242  002906  BE17               	btfsc	ReadMessageFromFifo@status^(0+1280),7,c
  6243  002908  EF88  F014         	goto	i2u145_41
  6244  00290C  EF8C  F014         	goto	i2u145_40
  6245  002910                     i2u145_41:
  6246  002910  6A10               	clrf	??_ReadMessageFromFifo^(0+1280),c
  6247  002912  2A10               	incf	??_ReadMessageFromFifo^(0+1280),f,c
  6248  002914  EF8D  F014         	goto	i2u146_48
  6249  002918                     i2u145_40:
  6250  002918  6A10               	clrf	??_ReadMessageFromFifo^(0+1280),c
  6251  00291A                     i2u146_48:
  6252  00291A  EE20 F004          	lfsr	2,4
  6253  00291E  500E               	movf	ReadMessageFromFifo@rxCanMsg^(0+1280),w,c
  6254  002920  26D9               	addwf	fsr2l,f,c
  6255  002922  500F               	movf	(ReadMessageFromFifo@rxCanMsg+1)^(0+1280),w,c
  6256  002924  22DA               	addwfc	fsr2h,f,c
  6257  002926  3A10               	swapf	??_ReadMessageFromFifo^(0+1280),f,c
  6258  002928  4610               	rlncf	??_ReadMessageFromFifo^(0+1280),f,c
  6259  00292A  4610               	rlncf	??_ReadMessageFromFifo^(0+1280),f,c
  6260  00292C  50DF               	movf	479,w,c
  6261  00292E  1810               	xorwf	??_ReadMessageFromFifo^(0+1280),w,c
  6262  002930  0BBF               	andlw	-65
  6263  002932  1810               	xorwf	??_ReadMessageFromFifo^(0+1280),w,c
  6264  002934  6EDF               	movwf	479,c
  6265  002936                     
  6266                           ;mcc_generated_files/can1.c: 359:     msgId = rxFifoObj[1] & (0x07U);
  6267  002936  EE20 F001          	lfsr	2,1
  6268  00293A  500C               	movf	ReadMessageFromFifo@rxFifoObj^(0+1280),w,c
  6269  00293C  26D9               	addwf	fsr2l,f,c
  6270  00293E  500D               	movf	(ReadMessageFromFifo@rxFifoObj+1)^(0+1280),w,c
  6271  002940  22DA               	addwfc	fsr2h,f,c
  6272  002942  50DF               	movf	indf2,w,c
  6273  002944  6E10               	movwf	??_ReadMessageFromFifo^(0+1280),c
  6274  002946  0E07               	movlw	7
  6275  002948  1610               	andwf	??_ReadMessageFromFifo^(0+1280),f,c
  6276  00294A  5010               	movf	??_ReadMessageFromFifo^(0+1280),w,c
  6277  00294C  6E13               	movwf	ReadMessageFromFifo@msgId^(0+1280),c
  6278  00294E  6A14               	clrf	(ReadMessageFromFifo@msgId+1)^(0+1280),c
  6279  002950  6A15               	clrf	(ReadMessageFromFifo@msgId+2)^(0+1280),c
  6280  002952  6A16               	clrf	(ReadMessageFromFifo@msgId+3)^(0+1280),c
  6281  002954                     
  6282                           ;mcc_generated_files/can1.c: 360:     msgId <<= (8U);
  6283  002954  C515  F516         	movff	ReadMessageFromFifo@msgId+2,ReadMessageFromFifo@msgId+3
  6284  002958  C514  F515         	movff	ReadMessageFromFifo@msgId+1,ReadMessageFromFifo@msgId+2
  6285  00295C  C513  F514         	movff	ReadMessageFromFifo@msgId,ReadMessageFromFifo@msgId+1
  6286  002960  6A13               	clrf	ReadMessageFromFifo@msgId^(0+1280),c
  6287  002962                     
  6288                           ;mcc_generated_files/can1.c: 361:     msgId |= rxFifoObj[0];
  6289  002962  0061  F430  F4D9   	movff	ReadMessageFromFifo@rxFifoObj,fsr2l
  6290  002968  0061  F434  F4DA   	movff	ReadMessageFromFifo@rxFifoObj+1,fsr2h
  6291  00296E  50DF               	movf	indf2,w,c
  6292  002970  6E10               	movwf	??_ReadMessageFromFifo^(0+1280),c
  6293  002972  5010               	movf	??_ReadMessageFromFifo^(0+1280),w,c
  6294  002974  1213               	iorwf	ReadMessageFromFifo@msgId^(0+1280),f,c
  6295  002976                     
  6296                           ;mcc_generated_files/can1.c: 362:     if (CAN_FRAME_EXT == rxCanMsg->field.idType)
  6297  002976  EE20 F004          	lfsr	2,4
  6298  00297A  500E               	movf	ReadMessageFromFifo@rxCanMsg^(0+1280),w,c
  6299  00297C  26D9               	addwf	fsr2l,f,c
  6300  00297E  500F               	movf	(ReadMessageFromFifo@rxCanMsg+1)^(0+1280),w,c
  6301  002980  22DA               	addwfc	fsr2h,f,c
  6302  002982  A0DF               	btfss	indf2,0,c
  6303  002984  EFC6  F014         	goto	i2u147_41
  6304  002988  EFC8  F014         	goto	i2u147_40
  6305  00298C                     i2u147_41:
  6306  00298C  EF09  F015         	goto	i2l2654
  6307  002990                     i2u147_40:
  6308  002990                     
  6309                           ;mcc_generated_files/can1.c: 363:     {;mcc_generated_files/can1.c: 364:         msgId <
      +                          <= (5U);
  6310  002990  0E05               	movlw	5
  6311  002992                     i2u148_45:
  6312  002992  90D8               	bcf	status,0,c
  6313  002994  3613               	rlcf	ReadMessageFromFifo@msgId^(0+1280),f,c
  6314  002996  3614               	rlcf	(ReadMessageFromFifo@msgId+1)^(0+1280),f,c
  6315  002998  3615               	rlcf	(ReadMessageFromFifo@msgId+2)^(0+1280),f,c
  6316  00299A  3616               	rlcf	(ReadMessageFromFifo@msgId+3)^(0+1280),f,c
  6317  00299C  2EE8               	decfsz	wreg,f,c
  6318  00299E  EFC9  F014         	goto	i2u148_45
  6319  0029A2                     
  6320                           ;mcc_generated_files/can1.c: 365:         msgId |= (rxFifoObj[3] & (0x1FU));
  6321  0029A2  EE20 F003          	lfsr	2,3
  6322  0029A6  500C               	movf	ReadMessageFromFifo@rxFifoObj^(0+1280),w,c
  6323  0029A8  26D9               	addwf	fsr2l,f,c
  6324  0029AA  500D               	movf	(ReadMessageFromFifo@rxFifoObj+1)^(0+1280),w,c
  6325  0029AC  22DA               	addwfc	fsr2h,f,c
  6326  0029AE  50DF               	movf	indf2,w,c
  6327  0029B0  6E10               	movwf	??_ReadMessageFromFifo^(0+1280),c
  6328  0029B2  0E1F               	movlw	31
  6329  0029B4  1610               	andwf	??_ReadMessageFromFifo^(0+1280),f,c
  6330  0029B6  5010               	movf	??_ReadMessageFromFifo^(0+1280),w,c
  6331  0029B8  1213               	iorwf	ReadMessageFromFifo@msgId^(0+1280),f,c
  6332  0029BA                     
  6333                           ;mcc_generated_files/can1.c: 366:         msgId <<= (8U);
  6334  0029BA  C515  F516         	movff	ReadMessageFromFifo@msgId+2,ReadMessageFromFifo@msgId+3
  6335  0029BE  C514  F515         	movff	ReadMessageFromFifo@msgId+1,ReadMessageFromFifo@msgId+2
  6336  0029C2  C513  F514         	movff	ReadMessageFromFifo@msgId,ReadMessageFromFifo@msgId+1
  6337  0029C6  6A13               	clrf	ReadMessageFromFifo@msgId^(0+1280),c
  6338  0029C8                     
  6339                           ;mcc_generated_files/can1.c: 367:         msgId |= rxFifoObj[2];
  6340  0029C8  EE20 F002          	lfsr	2,2
  6341  0029CC  500C               	movf	ReadMessageFromFifo@rxFifoObj^(0+1280),w,c
  6342  0029CE  26D9               	addwf	fsr2l,f,c
  6343  0029D0  500D               	movf	(ReadMessageFromFifo@rxFifoObj+1)^(0+1280),w,c
  6344  0029D2  22DA               	addwfc	fsr2h,f,c
  6345  0029D4  50DF               	movf	indf2,w,c
  6346  0029D6  6E10               	movwf	??_ReadMessageFromFifo^(0+1280),c
  6347  0029D8  5010               	movf	??_ReadMessageFromFifo^(0+1280),w,c
  6348  0029DA  1213               	iorwf	ReadMessageFromFifo@msgId^(0+1280),f,c
  6349  0029DC                     
  6350                           ;mcc_generated_files/can1.c: 368:         msgId <<= (5U);
  6351  0029DC  0E05               	movlw	5
  6352  0029DE                     i2u149_45:
  6353  0029DE  90D8               	bcf	status,0,c
  6354  0029E0  3613               	rlcf	ReadMessageFromFifo@msgId^(0+1280),f,c
  6355  0029E2  3614               	rlcf	(ReadMessageFromFifo@msgId+1)^(0+1280),f,c
  6356  0029E4  3615               	rlcf	(ReadMessageFromFifo@msgId+2)^(0+1280),f,c
  6357  0029E6  3616               	rlcf	(ReadMessageFromFifo@msgId+3)^(0+1280),f,c
  6358  0029E8  2EE8               	decfsz	wreg,f,c
  6359  0029EA  EFEF  F014         	goto	i2u149_45
  6360  0029EE                     
  6361                           ;mcc_generated_files/can1.c: 369:         msgId |= (rxFifoObj[1] & (0xF8U)) >> (3U);
  6362  0029EE  EE20 F001          	lfsr	2,1
  6363  0029F2  500C               	movf	ReadMessageFromFifo@rxFifoObj^(0+1280),w,c
  6364  0029F4  26D9               	addwf	fsr2l,f,c
  6365  0029F6  500D               	movf	(ReadMessageFromFifo@rxFifoObj+1)^(0+1280),w,c
  6366  0029F8  22DA               	addwfc	fsr2h,f,c
  6367  0029FA  50DF               	movf	indf2,w,c
  6368  0029FC  6E10               	movwf	??_ReadMessageFromFifo^(0+1280),c
  6369  0029FE  90D8               	bcf	status,0,c
  6370  002A00  3210               	rrcf	??_ReadMessageFromFifo^(0+1280),f,c
  6371  002A02  90D8               	bcf	status,0,c
  6372  002A04  3210               	rrcf	??_ReadMessageFromFifo^(0+1280),f,c
  6373  002A06  90D8               	bcf	status,0,c
  6374  002A08  3210               	rrcf	??_ReadMessageFromFifo^(0+1280),f,c
  6375  002A0A  0E1F               	movlw	31
  6376  002A0C  1610               	andwf	??_ReadMessageFromFifo^(0+1280),f,c
  6377  002A0E  5010               	movf	??_ReadMessageFromFifo^(0+1280),w,c
  6378  002A10  1213               	iorwf	ReadMessageFromFifo@msgId^(0+1280),f,c
  6379  002A12                     i2l2654:
  6380                           
  6381                           ;mcc_generated_files/can1.c: 371:     rxCanMsg->msgId = msgId;
  6382  002A12  0061  F438  F4D9   	movff	ReadMessageFromFifo@rxCanMsg,fsr2l
  6383  002A18  0061  F43C  F4DA   	movff	ReadMessageFromFifo@rxCanMsg+1,fsr2h
  6384  002A1E  0061  F44C  F4DE   	movff	ReadMessageFromFifo@msgId,postinc2
  6385  002A24  0061  F450  F4DE   	movff	ReadMessageFromFifo@msgId+1,postinc2
  6386  002A2A  0061  F454  F4DE   	movff	ReadMessageFromFifo@msgId+2,postinc2
  6387  002A30  0061  F458  F4DE   	movff	ReadMessageFromFifo@msgId+3,postinc2
  6388  002A36                     
  6389                           ;mcc_generated_files/can1.c: 373:     memcpy(rxMsgData, rxFifoObj + payloadOffsetBytes, 
      +                          (DLC_BYTES[(rxCanMsg->field.dlc)]));
  6390  002A36  0E6E               	movlw	low _rxMsgData
  6391  002A38  6E01               	movwf	memcpy@d1^(0+1280),c
  6392  002A3A  0E05               	movlw	high _rxMsgData
  6393  002A3C  6E02               	movwf	(memcpy@d1+1)^(0+1280),c
  6394  002A3E  0E08               	movlw	8
  6395  002A40  240C               	addwf	ReadMessageFromFifo@rxFifoObj^(0+1280),w,c
  6396  002A42  6E03               	movwf	memcpy@s1^(0+1280),c
  6397  002A44  0E00               	movlw	0
  6398  002A46  200D               	addwfc	(ReadMessageFromFifo@rxFifoObj+1)^(0+1280),w,c
  6399  002A48  6E04               	movwf	(memcpy@s1+1)^(0+1280),c
  6400  002A4A  EE20 F004          	lfsr	2,4
  6401  002A4E  500E               	movf	ReadMessageFromFifo@rxCanMsg^(0+1280),w,c
  6402  002A50  26D9               	addwf	fsr2l,f,c
  6403  002A52  500F               	movf	(ReadMessageFromFifo@rxCanMsg+1)^(0+1280),w,c
  6404  002A54  22DA               	addwfc	fsr2h,f,c
  6405  002A56  30DF               	rrcf	479,w,c
  6406  002A58  32E8               	rrcf	wreg,f,c
  6407  002A5A  0B0F               	andlw	15
  6408  002A5C  6E10               	movwf	??_ReadMessageFromFifo^(0+1280),c
  6409  002A5E  6A11               	clrf	(??_ReadMessageFromFifo+1)^(0+1280),c
  6410  002A60  0E01               	movlw	low _DLC_BYTES
  6411  002A62  2410               	addwf	??_ReadMessageFromFifo^(0+1280),w,c
  6412  002A64  6EF6               	movwf	tblptrl,c
  6413  002A66  0E26               	movlw	high _DLC_BYTES
  6414  002A68  2011               	addwfc	(??_ReadMessageFromFifo+1)^(0+1280),w,c
  6415  002A6A  6EF7               	movwf	tblptrh,c
  6416  002A6C                     	if	1	;There are 3 active tblptr bytes
  6417  002A6C  6AF8               	clrf	tblptru,c
  6418  002A6E  0E00               	movlw	low (__mediumconst shr (0+16))
  6419  002A70  22F8               	addwfc	tblptru,f,c
  6420  002A72                     	endif
  6421  002A72  0008               	tblrd		*
  6422  002A74  50F5               	movf	tablat,w,c
  6423  002A76  6E05               	movwf	memcpy@n^(0+1280),c
  6424  002A78  6A06               	clrf	(memcpy@n+1)^(0+1280),c
  6425  002A7A  ECEB  F01A         	call	_memcpy	;wreg free
  6426  002A7E                     
  6427                           ;mcc_generated_files/can1.c: 374:     rxCanMsg->data = rxMsgData;
  6428  002A7E  EE20 F005          	lfsr	2,5
  6429  002A82  500E               	movf	ReadMessageFromFifo@rxCanMsg^(0+1280),w,c
  6430  002A84  26D9               	addwf	fsr2l,f,c
  6431  002A86  500F               	movf	(ReadMessageFromFifo@rxCanMsg+1)^(0+1280),w,c
  6432  002A88  22DA               	addwfc	fsr2h,f,c
  6433  002A8A  0E6E               	movlw	low _rxMsgData
  6434  002A8C  6EDE               	movwf	postinc2,c
  6435  002A8E  0E05               	movlw	high _rxMsgData
  6436  002A90  6EDD               	movwf	postdec2,c
  6437  002A92  0012               	return		;funcret
  6438  002A94                     __end_of_ReadMessageFromFifo:
  6439                           	callstack 0
  6440                           
  6441 ;; *************** function _memcpy *****************
  6442 ;; Defined at:
  6443 ;;		line 4 in file "C:\Program Files\Microchip\xc8\v2.31\pic\sources\c99\common\memcpy.c"
  6444 ;; Parameters:    Size  Location     Type
  6445 ;;  d1              2    0[COMRAM] PTR void 
  6446 ;;		 -> RAM(9727), rxMsgData(8), 
  6447 ;;  s1              2    2[COMRAM] PTR const void 
  6448 ;;		 -> CANDATAdata(8), RAM(9727), rxMsgData(8), 
  6449 ;;  n               2    4[COMRAM] unsigned int 
  6450 ;; Auto vars:     Size  Location     Type
  6451 ;;  s               2    8[COMRAM] PTR const unsigned char 
  6452 ;;		 -> CANDATAdata(8), RAM(9727), rxMsgData(8), 
  6453 ;;  d               2    6[COMRAM] PTR unsigned char 
  6454 ;;		 -> RAM(9727), rxMsgData(8), 
  6455 ;;  tmp             1   10[COMRAM] unsigned char 
  6456 ;; Return value:  Size  Location     Type
  6457 ;;                  2    0[COMRAM] PTR void 
  6458 ;; Registers used:
  6459 ;;		wreg, fsr2l, fsr2h, status,2, status,0
  6460 ;; Tracked objects:
  6461 ;;		On entry : 0/0
  6462 ;;		On exit  : 0/0
  6463 ;;		Unchanged: 0/0
  6464 ;; Data sizes:     COMRAM   BANK5   BANK6   BANK7   BANK8   BANK9  BANK10  BANK11  BANK12  BANK13  BANK14  BANK15  BANK1
      +6  BANK17  BANK18  BANK19  BANK20  BANK21  BANK22  BANK23  BANK24  BANK25  BANK26  BANK27  BANK28  BANK29  BANK30  BANK3
      +1  BANK32  BANK33  BANK34  BANK35  BANK36  BANK37
  6465 ;;      Params:         6       0       0       0       0       0       0       0       0       0       0       0       
      +0       0       0       0       0       0       0       0       0       0       0       0       0       0       0       
      +0       0       0       0       0       0       0
  6466 ;;      Locals:         5       0       0       0       0       0       0       0       0       0       0       0       
      +0       0       0       0       0       0       0       0       0       0       0       0       0       0       0       
      +0       0       0       0       0       0       0
  6467 ;;      Temps:          0       0       0       0       0       0       0       0       0       0       0       0       
      +0       0       0       0       0       0       0       0       0       0       0       0       0       0       0       
      +0       0       0       0       0       0       0
  6468 ;;      Totals:        11       0       0       0       0       0       0       0       0       0       0       0       
      +0       0       0       0       0       0       0       0       0       0       0       0       0       0       0       
      +0       0       0       0       0       0       0
  6469 ;;Total ram usage:       11 bytes
  6470 ;; Hardware stack levels used:    1
  6471 ;; This function calls:
  6472 ;;		Nothing
  6473 ;; This function is called by:
  6474 ;;		_ReadMessageFromFifo
  6475 ;;		_WriteMessageToFifo
  6476 ;; This function uses a non-reentrant model
  6477 ;;
  6478                           
  6479                           	psect	text65
  6480  0035D6                     __ptext65:
  6481                           	callstack 0
  6482  0035D6                     _memcpy:
  6483                           	callstack 115
  6484  0035D6  C503  F509         	movff	memcpy@s1,memcpy@s
  6485  0035DA  C504  F50A         	movff	memcpy@s1+1,memcpy@s+1
  6486  0035DE  C501  F507         	movff	memcpy@d1,memcpy@d
  6487  0035E2  C502  F508         	movff	memcpy@d1+1,memcpy@d+1
  6488  0035E6  EF0A  F01B         	goto	i2l2514
  6489  0035EA                     i2l2506:
  6490  0035EA  0061  F424  F4D9   	movff	memcpy@s,fsr2l
  6491  0035F0  0061  F428  F4DA   	movff	memcpy@s+1,fsr2h
  6492  0035F6  50DF               	movf	indf2,w,c
  6493  0035F8  6E0B               	movwf	memcpy@tmp^(0+1280),c
  6494  0035FA  4A09               	infsnz	memcpy@s^(0+1280),f,c
  6495  0035FC  2A0A               	incf	(memcpy@s+1)^(0+1280),f,c
  6496  0035FE  0061  F41C  F4D9   	movff	memcpy@d,fsr2l
  6497  003604  0061  F420  F4DA   	movff	memcpy@d+1,fsr2h
  6498  00360A  0061  F42C  F4DF   	movff	memcpy@tmp,indf2
  6499  003610  4A07               	infsnz	memcpy@d^(0+1280),f,c
  6500  003612  2A08               	incf	(memcpy@d+1)^(0+1280),f,c
  6501  003614                     i2l2514:
  6502  003614  0605               	decf	memcpy@n^(0+1280),f,c
  6503  003616  A0D8               	btfss	status,0,c
  6504  003618  0606               	decf	(memcpy@n+1)^(0+1280),f,c
  6505  00361A  2805               	incf	memcpy@n^(0+1280),w,c
  6506  00361C  E106               	bnz	i2u117_41
  6507  00361E  2806               	incf	(memcpy@n+1)^(0+1280),w,c
  6508  003620  A4D8               	btfss	status,2,c
  6509  003622  EF15  F01B         	goto	i2u117_41
  6510  003626  EF17  F01B         	goto	i2u117_40
  6511  00362A                     i2u117_41:
  6512  00362A  EFF5  F01A         	goto	i2l2506
  6513  00362E                     i2u117_40:
  6514  00362E  0012               	return		;funcret
  6515  003630                     __end_of_memcpy:
  6516                           	callstack 0
  6517                           
  6518 ;; *************** function _GetRxFifoStatus *****************
  6519 ;; Defined at:
  6520 ;;		line 338 in file "mcc_generated_files/can1.c"
  6521 ;; Parameters:    Size  Location     Type
  6522 ;;  validChannel    1    wreg     unsigned char 
  6523 ;; Auto vars:     Size  Location     Type
  6524 ;;  validChannel    1    0[COMRAM] unsigned char 
  6525 ;; Return value:  Size  Location     Type
  6526 ;;                  1    wreg      enum E22534
  6527 ;; Registers used:
  6528 ;;		wreg, fsr2l, fsr2h, status,2, status,0, prodl, prodh
  6529 ;; Tracked objects:
  6530 ;;		On entry : 0/0
  6531 ;;		On exit  : 0/0
  6532 ;;		Unchanged: 0/0
  6533 ;; Data sizes:     COMRAM   BANK5   BANK6   BANK7   BANK8   BANK9  BANK10  BANK11  BANK12  BANK13  BANK14  BANK15  BANK1
      +6  BANK17  BANK18  BANK19  BANK20  BANK21  BANK22  BANK23  BANK24  BANK25  BANK26  BANK27  BANK28  BANK29  BANK30  BANK3
      +1  BANK32  BANK33  BANK34  BANK35  BANK36  BANK37
  6534 ;;      Params:         0       0       0       0       0       0       0       0       0       0       0       0       
      +0       0       0       0       0       0       0       0       0       0       0       0       0       0       0       
      +0       0       0       0       0       0       0
  6535 ;;      Locals:         1       0       0       0       0       0       0       0       0       0       0       0       
      +0       0       0       0       0       0       0       0       0       0       0       0       0       0       0       
      +0       0       0       0       0       0       0
  6536 ;;      Temps:          0       0       0       0       0       0       0       0       0       0       0       0       
      +0       0       0       0       0       0       0       0       0       0       0       0       0       0       0       
      +0       0       0       0       0       0       0
  6537 ;;      Totals:         1       0       0       0       0       0       0       0       0       0       0       0       
      +0       0       0       0       0       0       0       0       0       0       0       0       0       0       0       
      +0       0       0       0       0       0       0
  6538 ;;Total ram usage:        1 bytes
  6539 ;; Hardware stack levels used:    1
  6540 ;; This function calls:
  6541 ;;		Nothing
  6542 ;; This function is called by:
  6543 ;;		_Receive
  6544 ;;		_CAN1_ReceivedMessageCountGet
  6545 ;; This function uses a non-reentrant model
  6546 ;;
  6547                           
  6548                           	psect	text66
  6549  003AAC                     __ptext66:
  6550                           	callstack 0
  6551  003AAC                     _GetRxFifoStatus:
  6552                           	callstack 118
  6553                           
  6554                           ;incstack = 0
  6555                           ;GetRxFifoStatus@validChannel stored from wreg
  6556  003AAC  6E01               	movwf	GetRxFifoStatus@validChannel^(0+1280),c
  6557  003AAE                     
  6558                           ;mcc_generated_files/can1.c: 338: static CAN_RX_FIFO_STATUS GetRxFifoStatus(uint8_t vali
      +                          dChannel);mcc_generated_files/can1.c: 339: {;mcc_generated_files/can1.c: 340:     return
      +                           FIFO[validChannel].STAL & (CAN_RX_MSG_AVAILABLE | CAN_RX_MSG_OVERFLOW);
  6559  003AAE  5001               	movf	GetRxFifoStatus@validChannel^(0+1280),w,c
  6560  003AB0  0D0C               	mullw	12
  6561  003AB2  0E54               	movlw	84
  6562  003AB4  24F3               	addwf	243,w,c
  6563  003AB6  6ED9               	movwf	fsr2l,c
  6564  003AB8  0E01               	movlw	1
  6565  003ABA  20F4               	addwfc	prodh,w,c
  6566  003ABC  6EDA               	movwf	fsr2h,c
  6567  003ABE  50DF               	movf	indf2,w,c
  6568  003AC0  0B09               	andlw	9
  6569  003AC2  0012               	return		;funcret
  6570  003AC4                     __end_of_GetRxFifoStatus:
  6571                           	callstack 0
  6572                           
  6573 ;; *************** function _GetRxFifoDepth *****************
  6574 ;; Defined at:
  6575 ;;		line 333 in file "mcc_generated_files/can1.c"
  6576 ;; Parameters:    Size  Location     Type
  6577 ;;  validChannel    1    wreg     unsigned char 
  6578 ;; Auto vars:     Size  Location     Type
  6579 ;;  validChannel    1    1[COMRAM] unsigned char 
  6580 ;; Return value:  Size  Location     Type
  6581 ;;                  1    wreg      unsigned char 
  6582 ;; Registers used:
  6583 ;;		wreg, fsr2l, fsr2h, status,2, status,0, prodl, prodh
  6584 ;; Tracked objects:
  6585 ;;		On entry : 0/0
  6586 ;;		On exit  : 0/0
  6587 ;;		Unchanged: 0/0
  6588 ;; Data sizes:     COMRAM   BANK5   BANK6   BANK7   BANK8   BANK9  BANK10  BANK11  BANK12  BANK13  BANK14  BANK15  BANK1
      +6  BANK17  BANK18  BANK19  BANK20  BANK21  BANK22  BANK23  BANK24  BANK25  BANK26  BANK27  BANK28  BANK29  BANK30  BANK3
      +1  BANK32  BANK33  BANK34  BANK35  BANK36  BANK37
  6589 ;;      Params:         0       0       0       0       0       0       0       0       0       0       0       0       
      +0       0       0       0       0       0       0       0       0       0       0       0       0       0       0       
      +0       0       0       0       0       0       0
  6590 ;;      Locals:         1       0       0       0       0       0       0       0       0       0       0       0       
      +0       0       0       0       0       0       0       0       0       0       0       0       0       0       0       
      +0       0       0       0       0       0       0
  6591 ;;      Temps:          1       0       0       0       0       0       0       0       0       0       0       0       
      +0       0       0       0       0       0       0       0       0       0       0       0       0       0       0       
      +0       0       0       0       0       0       0
  6592 ;;      Totals:         2       0       0       0       0       0       0       0       0       0       0       0       
      +0       0       0       0       0       0       0       0       0       0       0       0       0       0       0       
      +0       0       0       0       0       0       0
  6593 ;;Total ram usage:        2 bytes
  6594 ;; Hardware stack levels used:    1
  6595 ;; This function calls:
  6596 ;;		Nothing
  6597 ;; This function is called by:
  6598 ;;		_Receive
  6599 ;;		_CAN1_ReceivedMessageCountGet
  6600 ;; This function uses a non-reentrant model
  6601 ;;
  6602                           
  6603                           	psect	text67
  6604  003A44                     __ptext67:
  6605                           	callstack 0
  6606  003A44                     _GetRxFifoDepth:
  6607                           	callstack 118
  6608                           
  6609                           ;incstack = 0
  6610                           ;GetRxFifoDepth@validChannel stored from wreg
  6611  003A44  6E02               	movwf	GetRxFifoDepth@validChannel^(0+1280),c
  6612  003A46                     
  6613                           ;mcc_generated_files/can1.c: 333: static uint8_t GetRxFifoDepth(uint8_t validChannel);mc
      +                          c_generated_files/can1.c: 334: {;mcc_generated_files/can1.c: 335:     return 1U + (FIFO[
      +                          validChannel].CONT & 0x1F);
  6614  003A46  5002               	movf	GetRxFifoDepth@validChannel^(0+1280),w,c
  6615  003A48  0D0C               	mullw	12
  6616  003A4A  0E53               	movlw	83
  6617  003A4C  24F3               	addwf	243,w,c
  6618  003A4E  6ED9               	movwf	fsr2l,c
  6619  003A50  0E01               	movlw	1
  6620  003A52  20F4               	addwfc	prodh,w,c
  6621  003A54  6EDA               	movwf	fsr2h,c
  6622  003A56  50DF               	movf	indf2,w,c
  6623  003A58  6E01               	movwf	??_GetRxFifoDepth^(0+1280),c
  6624  003A5A  0E1F               	movlw	31
  6625  003A5C  1601               	andwf	??_GetRxFifoDepth^(0+1280),f,c
  6626  003A5E  2801               	incf	??_GetRxFifoDepth^(0+1280),w,c
  6627  003A60  0012               	return		;funcret
  6628  003A62                     __end_of_GetRxFifoDepth:
  6629                           	callstack 0
  6630                           
  6631 ;; *************** function _CAN1_ISR *****************
  6632 ;; Defined at:
  6633 ;;		line 679 in file "mcc_generated_files/can1.c"
  6634 ;; Parameters:    Size  Location     Type
  6635 ;;		None
  6636 ;; Auto vars:     Size  Location     Type
  6637 ;;		None
  6638 ;; Return value:  Size  Location     Type
  6639 ;;                  1    wreg      void 
  6640 ;; Registers used:
  6641 ;;		wreg, pclath, tosl, cstack
  6642 ;; Tracked objects:
  6643 ;;		On entry : 0/0
  6644 ;;		On exit  : 0/0
  6645 ;;		Unchanged: 0/0
  6646 ;; Data sizes:     COMRAM   BANK5   BANK6   BANK7   BANK8   BANK9  BANK10  BANK11  BANK12  BANK13  BANK14  BANK15  BANK1
      +6  BANK17  BANK18  BANK19  BANK20  BANK21  BANK22  BANK23  BANK24  BANK25  BANK26  BANK27  BANK28  BANK29  BANK30  BANK3
      +1  BANK32  BANK33  BANK34  BANK35  BANK36  BANK37
  6647 ;;      Params:         0       0       0       0       0       0       0       0       0       0       0       0       
      +0       0       0       0       0       0       0       0       0       0       0       0       0       0       0       
      +0       0       0       0       0       0       0
  6648 ;;      Locals:         0       0       0       0       0       0       0       0       0       0       0       0       
      +0       0       0       0       0       0       0       0       0       0       0       0       0       0       0       
      +0       0       0       0       0       0       0
  6649 ;;      Temps:          0       0       0       0       0       0       0       0       0       0       0       0       
      +0       0       0       0       0       0       0       0       0       0       0       0       0       0       0       
      +0       0       0       0       0       0       0
  6650 ;;      Totals:         0       0       0       0       0       0       0       0       0       0       0       0       
      +0       0       0       0       0       0       0       0       0       0       0       0       0       0       0       
      +0       0       0       0       0       0       0
  6651 ;;Total ram usage:        0 bytes
  6652 ;; Hardware stack levels used:    1
  6653 ;; Hardware stack levels required when called:    1
  6654 ;; This function calls:
  6655 ;;		Absolute function
  6656 ;;		_DefaultBusErrorHandler
  6657 ;;		_DefaultBusWakeUpActivityHandler
  6658 ;;		_DefaultInvalidMessageHandler
  6659 ;;		_DefaultModeChangeHandler
  6660 ;;		_DefaultRxBufferOverflowHandler
  6661 ;;		_DefaultSystemErrorHandler
  6662 ;;		_DefaultTxAttemptHandler
  6663 ;; This function is called by:
  6664 ;;		_INTERRUPT_InterruptManager
  6665 ;; This function uses a non-reentrant model
  6666 ;;
  6667                           
  6668                           	psect	text68
  6669  002A94                     __ptext68:
  6670                           	callstack 0
  6671  002A94                     _CAN1_ISR:
  6672                           	callstack 121
  6673  002A94                     
  6674                           ;mcc_generated_files/can1.c: 681:     if (1 == C1INTHbits.IVMIF)
  6675  002A94  0101               	movlb	1	; () banked
  6676  002A96  AF1D               	btfss	29,7,b	;volatile
  6677  002A98  EF50  F015         	goto	i2u197_41
  6678  002A9C  EF52  F015         	goto	i2u197_40
  6679  002AA0                     i2u197_41:
  6680  002AA0  EF61  F015         	goto	i2l3114
  6681  002AA4                     i2u197_40:
  6682  002AA4                     
  6683                           ; BSR set to: 1
  6684                           ;mcc_generated_files/can1.c: 682:     {;mcc_generated_files/can1.c: 683:         CAN1_In
      +                          validMessageHandler();
  6685  002AA4  D802               	call	i2u198_48
  6686  002AA6  EF5F  F015         	goto	i2u198_49
  6687  002AAA                     i2u198_48:
  6688  002AAA  0005               	push	
  6689  002AAC  6EFA               	movwf	pclath,c
  6690  002AAE  0105               	movlb	5	; () banked
  6691  002AB0  516C               	movf	_CAN1_InvalidMessageHandler& (0+255),w,b
  6692  002AB2  6EFD               	movwf	tosl,c
  6693  002AB4  516D               	movf	(_CAN1_InvalidMessageHandler+1)& (0+255),w,b
  6694  002AB6  6EFE               	movwf	tosh,c
  6695  002AB8  6AFF               	clrf	tosu,c
  6696  002ABA  50FA               	movf	pclath,w,c
  6697  002ABC  0012               	return		;indir
  6698  002ABE                     i2u198_49:
  6699  002ABE                     
  6700                           ;mcc_generated_files/can1.c: 684:         C1INTHbits.IVMIF = 0;
  6701  002ABE  0101               	movlb	1	; () banked
  6702  002AC0  9F1D               	bcf	29,7,b	;volatile
  6703  002AC2                     i2l3114:
  6704                           
  6705                           ; BSR set to: 1
  6706                           ;mcc_generated_files/can1.c: 687:     if (1 == C1INTHbits.WAKIF)
  6707  002AC2  AD1D               	btfss	29,6,b	;volatile
  6708  002AC4  EF66  F015         	goto	i2u199_41
  6709  002AC8  EF68  F015         	goto	i2u199_40
  6710  002ACC                     i2u199_41:
  6711  002ACC  EF77  F015         	goto	i2l3120
  6712  002AD0                     i2u199_40:
  6713  002AD0                     
  6714                           ; BSR set to: 1
  6715                           ;mcc_generated_files/can1.c: 688:     {;mcc_generated_files/can1.c: 689:         CAN1_Bu
      +                          sWakeUpActivityHandler();
  6716  002AD0  D802               	call	i2u200_48
  6717  002AD2  EF75  F015         	goto	i2u200_49
  6718  002AD6                     i2u200_48:
  6719  002AD6  0005               	push	
  6720  002AD8  6EFA               	movwf	pclath,c
  6721  002ADA  0105               	movlb	5	; () banked
  6722  002ADC  516A               	movf	_CAN1_BusWakeUpActivityHandler& (0+255),w,b
  6723  002ADE  6EFD               	movwf	tosl,c
  6724  002AE0  516B               	movf	(_CAN1_BusWakeUpActivityHandler+1)& (0+255),w,b
  6725  002AE2  6EFE               	movwf	tosh,c
  6726  002AE4  6AFF               	clrf	tosu,c
  6727  002AE6  50FA               	movf	pclath,w,c
  6728  002AE8  0012               	return		;indir
  6729  002AEA                     i2u200_49:
  6730  002AEA                     
  6731                           ;mcc_generated_files/can1.c: 690:         C1INTHbits.WAKIF = 0;
  6732  002AEA  0101               	movlb	1	; () banked
  6733  002AEC  9D1D               	bcf	29,6,b	;volatile
  6734  002AEE                     i2l3120:
  6735                           
  6736                           ; BSR set to: 1
  6737                           ;mcc_generated_files/can1.c: 693:     if (1 == C1INTHbits.CERRIF)
  6738  002AEE  AB1D               	btfss	29,5,b	;volatile
  6739  002AF0  EF7C  F015         	goto	i2u201_41
  6740  002AF4  EF7E  F015         	goto	i2u201_40
  6741  002AF8                     i2u201_41:
  6742  002AF8  EF8D  F015         	goto	i2l3126
  6743  002AFC                     i2u201_40:
  6744  002AFC                     
  6745                           ; BSR set to: 1
  6746                           ;mcc_generated_files/can1.c: 694:     {;mcc_generated_files/can1.c: 695:         CAN1_Bu
      +                          sErrorHandler();
  6747  002AFC  D802               	call	i2u202_48
  6748  002AFE  EF8B  F015         	goto	i2u202_49
  6749  002B02                     i2u202_48:
  6750  002B02  0005               	push	
  6751  002B04  6EFA               	movwf	pclath,c
  6752  002B06  0105               	movlb	5	; () banked
  6753  002B08  5168               	movf	_CAN1_BusErrorHandler& (0+255),w,b
  6754  002B0A  6EFD               	movwf	tosl,c
  6755  002B0C  5169               	movf	(_CAN1_BusErrorHandler+1)& (0+255),w,b
  6756  002B0E  6EFE               	movwf	tosh,c
  6757  002B10  6AFF               	clrf	tosu,c
  6758  002B12  50FA               	movf	pclath,w,c
  6759  002B14  0012               	return		;indir
  6760  002B16                     i2u202_49:
  6761  002B16                     
  6762                           ;mcc_generated_files/can1.c: 696:         C1INTHbits.CERRIF = 0;
  6763  002B16  0101               	movlb	1	; () banked
  6764  002B18  9B1D               	bcf	29,5,b	;volatile
  6765  002B1A                     i2l3126:
  6766                           
  6767                           ; BSR set to: 1
  6768                           ;mcc_generated_files/can1.c: 699:     if (1 == C1INTLbits.MODIF)
  6769  002B1A  A71C               	btfss	28,3,b	;volatile
  6770  002B1C  EF92  F015         	goto	i2u203_41
  6771  002B20  EF94  F015         	goto	i2u203_40
  6772  002B24                     i2u203_41:
  6773  002B24  EFA3  F015         	goto	i2l3132
  6774  002B28                     i2u203_40:
  6775  002B28                     
  6776                           ; BSR set to: 1
  6777                           ;mcc_generated_files/can1.c: 700:     {;mcc_generated_files/can1.c: 701:         CAN1_Mo
      +                          deChangeHandler();
  6778  002B28  D802               	call	i2u204_48
  6779  002B2A  EFA1  F015         	goto	i2u204_49
  6780  002B2E                     i2u204_48:
  6781  002B2E  0005               	push	
  6782  002B30  6EFA               	movwf	pclath,c
  6783  002B32  0105               	movlb	5	; () banked
  6784  002B34  5166               	movf	_CAN1_ModeChangeHandler& (0+255),w,b
  6785  002B36  6EFD               	movwf	tosl,c
  6786  002B38  5167               	movf	(_CAN1_ModeChangeHandler+1)& (0+255),w,b
  6787  002B3A  6EFE               	movwf	tosh,c
  6788  002B3C  6AFF               	clrf	tosu,c
  6789  002B3E  50FA               	movf	pclath,w,c
  6790  002B40  0012               	return		;indir
  6791  002B42                     i2u204_49:
  6792  002B42                     
  6793                           ;mcc_generated_files/can1.c: 702:         C1INTLbits.MODIF = 0;
  6794  002B42  0101               	movlb	1	; () banked
  6795  002B44  971C               	bcf	28,3,b	;volatile
  6796  002B46                     i2l3132:
  6797                           
  6798                           ; BSR set to: 1
  6799                           ;mcc_generated_files/can1.c: 705:     if (1 == C1INTHbits.SERRIF)
  6800  002B46  A91D               	btfss	29,4,b	;volatile
  6801  002B48  EFA8  F015         	goto	i2u205_41
  6802  002B4C  EFAA  F015         	goto	i2u205_40
  6803  002B50                     i2u205_41:
  6804  002B50  EFB9  F015         	goto	i2l3138
  6805  002B54                     i2u205_40:
  6806  002B54                     
  6807                           ; BSR set to: 1
  6808                           ;mcc_generated_files/can1.c: 706:     {;mcc_generated_files/can1.c: 707:         CAN1_Sy
      +                          stemErrorHandler();
  6809  002B54  D802               	call	i2u206_48
  6810  002B56  EFB7  F015         	goto	i2u206_49
  6811  002B5A                     i2u206_48:
  6812  002B5A  0005               	push	
  6813  002B5C  6EFA               	movwf	pclath,c
  6814  002B5E  0105               	movlb	5	; () banked
  6815  002B60  5164               	movf	_CAN1_SystemErrorHandler& (0+255),w,b
  6816  002B62  6EFD               	movwf	tosl,c
  6817  002B64  5165               	movf	(_CAN1_SystemErrorHandler+1)& (0+255),w,b
  6818  002B66  6EFE               	movwf	tosh,c
  6819  002B68  6AFF               	clrf	tosu,c
  6820  002B6A  50FA               	movf	pclath,w,c
  6821  002B6C  0012               	return		;indir
  6822  002B6E                     i2u206_49:
  6823  002B6E                     
  6824                           ;mcc_generated_files/can1.c: 708:         C1INTHbits.SERRIF = 0;
  6825  002B6E  0101               	movlb	1	; () banked
  6826  002B70  991D               	bcf	29,4,b	;volatile
  6827  002B72                     i2l3138:
  6828                           
  6829                           ; BSR set to: 1
  6830                           ;mcc_generated_files/can1.c: 711:     if (1 == C1INTHbits.TXATIF)
  6831  002B72  A51D               	btfss	29,2,b	;volatile
  6832  002B74  EFBE  F015         	goto	i2u207_41
  6833  002B78  EFC0  F015         	goto	i2u207_40
  6834  002B7C                     i2u207_41:
  6835  002B7C  EFD6  F015         	goto	i2l329
  6836  002B80                     i2u207_40:
  6837  002B80                     
  6838                           ; BSR set to: 1
  6839                           ;mcc_generated_files/can1.c: 712:     {;mcc_generated_files/can1.c: 713:         CAN1_Tx
      +                          AttemptHandler();
  6840  002B80  D802               	call	i2u208_48
  6841  002B82  EFCD  F015         	goto	i2u208_49
  6842  002B86                     i2u208_48:
  6843  002B86  0005               	push	
  6844  002B88  6EFA               	movwf	pclath,c
  6845  002B8A  0105               	movlb	5	; () banked
  6846  002B8C  5162               	movf	_CAN1_TxAttemptHandler& (0+255),w,b
  6847  002B8E  6EFD               	movwf	tosl,c
  6848  002B90  5163               	movf	(_CAN1_TxAttemptHandler+1)& (0+255),w,b
  6849  002B92  6EFE               	movwf	tosh,c
  6850  002B94  6AFF               	clrf	tosu,c
  6851  002B96  50FA               	movf	pclath,w,c
  6852  002B98  0012               	return		;indir
  6853  002B9A                     i2u208_49:
  6854  002B9A                     
  6855                           ;mcc_generated_files/can1.c: 714:         if (1 == C1TXQSTALbits.TXATIF)
  6856  002B9A  0101               	movlb	1	; () banked
  6857  002B9C  A954               	btfss	84,4,b	;volatile
  6858  002B9E  EFD3  F015         	goto	i2u209_41
  6859  002BA2  EFD5  F015         	goto	i2u209_40
  6860  002BA6                     i2u209_41:
  6861  002BA6  EFD6  F015         	goto	i2l329
  6862  002BAA                     i2u209_40:
  6863  002BAA                     
  6864                           ; BSR set to: 1
  6865                           ;mcc_generated_files/can1.c: 715:         {;mcc_generated_files/can1.c: 716:            
      +                           C1TXQSTALbits.TXATIF = 0;
  6866  002BAA  9954               	bcf	84,4,b	;volatile
  6867  002BAC                     i2l329:
  6868                           
  6869                           ; BSR set to: 1
  6870                           ;mcc_generated_files/can1.c: 720:     if (1 == C1INTHbits.RXOVIF)
  6871  002BAC  A71D               	btfss	29,3,b	;volatile
  6872  002BAE  EFDB  F015         	goto	i2u210_41
  6873  002BB2  EFDD  F015         	goto	i2u210_40
  6874  002BB6                     i2u210_41:
  6875  002BB6  EFF3  F015         	goto	i2l331
  6876  002BBA                     i2u210_40:
  6877  002BBA                     
  6878                           ; BSR set to: 1
  6879                           ;mcc_generated_files/can1.c: 721:     {;mcc_generated_files/can1.c: 722:         CAN1_Rx
      +                          BufferOverflowHandler();
  6880  002BBA  D802               	call	i2u211_48
  6881  002BBC  EFEA  F015         	goto	i2u211_49
  6882  002BC0                     i2u211_48:
  6883  002BC0  0005               	push	
  6884  002BC2  6EFA               	movwf	pclath,c
  6885  002BC4  0105               	movlb	5	; () banked
  6886  002BC6  5160               	movf	_CAN1_RxBufferOverflowHandler& (0+255),w,b
  6887  002BC8  6EFD               	movwf	tosl,c
  6888  002BCA  5161               	movf	(_CAN1_RxBufferOverflowHandler+1)& (0+255),w,b
  6889  002BCC  6EFE               	movwf	tosh,c
  6890  002BCE  6AFF               	clrf	tosu,c
  6891  002BD0  50FA               	movf	pclath,w,c
  6892  002BD2  0012               	return		;indir
  6893  002BD4                     i2u211_49:
  6894  002BD4                     
  6895                           ;mcc_generated_files/can1.c: 723:         if (1 == C1FIFOSTA1Lbits.RXOVIF)
  6896  002BD4  0101               	movlb	1	; () banked
  6897  002BD6  A760               	btfss	96,3,b	;volatile
  6898  002BD8  EFF0  F015         	goto	i2u212_41
  6899  002BDC  EFF2  F015         	goto	i2u212_40
  6900  002BE0                     i2u212_41:
  6901  002BE0  EFF3  F015         	goto	i2l331
  6902  002BE4                     i2u212_40:
  6903  002BE4                     
  6904                           ; BSR set to: 1
  6905                           ;mcc_generated_files/can1.c: 724:         {;mcc_generated_files/can1.c: 725:            
      +                           C1FIFOSTA1Lbits.RXOVIF = 0;
  6906  002BE4  9760               	bcf	96,3,b	;volatile
  6907  002BE6                     i2l331:
  6908                           
  6909                           ; BSR set to: 1
  6910                           ;mcc_generated_files/can1.c: 729:     PIR0bits.CANIF = 0;
  6911  002BE6  9CAE               	bcf	174,6,c	;volatile
  6912  002BE8                     
  6913                           ; BSR set to: 1
  6914  002BE8  0012               	return		;funcret
  6915  002BEA                     __end_of_CAN1_ISR:
  6916                           	callstack 0
  6917                           
  6918 ;; *************** function _DefaultTxAttemptHandler *****************
  6919 ;; Defined at:
  6920 ;;		line 144 in file "mcc_generated_files/can1.c"
  6921 ;; Parameters:    Size  Location     Type
  6922 ;;		None
  6923 ;; Auto vars:     Size  Location     Type
  6924 ;;		None
  6925 ;; Return value:  Size  Location     Type
  6926 ;;                  1    wreg      void 
  6927 ;; Registers used:
  6928 ;;		None
  6929 ;; Tracked objects:
  6930 ;;		On entry : 0/0
  6931 ;;		On exit  : 0/0
  6932 ;;		Unchanged: 0/0
  6933 ;; Data sizes:     COMRAM   BANK5   BANK6   BANK7   BANK8   BANK9  BANK10  BANK11  BANK12  BANK13  BANK14  BANK15  BANK1
      +6  BANK17  BANK18  BANK19  BANK20  BANK21  BANK22  BANK23  BANK24  BANK25  BANK26  BANK27  BANK28  BANK29  BANK30  BANK3
      +1  BANK32  BANK33  BANK34  BANK35  BANK36  BANK37
  6934 ;;      Params:         0       0       0       0       0       0       0       0       0       0       0       0       
      +0       0       0       0       0       0       0       0       0       0       0       0       0       0       0       
      +0       0       0       0       0       0       0
  6935 ;;      Locals:         0       0       0       0       0       0       0       0       0       0       0       0       
      +0       0       0       0       0       0       0       0       0       0       0       0       0       0       0       
      +0       0       0       0       0       0       0
  6936 ;;      Temps:          0       0       0       0       0       0       0       0       0       0       0       0       
      +0       0       0       0       0       0       0       0       0       0       0       0       0       0       0       
      +0       0       0       0       0       0       0
  6937 ;;      Totals:         0       0       0       0       0       0       0       0       0       0       0       0       
      +0       0       0       0       0       0       0       0       0       0       0       0       0       0       0       
      +0       0       0       0       0       0       0
  6938 ;;Total ram usage:        0 bytes
  6939 ;; Hardware stack levels used:    1
  6940 ;; This function calls:
  6941 ;;		Nothing
  6942 ;; This function is called by:
  6943 ;;		_CAN1_ErrorNotificationInterruptEnable
  6944 ;;		_CAN1_ISR
  6945 ;; This function uses a non-reentrant model
  6946 ;;
  6947                           
  6948                           	psect	text69
  6949  003BDE                     __ptext69:
  6950                           	callstack 0
  6951  003BDE                     _DefaultTxAttemptHandler:
  6952                           	callstack 121
  6953  003BDE  0012               	return		;funcret
  6954  003BE0                     __end_of_DefaultTxAttemptHandler:
  6955                           	callstack 0
  6956                           
  6957 ;; *************** function _DefaultSystemErrorHandler *****************
  6958 ;; Defined at:
  6959 ;;		line 140 in file "mcc_generated_files/can1.c"
  6960 ;; Parameters:    Size  Location     Type
  6961 ;;		None
  6962 ;; Auto vars:     Size  Location     Type
  6963 ;;		None
  6964 ;; Return value:  Size  Location     Type
  6965 ;;                  1    wreg      void 
  6966 ;; Registers used:
  6967 ;;		None
  6968 ;; Tracked objects:
  6969 ;;		On entry : 0/0
  6970 ;;		On exit  : 0/0
  6971 ;;		Unchanged: 0/0
  6972 ;; Data sizes:     COMRAM   BANK5   BANK6   BANK7   BANK8   BANK9  BANK10  BANK11  BANK12  BANK13  BANK14  BANK15  BANK1
      +6  BANK17  BANK18  BANK19  BANK20  BANK21  BANK22  BANK23  BANK24  BANK25  BANK26  BANK27  BANK28  BANK29  BANK30  BANK3
      +1  BANK32  BANK33  BANK34  BANK35  BANK36  BANK37
  6973 ;;      Params:         0       0       0       0       0       0       0       0       0       0       0       0       
      +0       0       0       0       0       0       0       0       0       0       0       0       0       0       0       
      +0       0       0       0       0       0       0
  6974 ;;      Locals:         0       0       0       0       0       0       0       0       0       0       0       0       
      +0       0       0       0       0       0       0       0       0       0       0       0       0       0       0       
      +0       0       0       0       0       0       0
  6975 ;;      Temps:          0       0       0       0       0       0       0       0       0       0       0       0       
      +0       0       0       0       0       0       0       0       0       0       0       0       0       0       0       
      +0       0       0       0       0       0       0
  6976 ;;      Totals:         0       0       0       0       0       0       0       0       0       0       0       0       
      +0       0       0       0       0       0       0       0       0       0       0       0       0       0       0       
      +0       0       0       0       0       0       0
  6977 ;;Total ram usage:        0 bytes
  6978 ;; Hardware stack levels used:    1
  6979 ;; This function calls:
  6980 ;;		Nothing
  6981 ;; This function is called by:
  6982 ;;		_CAN1_ErrorNotificationInterruptEnable
  6983 ;;		_CAN1_ISR
  6984 ;; This function uses a non-reentrant model
  6985 ;;
  6986                           
  6987                           	psect	text70
  6988  003BE0                     __ptext70:
  6989                           	callstack 0
  6990  003BE0                     _DefaultSystemErrorHandler:
  6991                           	callstack 121
  6992  003BE0  0012               	return		;funcret
  6993  003BE2                     __end_of_DefaultSystemErrorHandler:
  6994                           	callstack 0
  6995                           
  6996 ;; *************** function _DefaultRxBufferOverflowHandler *****************
  6997 ;; Defined at:
  6998 ;;		line 148 in file "mcc_generated_files/can1.c"
  6999 ;; Parameters:    Size  Location     Type
  7000 ;;		None
  7001 ;; Auto vars:     Size  Location     Type
  7002 ;;		None
  7003 ;; Return value:  Size  Location     Type
  7004 ;;                  1    wreg      void 
  7005 ;; Registers used:
  7006 ;;		None
  7007 ;; Tracked objects:
  7008 ;;		On entry : 0/0
  7009 ;;		On exit  : 0/0
  7010 ;;		Unchanged: 0/0
  7011 ;; Data sizes:     COMRAM   BANK5   BANK6   BANK7   BANK8   BANK9  BANK10  BANK11  BANK12  BANK13  BANK14  BANK15  BANK1
      +6  BANK17  BANK18  BANK19  BANK20  BANK21  BANK22  BANK23  BANK24  BANK25  BANK26  BANK27  BANK28  BANK29  BANK30  BANK3
      +1  BANK32  BANK33  BANK34  BANK35  BANK36  BANK37
  7012 ;;      Params:         0       0       0       0       0       0       0       0       0       0       0       0       
      +0       0       0       0       0       0       0       0       0       0       0       0       0       0       0       
      +0       0       0       0       0       0       0
  7013 ;;      Locals:         0       0       0       0       0       0       0       0       0       0       0       0       
      +0       0       0       0       0       0       0       0       0       0       0       0       0       0       0       
      +0       0       0       0       0       0       0
  7014 ;;      Temps:          0       0       0       0       0       0       0       0       0       0       0       0       
      +0       0       0       0       0       0       0       0       0       0       0       0       0       0       0       
      +0       0       0       0       0       0       0
  7015 ;;      Totals:         0       0       0       0       0       0       0       0       0       0       0       0       
      +0       0       0       0       0       0       0       0       0       0       0       0       0       0       0       
      +0       0       0       0       0       0       0
  7016 ;;Total ram usage:        0 bytes
  7017 ;; Hardware stack levels used:    1
  7018 ;; This function calls:
  7019 ;;		Nothing
  7020 ;; This function is called by:
  7021 ;;		_CAN1_ErrorNotificationInterruptEnable
  7022 ;;		_CAN1_ISR
  7023 ;; This function uses a non-reentrant model
  7024 ;;
  7025                           
  7026                           	psect	text71
  7027  003BE2                     __ptext71:
  7028                           	callstack 0
  7029  003BE2                     _DefaultRxBufferOverflowHandler:
  7030                           	callstack 121
  7031  003BE2  0012               	return		;funcret
  7032  003BE4                     __end_of_DefaultRxBufferOverflowHandler:
  7033                           	callstack 0
  7034                           
  7035 ;; *************** function _DefaultModeChangeHandler *****************
  7036 ;; Defined at:
  7037 ;;		line 136 in file "mcc_generated_files/can1.c"
  7038 ;; Parameters:    Size  Location     Type
  7039 ;;		None
  7040 ;; Auto vars:     Size  Location     Type
  7041 ;;		None
  7042 ;; Return value:  Size  Location     Type
  7043 ;;                  1    wreg      void 
  7044 ;; Registers used:
  7045 ;;		None
  7046 ;; Tracked objects:
  7047 ;;		On entry : 0/0
  7048 ;;		On exit  : 0/0
  7049 ;;		Unchanged: 0/0
  7050 ;; Data sizes:     COMRAM   BANK5   BANK6   BANK7   BANK8   BANK9  BANK10  BANK11  BANK12  BANK13  BANK14  BANK15  BANK1
      +6  BANK17  BANK18  BANK19  BANK20  BANK21  BANK22  BANK23  BANK24  BANK25  BANK26  BANK27  BANK28  BANK29  BANK30  BANK3
      +1  BANK32  BANK33  BANK34  BANK35  BANK36  BANK37
  7051 ;;      Params:         0       0       0       0       0       0       0       0       0       0       0       0       
      +0       0       0       0       0       0       0       0       0       0       0       0       0       0       0       
      +0       0       0       0       0       0       0
  7052 ;;      Locals:         0       0       0       0       0       0       0       0       0       0       0       0       
      +0       0       0       0       0       0       0       0       0       0       0       0       0       0       0       
      +0       0       0       0       0       0       0
  7053 ;;      Temps:          0       0       0       0       0       0       0       0       0       0       0       0       
      +0       0       0       0       0       0       0       0       0       0       0       0       0       0       0       
      +0       0       0       0       0       0       0
  7054 ;;      Totals:         0       0       0       0       0       0       0       0       0       0       0       0       
      +0       0       0       0       0       0       0       0       0       0       0       0       0       0       0       
      +0       0       0       0       0       0       0
  7055 ;;Total ram usage:        0 bytes
  7056 ;; Hardware stack levels used:    1
  7057 ;; This function calls:
  7058 ;;		Nothing
  7059 ;; This function is called by:
  7060 ;;		_CAN1_ErrorNotificationInterruptEnable
  7061 ;;		_CAN1_ISR
  7062 ;; This function uses a non-reentrant model
  7063 ;;
  7064                           
  7065                           	psect	text72
  7066  003BE4                     __ptext72:
  7067                           	callstack 0
  7068  003BE4                     _DefaultModeChangeHandler:
  7069                           	callstack 121
  7070  003BE4  0012               	return		;funcret
  7071  003BE6                     __end_of_DefaultModeChangeHandler:
  7072                           	callstack 0
  7073                           
  7074 ;; *************** function _DefaultInvalidMessageHandler *****************
  7075 ;; Defined at:
  7076 ;;		line 124 in file "mcc_generated_files/can1.c"
  7077 ;; Parameters:    Size  Location     Type
  7078 ;;		None
  7079 ;; Auto vars:     Size  Location     Type
  7080 ;;		None
  7081 ;; Return value:  Size  Location     Type
  7082 ;;                  1    wreg      void 
  7083 ;; Registers used:
  7084 ;;		None
  7085 ;; Tracked objects:
  7086 ;;		On entry : 0/0
  7087 ;;		On exit  : 0/0
  7088 ;;		Unchanged: 0/0
  7089 ;; Data sizes:     COMRAM   BANK5   BANK6   BANK7   BANK8   BANK9  BANK10  BANK11  BANK12  BANK13  BANK14  BANK15  BANK1
      +6  BANK17  BANK18  BANK19  BANK20  BANK21  BANK22  BANK23  BANK24  BANK25  BANK26  BANK27  BANK28  BANK29  BANK30  BANK3
      +1  BANK32  BANK33  BANK34  BANK35  BANK36  BANK37
  7090 ;;      Params:         0       0       0       0       0       0       0       0       0       0       0       0       
      +0       0       0       0       0       0       0       0       0       0       0       0       0       0       0       
      +0       0       0       0       0       0       0
  7091 ;;      Locals:         0       0       0       0       0       0       0       0       0       0       0       0       
      +0       0       0       0       0       0       0       0       0       0       0       0       0       0       0       
      +0       0       0       0       0       0       0
  7092 ;;      Temps:          0       0       0       0       0       0       0       0       0       0       0       0       
      +0       0       0       0       0       0       0       0       0       0       0       0       0       0       0       
      +0       0       0       0       0       0       0
  7093 ;;      Totals:         0       0       0       0       0       0       0       0       0       0       0       0       
      +0       0       0       0       0       0       0       0       0       0       0       0       0       0       0       
      +0       0       0       0       0       0       0
  7094 ;;Total ram usage:        0 bytes
  7095 ;; Hardware stack levels used:    1
  7096 ;; This function calls:
  7097 ;;		Nothing
  7098 ;; This function is called by:
  7099 ;;		_CAN1_ErrorNotificationInterruptEnable
  7100 ;;		_CAN1_ISR
  7101 ;; This function uses a non-reentrant model
  7102 ;;
  7103                           
  7104                           	psect	text73
  7105  003BE6                     __ptext73:
  7106                           	callstack 0
  7107  003BE6                     _DefaultInvalidMessageHandler:
  7108                           	callstack 121
  7109  003BE6  0012               	return		;funcret
  7110  003BE8                     __end_of_DefaultInvalidMessageHandler:
  7111                           	callstack 0
  7112                           
  7113 ;; *************** function _DefaultBusWakeUpActivityHandler *****************
  7114 ;; Defined at:
  7115 ;;		line 128 in file "mcc_generated_files/can1.c"
  7116 ;; Parameters:    Size  Location     Type
  7117 ;;		None
  7118 ;; Auto vars:     Size  Location     Type
  7119 ;;		None
  7120 ;; Return value:  Size  Location     Type
  7121 ;;                  1    wreg      void 
  7122 ;; Registers used:
  7123 ;;		None
  7124 ;; Tracked objects:
  7125 ;;		On entry : 0/0
  7126 ;;		On exit  : 0/0
  7127 ;;		Unchanged: 0/0
  7128 ;; Data sizes:     COMRAM   BANK5   BANK6   BANK7   BANK8   BANK9  BANK10  BANK11  BANK12  BANK13  BANK14  BANK15  BANK1
      +6  BANK17  BANK18  BANK19  BANK20  BANK21  BANK22  BANK23  BANK24  BANK25  BANK26  BANK27  BANK28  BANK29  BANK30  BANK3
      +1  BANK32  BANK33  BANK34  BANK35  BANK36  BANK37
  7129 ;;      Params:         0       0       0       0       0       0       0       0       0       0       0       0       
      +0       0       0       0       0       0       0       0       0       0       0       0       0       0       0       
      +0       0       0       0       0       0       0
  7130 ;;      Locals:         0       0       0       0       0       0       0       0       0       0       0       0       
      +0       0       0       0       0       0       0       0       0       0       0       0       0       0       0       
      +0       0       0       0       0       0       0
  7131 ;;      Temps:          0       0       0       0       0       0       0       0       0       0       0       0       
      +0       0       0       0       0       0       0       0       0       0       0       0       0       0       0       
      +0       0       0       0       0       0       0
  7132 ;;      Totals:         0       0       0       0       0       0       0       0       0       0       0       0       
      +0       0       0       0       0       0       0       0       0       0       0       0       0       0       0       
      +0       0       0       0       0       0       0
  7133 ;;Total ram usage:        0 bytes
  7134 ;; Hardware stack levels used:    1
  7135 ;; This function calls:
  7136 ;;		Nothing
  7137 ;; This function is called by:
  7138 ;;		_CAN1_ErrorNotificationInterruptEnable
  7139 ;;		_CAN1_ISR
  7140 ;; This function uses a non-reentrant model
  7141 ;;
  7142                           
  7143                           	psect	text74
  7144  003BE8                     __ptext74:
  7145                           	callstack 0
  7146  003BE8                     _DefaultBusWakeUpActivityHandler:
  7147                           	callstack 121
  7148  003BE8  0012               	return		;funcret
  7149  003BEA                     __end_of_DefaultBusWakeUpActivityHandler:
  7150                           	callstack 0
  7151                           
  7152 ;; *************** function _DefaultBusErrorHandler *****************
  7153 ;; Defined at:
  7154 ;;		line 132 in file "mcc_generated_files/can1.c"
  7155 ;; Parameters:    Size  Location     Type
  7156 ;;		None
  7157 ;; Auto vars:     Size  Location     Type
  7158 ;;		None
  7159 ;; Return value:  Size  Location     Type
  7160 ;;                  1    wreg      void 
  7161 ;; Registers used:
  7162 ;;		None
  7163 ;; Tracked objects:
  7164 ;;		On entry : 0/0
  7165 ;;		On exit  : 0/0
  7166 ;;		Unchanged: 0/0
  7167 ;; Data sizes:     COMRAM   BANK5   BANK6   BANK7   BANK8   BANK9  BANK10  BANK11  BANK12  BANK13  BANK14  BANK15  BANK1
      +6  BANK17  BANK18  BANK19  BANK20  BANK21  BANK22  BANK23  BANK24  BANK25  BANK26  BANK27  BANK28  BANK29  BANK30  BANK3
      +1  BANK32  BANK33  BANK34  BANK35  BANK36  BANK37
  7168 ;;      Params:         0       0       0       0       0       0       0       0       0       0       0       0       
      +0       0       0       0       0       0       0       0       0       0       0       0       0       0       0       
      +0       0       0       0       0       0       0
  7169 ;;      Locals:         0       0       0       0       0       0       0       0       0       0       0       0       
      +0       0       0       0       0       0       0       0       0       0       0       0       0       0       0       
      +0       0       0       0       0       0       0
  7170 ;;      Temps:          0       0       0       0       0       0       0       0       0       0       0       0       
      +0       0       0       0       0       0       0       0       0       0       0       0       0       0       0       
      +0       0       0       0       0       0       0
  7171 ;;      Totals:         0       0       0       0       0       0       0       0       0       0       0       0       
      +0       0       0       0       0       0       0       0       0       0       0       0       0       0       0       
      +0       0       0       0       0       0       0
  7172 ;;Total ram usage:        0 bytes
  7173 ;; Hardware stack levels used:    1
  7174 ;; This function calls:
  7175 ;;		Nothing
  7176 ;; This function is called by:
  7177 ;;		_CAN1_ErrorNotificationInterruptEnable
  7178 ;;		_CAN1_ISR
  7179 ;; This function uses a non-reentrant model
  7180 ;;
  7181                           
  7182                           	psect	text75
  7183  003BEA                     __ptext75:
  7184                           	callstack 0
  7185  003BEA                     _DefaultBusErrorHandler:
  7186                           	callstack 121
  7187  003BEA  0012               	return		;funcret
  7188  003BEC                     __end_of_DefaultBusErrorHandler:
  7189                           	callstack 0
  7190                           
  7191                           ;
  7192                           ; Interrupt Vector Table @ 0x8
  7193                           ;
  7194                           
  7195                           	psect	ivt0x8
  7196  000008                     __pivt0x8:
  7197                           	callstack 0
  7198  000008                     ivt0x8_base:
  7199                           	callstack 0
  7200                           
  7201                           ; high-priority vector
  7202  000008  EFEA  F018         	goto	_INTERRUPT_InterruptManager
  7203  000018                     	org	16
  7204                           
  7205                           ; low-priority vector
  7206  000018  00FF               	reset	
  7207                           
  7208                           	psect	text76
  7209  000000                     __ptext76:
  7210                           	callstack 0
  7211  000000                     
  7212                           	psect	rparam
  7213  0000                     
  7214                           	psect	idloc
  7215                           
  7216                           ;Config register IDLOC0 @ 0x200000
  7217                           ;	unspecified, using default values
  7218  200000                     	org	2097152
  7219  200000  0FFF               	dw	4095
  7220                           
  7221                           ;Config register IDLOC1 @ 0x200002
  7222                           ;	unspecified, using default values
  7223  200002                     	org	2097154
  7224  200002  0FFF               	dw	4095
  7225                           
  7226                           ;Config register IDLOC2 @ 0x200004
  7227                           ;	unspecified, using default values
  7228  200004                     	org	2097156
  7229  200004  0FFF               	dw	4095
  7230                           
  7231                           ;Config register IDLOC3 @ 0x200006
  7232                           ;	unspecified, using default values
  7233  200006                     	org	2097158
  7234  200006  0FFF               	dw	4095
  7235                           
  7236                           ;Config register IDLOC4 @ 0x200008
  7237                           ;	unspecified, using default values
  7238  200008                     	org	2097160
  7239  200008  0FFF               	dw	4095
  7240                           
  7241                           ;Config register IDLOC5 @ 0x20000A
  7242                           ;	unspecified, using default values
  7243  20000A                     	org	2097162
  7244  20000A  0FFF               	dw	4095
  7245                           
  7246                           ;Config register IDLOC6 @ 0x20000C
  7247                           ;	unspecified, using default values
  7248  20000C                     	org	2097164
  7249  20000C  0FFF               	dw	4095
  7250                           
  7251                           ;Config register IDLOC7 @ 0x20000E
  7252                           ;	unspecified, using default values
  7253  20000E                     	org	2097166
  7254  20000E  0FFF               	dw	4095
  7255                           
  7256                           ;Config register IDLOC8 @ 0x200010
  7257                           ;	unspecified, using default values
  7258  200010                     	org	2097168
  7259  200010  0FFF               	dw	4095
  7260                           
  7261                           ;Config register IDLOC9 @ 0x200012
  7262                           ;	unspecified, using default values
  7263  200012                     	org	2097170
  7264  200012  0FFF               	dw	4095
  7265                           
  7266                           ;Config register IDLOC10 @ 0x200014
  7267                           ;	unspecified, using default values
  7268  200014                     	org	2097172
  7269  200014  0FFF               	dw	4095
  7270                           
  7271                           ;Config register IDLOC11 @ 0x200016
  7272                           ;	unspecified, using default values
  7273  200016                     	org	2097174
  7274  200016  0FFF               	dw	4095
  7275                           
  7276                           ;Config register IDLOC12 @ 0x200018
  7277                           ;	unspecified, using default values
  7278  200018                     	org	2097176
  7279  200018  0FFF               	dw	4095
  7280                           
  7281                           ;Config register IDLOC13 @ 0x20001A
  7282                           ;	unspecified, using default values
  7283  20001A                     	org	2097178
  7284  20001A  0FFF               	dw	4095
  7285                           
  7286                           ;Config register IDLOC14 @ 0x20001C
  7287                           ;	unspecified, using default values
  7288  20001C                     	org	2097180
  7289  20001C  0FFF               	dw	4095
  7290                           
  7291                           ;Config register IDLOC15 @ 0x20001E
  7292                           ;	unspecified, using default values
  7293  20001E                     	org	2097182
  7294  20001E  0FFF               	dw	4095
  7295                           
  7296                           	psect	config
  7297                           
  7298                           ;Config register CONFIG1 @ 0x300000
  7299                           ;	External Oscillator Selection
  7300                           ;	FEXTOSC = HS, HS (crystal oscillator) above 8 MHz
  7301                           ;	Reset Oscillator Selection
  7302                           ;	RSTOSC = EXTOSC, EXTOSC operating per FEXTOSC bits (device manufacturing default)
  7303  300000                     	org	3145728
  7304  300000  FA                 	db	250
  7305                           
  7306                           ;Config register CONFIG2 @ 0x300001
  7307                           ;	Clock out Enable bit
  7308                           ;	CLKOUTEN = OFF, CLKOUT function is disabled
  7309                           ;	PRLOCKED One-Way Set Enable bit
  7310                           ;	PR1WAY = ON, PRLOCKED bit can be cleared and set only once
  7311                           ;	Clock Switch Enable bit
  7312                           ;	CSWEN = ON, Writing to NOSC and NDIV is allowed
  7313                           ;	JTAG Enable bit
  7314                           ;	JTAGEN = OFF, Disable JTAG Boundary Scan mode, JTAG pins revert to user functions
  7315                           ;	Fail-Safe Clock Monitor Enable bit
  7316                           ;	FCMEN = ON, Fail-Safe Clock Monitor enabled
  7317                           ;	Fail-Safe Clock Monitor -Primary XTAL Enable bit
  7318                           ;	FCMENP = ON, FSCM timer will set FSCMP bit and OSFIF interrupt on Primary XTAL failure
  7319                           ;	Fail-Safe Clock Monitor -Secondary XTAL Enable bit
  7320                           ;	FCMENS = ON, FSCM timer will set FSCMS bit and OSFIF interrupt on Secondary XTAL failu
      +                          re
  7321  300001                     	org	3145729
  7322  300001  EF                 	db	239
  7323                           
  7324                           ;Config register CONFIG3 @ 0x300002
  7325                           ;	MCLR Enable bit
  7326                           ;	MCLRE = EXTMCLR, If LVP = 0, MCLR pin is MCLR; If LVP = 1, RE3 pin function is MCLR
  7327                           ;	Power-up timer selection bits
  7328                           ;	PWRTS = PWRT_OFF, PWRT is disabled
  7329                           ;	Multi-vector enable bit
  7330                           ;	MVECEN = OFF, Interrupt contoller does not use vector table to prioritze interrupts
  7331                           ;	IVTLOCK bit One-way set enable bit
  7332                           ;	IVT1WAY = ON, IVTLOCKED bit can be cleared and set only once
  7333                           ;	Low Power BOR Enable bit
  7334                           ;	LPBOREN = OFF, Low-Power BOR disabled
  7335                           ;	Brown-out Reset Enable bits
  7336                           ;	BOREN = SBORDIS, Brown-out Reset enabled , SBOREN bit is ignored
  7337  300002                     	org	3145730
  7338  300002  F7                 	db	247
  7339                           
  7340                           ;Config register CONFIG4 @ 0x300003
  7341                           ;	Brown-out Reset Voltage Selection bits
  7342                           ;	BORV = VBOR_1P9, Brown-out Reset Voltage (VBOR) set to 1.9V
  7343                           ;	ZCD Disable bit
  7344                           ;	ZCD = OFF, ZCD module is disabled. ZCD can be enabled by setting the ZCDSEN bit of ZCD
      +                          CON
  7345                           ;	PPSLOCK bit One-Way Set Enable bit
  7346                           ;	PPS1WAY = ON, PPSLOCKED bit can be cleared and set only once; PPS registers remain loc
      +                          ked after one clear/set cycle
  7347                           ;	Stack Full/Underflow Reset Enable bit
  7348                           ;	STVREN = ON, Stack full/underflow will cause Reset
  7349                           ;	Low Voltage Programming Enable bit
  7350                           ;	LVP = OFF, HV on MCLR/VPP must be used for programming
  7351                           ;	Extended Instruction Set Enable bit
  7352                           ;	XINST = OFF, Extended Instruction Set and Indexed Addressing Mode disabled
  7353  300003                     	org	3145731
  7354  300003  DF                 	db	223
  7355                           
  7356                           ;Config register CONFIG5 @ 0x300004
  7357                           ;	WDT Period selection bits
  7358                           ;	WDTCPS = WDTCPS_31, Divider ratio 1:65536; software control of WDTPS
  7359                           ;	WDT operating mode
  7360                           ;	WDTE = OFF, WDT Disabled; SWDTEN is ignored
  7361  300004                     	org	3145732
  7362  300004  9F                 	db	159
  7363                           
  7364                           ;Config register CONFIG6 @ 0x300005
  7365                           ;	WDT Window Select bits
  7366                           ;	WDTCWS = WDTCWS_7, window always open (100%); software control; keyed access not requi
      +                          red
  7367                           ;	WDT input clock selector
  7368                           ;	WDTCCS = SC, Software Control
  7369  300005                     	org	3145733
  7370  300005  FF                 	db	255
  7371                           
  7372                           ;Config register CONFIG7 @ 0x300006
  7373                           ;	Boot Block Size selection bits
  7374                           ;	BBSIZE = BBSIZE_512, Boot Block size is 512 words
  7375                           ;	Boot Block enable bit
  7376                           ;	BBEN = OFF, Boot block disabled
  7377                           ;	Storage Area Flash enable bit
  7378                           ;	SAFEN = OFF, SAF disabled
  7379  300006                     	org	3145734
  7380  300006  FF                 	db	255
  7381                           
  7382                           ;Config register CONFIG8 @ 0x300007
  7383                           ;	Boot Block Write Protection bit
  7384                           ;	WRTB = OFF, Boot Block not Write protected
  7385                           ;	Configuration Register Write Protection bit
  7386                           ;	WRTC = OFF, Configuration registers not Write protected
  7387                           ;	Data EEPROM Write Protection bit
  7388                           ;	WRTD = OFF, Data EEPROM not Write protected
  7389                           ;	SAF Write protection bit
  7390                           ;	WRTSAF = OFF, SAF not Write Protected
  7391                           ;	Application Block write protection bit
  7392                           ;	WRTAPP = OFF, Application Block not write protected
  7393  300007                     	org	3145735
  7394  300007  FF                 	db	255
  7395                           
  7396                           ;Config register CONFIG9 @ 0x300008
  7397                           ;	CRC on boot output pin selection
  7398                           ;	BOOTPINSEL = RC5, CRC on boot output pin is RC5
  7399                           ;	CRC on boot output pin enable bit
  7400                           ;	BPEN = OFF, CRC on boot output pin disabled
  7401                           ;	CRC on boot output pin open drain bit
  7402                           ;	ODCON = OFF, Pin drives both high-going and low-going signals
  7403  300008                     	org	3145736
  7404  300008  FF                 	db	255
  7405                           
  7406                           ;Config register CONFIG10 @ 0x300009
  7407                           ;	PFM and Data EEPROM Code Protection bit
  7408                           ;	CP = OFF, PFM and Data EEPROM code protection disabled
  7409  300009                     	org	3145737
  7410  300009  FF                 	db	255
  7411                           
  7412                           ;Config register CONFIG11 @ 0x30000A
  7413                           ;	CRC on boot scan enable for boot area
  7414                           ;	BOOTSCEN = OFF, CRC on boot will not include the boot area of program memory in its ca
      +                          lculation
  7415                           ;	CRC on boot Continue on Error for boot areas bit
  7416                           ;	BOOTCOE = HALT, CRC on boot will stop device if error is detected in boot areas
  7417                           ;	CRC on boot application code scan enable
  7418                           ;	APPSCEN = OFF, CRC on boot will not include the application area of program memory in 
      +                          its calculation
  7419                           ;	CRC on boot SAF area scan enable
  7420                           ;	SAFSCEN = OFF, CRC on boot will not include the SAF area of program memory in its calc
      +                          ulation
  7421                           ;	CRC on boot Data EEPROM scan enable
  7422                           ;	DATASCEN = OFF, CRC on boot will not include data EEPROM in its calculation
  7423                           ;	CRC on boot Config fuses scan enable
  7424                           ;	CFGSCEN = OFF, CRC on boot will not include the configuration fuses in its calculation
  7425                           ;	CRC on boot Continue on Error for non-boot areas bit
  7426                           ;	COE = HALT, CRC on boot will stop device if error is detected in non-boot areas
  7427                           ;	Boot on CRC Enable bit
  7428                           ;	BOOTPOR = OFF, CRC on boot will not run
  7429  30000A                     	org	3145738
  7430  30000A  FF                 	db	255
  7431                           
  7432                           ;Config register CONFIG12 @ 0x30000B
  7433                           ;	Boot Sector Polynomial for CRC on boot bits 31-24
  7434                           ;	BCRCPOLT = hFF, Bits 31:24 of BCRCPOL are 0xFF
  7435  30000B                     	org	3145739
  7436  30000B  FF                 	db	255
  7437                           
  7438                           ;Config register CONFIG13 @ 0x30000C
  7439                           ;	Boot Sector Polynomial for CRC on boot bits 23-16
  7440                           ;	BCRCPOLU = hFF, Bits 23:16 of BCRCPOL are 0xFF
  7441  30000C                     	org	3145740
  7442  30000C  FF                 	db	255
  7443                           
  7444                           ;Config register CONFIG14 @ 0x30000D
  7445                           ;	Boot Sector Polynomial for CRC on boot bits 15-8
  7446                           ;	BCRCPOLH = hFF, Bits 15:8 of BCRCPOL are 0xFF
  7447  30000D                     	org	3145741
  7448  30000D  FF                 	db	255
  7449                           
  7450                           ;Config register CONFIG15 @ 0x30000E
  7451                           ;	Boot Sector Polynomial for CRC on boot bits 7-0
  7452                           ;	BCRCPOLL = hFF, Bits 7:0 of BCRCPOL are 0xFF
  7453  30000E                     	org	3145742
  7454  30000E  FF                 	db	255
  7455                           
  7456                           ;Config register CONFIG16 @ 0x30000F
  7457                           ;	Boot Sector Seed for CRC on boot bits 31-24
  7458                           ;	BCRCSEEDT = hFF, Bits 31:24 of BCRCSEED are 0xFF
  7459  30000F                     	org	3145743
  7460  30000F  FF                 	db	255
  7461                           
  7462                           ;Config register CONFIG17 @ 0x300010
  7463                           ;	Boot Sector Seed for CRC on boot bits 23-16
  7464                           ;	BCRCSEEDU = hFF, Bits 23:16 of BCRCSEED are 0xFF
  7465  300010                     	org	3145744
  7466  300010  FF                 	db	255
  7467                           
  7468                           ;Config register CONFIG18 @ 0x300011
  7469                           ;	Boot Sector Seed for CRC on boot bits 15-8
  7470                           ;	BCRCSEEDH = hFF, Bits 15:8 of BCRCSEED are 0xFF
  7471  300011                     	org	3145745
  7472  300011  FF                 	db	255
  7473                           
  7474                           ;Config register CONFIG19 @ 0x300012
  7475                           ;	Boot Sector Seed for CRC on boot bits 7-0
  7476                           ;	BCRCSEEDL = hFF, Bits 7:0 of BCRCSEED are 0xFF
  7477  300012                     	org	3145746
  7478  300012  FF                 	db	255
  7479                           
  7480                           ;Config register CONFIG20 @ 0x300013
  7481                           ;	unspecified, using default values
  7482                           ;	Boot Sector Expected Result for CRC on boot bits 31-24
  7483                           ;	BCRCEREST = 0xFF, unprogrammed default
  7484  300013                     	org	3145747
  7485  300013  FF                 	db	255
  7486                           
  7487                           ;Config register CONFIG21 @ 0x300014
  7488                           ;	unspecified, using default values
  7489                           ;	Boot Sector Expected Result for CRC on boot bits 23-16
  7490                           ;	BCRCERESU = 0xFF, unprogrammed default
  7491  300014                     	org	3145748
  7492  300014  FF                 	db	255
  7493                           
  7494                           ;Config register CONFIG22 @ 0x300015
  7495                           ;	unspecified, using default values
  7496                           ;	Boot Sector Expected Result for CRC on boot bits 15-8
  7497                           ;	BCRCERESH = 0xFF, unprogrammed default
  7498  300015                     	org	3145749
  7499  300015  FF                 	db	255
  7500                           
  7501                           ;Config register CONFIG23 @ 0x300016
  7502                           ;	unspecified, using default values
  7503                           ;	Boot Sector Expected Result for CRC on boot bits 7-0
  7504                           ;	BCRCERESL = 0xFF, unprogrammed default
  7505  300016                     	org	3145750
  7506  300016  FF                 	db	255
  7507                           
  7508                           ;Config register CONFIG24 @ 0x300017
  7509                           ;	Non-Boot Sector Polynomial for CRC on boot bits 31-24
  7510                           ;	CRCPOLT = hFF, Bits 31:24 of CRCPOL are 0xFF
  7511  300017                     	org	3145751
  7512  300017  FF                 	db	255
  7513                           
  7514                           ;Config register CONFIG25 @ 0x300018
  7515                           ;	Non-Boot Sector Polynomial for CRC on boot bits 23-16
  7516                           ;	CRCPOLU = hFF, Bits 23:16 of CRCPOL are 0xFF
  7517  300018                     	org	3145752
  7518  300018  FF                 	db	255
  7519                           
  7520                           ;Config register CONFIG26 @ 0x300019
  7521                           ;	Non-Boot Sector Polynomial for CRC on boot bits 15-8
  7522                           ;	CRCPOLH = hFF, Bits 15:8 of CRCPOL are 0xFF
  7523  300019                     	org	3145753
  7524  300019  FF                 	db	255
  7525                           
  7526                           ;Config register CONFIG27 @ 0x30001A
  7527                           ;	Non-Boot Sector Polynomial for CRC on boot bits 7-0
  7528                           ;	CRCPOLL = hFF, Bits 7:0 of CRCPOL are 0xFF
  7529  30001A                     	org	3145754
  7530  30001A  FF                 	db	255
  7531                           
  7532                           ;Config register CONFIG28 @ 0x30001B
  7533                           ;	Non-Boot Sector Seed for CRC on boot bits 31-24
  7534                           ;	CRCSEEDT = hFF, Bits 31:24 of CRCSEED are 0xFF
  7535  30001B                     	org	3145755
  7536  30001B  FF                 	db	255
  7537                           
  7538                           ;Config register CONFIG29 @ 0x30001C
  7539                           ;	Non-Boot Sector Seed for CRC on boot bits 23-16
  7540                           ;	CRCSEEDU = hFF, Bits 23:16 of CRCSEED are 0xFF
  7541  30001C                     	org	3145756
  7542  30001C  FF                 	db	255
  7543                           
  7544                           ;Config register CONFIG30 @ 0x30001D
  7545                           ;	Non-Boot Sector Seed for CRC on boot bits 15-8
  7546                           ;	CRCSEEDH = hFF, Bits 15:8 of CRCSEED are 0xFF
  7547  30001D                     	org	3145757
  7548  30001D  FF                 	db	255
  7549                           
  7550                           ;Config register CONFIG31 @ 0x30001E
  7551                           ;	Non-Boot Sector Seed for CRC on boot bits 7-0
  7552                           ;	CRCSEEDL = hFF, Bits 7:0 of CRCSEED are 0xFF
  7553  30001E                     	org	3145758
  7554  30001E  FF                 	db	255
  7555                           
  7556                           ;Config register CONFIG32 @ 0x30001F
  7557                           ;	unspecified, using default values
  7558                           ;	Non-Boot Sector Expected Result for CRC on boot bits 31-24
  7559                           ;	CRCEREST = 0xFF, unprogrammed default
  7560  30001F                     	org	3145759
  7561  30001F  FF                 	db	255
  7562                           
  7563                           ;Config register CONFIG33 @ 0x300020
  7564                           ;	unspecified, using default values
  7565                           ;	Non-Boot Sector Expected Result for CRC on boot bits 23-16
  7566                           ;	CRCERESU = 0xFF, unprogrammed default
  7567  300020                     	org	3145760
  7568  300020  FF                 	db	255
  7569                           
  7570                           ;Config register CONFIG34 @ 0x300021
  7571                           ;	unspecified, using default values
  7572                           ;	Non-Boot Sector Expected Result for CRC on boot bits 15-8
  7573                           ;	CRCERESH = 0xFF, unprogrammed default
  7574  300021                     	org	3145761
  7575  300021  FF                 	db	255
  7576                           
  7577                           ;Config register CONFIG35 @ 0x300022
  7578                           ;	unspecified, using default values
  7579                           ;	Non-Boot Sector Expected Result for CRC on boot bits 7-0
  7580                           ;	CRCERESL = 0xFF, unprogrammed default
  7581  300022                     	org	3145762
  7582  300022  FF                 	db	255
  7583                           
  7584                           ; Padding undefined space
  7585  300023                     	org	3145763
  7586  300023  FF                 	db	255
  7587                           tosu	equ	0x4FF
  7588                           tosh	equ	0x4FE
  7589                           tosl	equ	0x4FD
  7590                           stkptr	equ	0x4FC
  7591                           pclatu	equ	0x4FB
  7592                           pclath	equ	0x4FA
  7593                           pcl	equ	0x4F9
  7594                           tblptru	equ	0x4F8
  7595                           tblptrh	equ	0x4F7
  7596                           tblptrl	equ	0x4F6
  7597                           tablat	equ	0x4F5
  7598                           prodh	equ	0x4F4
  7599                           prodl	equ	0x4F3
  7600                           indf0	equ	0x4EF
  7601                           postinc0	equ	0x4EE
  7602                           postdec0	equ	0x4ED
  7603                           preinc0	equ	0x4EC
  7604                           plusw0	equ	0x4EB
  7605                           fsr0h	equ	0x4EA
  7606                           fsr0l	equ	0x4E9
  7607                           wreg	equ	0x4E8
  7608                           indf1	equ	0x4E7
  7609                           postinc1	equ	0x4E6
  7610                           postdec1	equ	0x4E5
  7611                           preinc1	equ	0x4E4
  7612                           plusw1	equ	0x4E3
  7613                           fsr1h	equ	0x4E2
  7614                           fsr1l	equ	0x4E1
  7615                           bsr	equ	0x4E0
  7616                           indf2	equ	0x4DF
  7617                           postinc2	equ	0x4DE
  7618                           postdec2	equ	0x4DD
  7619                           preinc2	equ	0x4DC
  7620                           plusw2	equ	0x4DB
  7621                           fsr2h	equ	0x4DA
  7622                           fsr2l	equ	0x4D9
  7623                           status	equ	0x4D8

Data Sizes:
    Strings     0
    Constant    11
    Data        2
    BSS         63
    Persistent  6
    Stack       0

Auto Spaces:
    Space          Size  Autos    Used
    COMRAM           95     59      94
    BANK5           160      4      40
    BANK6           256      0       0
    BANK7           256      0       0
    BANK8           256      0       0
    BANK9           256      0       0
    BANK10          256      0       0
    BANK11          256      0       0
    BANK12          256      0       0
    BANK13          256      0       0
    BANK14          256      0       0
    BANK15          256      0       0
    BANK16          256      0       0
    BANK17          256      0       0
    BANK18          256      0       0
    BANK19          256      0       0
    BANK20          256      0       0
    BANK21          256      0       0
    BANK22          256      0       0
    BANK23          256      0       0
    BANK24          256      0       0
    BANK25          256      0       0
    BANK26          256      0       0
    BANK27          256      0       0
    BANK28          256      0       0
    BANK29          256      0       0
    BANK30          256      0       0
    BANK31          256      0       0
    BANK32          256      0       0
    BANK33          256      0       0
    BANK34          256      0       0
    BANK35          256      0       0
    BANK36          256      0       0
    BANK37          256      0       0

Pointer List with Targets:

    memcpy@d1	PTR void  size(2) Largest target is 9727
		 -> RAM(DATA[9727]), rxMsgData(BANK5[8]), 

    memcpy@d	PTR unsigned char  size(2) Largest target is 9727
		 -> RAM(DATA[9727]), rxMsgData(BANK5[8]), 

    memcpy@s1	PTR const void  size(2) Largest target is 9727
		 -> CANDATAdata(BANK5[8]), RAM(DATA[9727]), rxMsgData(BANK5[8]), 

    memcpy@s	PTR const unsigned char  size(2) Largest target is 9727
		 -> CANDATAdata(BANK5[8]), RAM(DATA[9727]), rxMsgData(BANK5[8]), 

    TMR0_SetInterruptHandler@InterruptHandler	PTR FTN()void  size(2) Largest target is 1
		 -> TMR0_DefaultInterruptHandler(), 

    TMR0_InterruptHandler	PTR FTN()void  size(2) Largest target is 1
		 -> TMR0_DefaultInterruptHandler(), Absolute function(), 

    TMR1_SetInterruptHandler@InterruptHandler	PTR FTN()void  size(2) Largest target is 1
		 -> TMR1_DefaultInterruptHandler(), 

    TMR1_InterruptHandler	PTR FTN()void  size(2) Largest target is 1
		 -> Absolute function(), TMR1_DefaultInterruptHandler(), 

    CAN1_SetFIFO1NotEmptyHandler@handler	PTR FTN()void  size(2) Largest target is 1
		 -> DefaultFIFO1NotEmptyHandler(), 

    CAN1_FIFO1NotEmptyHandler	PTR FTN()void  size(2) Largest target is 1
		 -> Absolute function(), DefaultFIFO1NotEmptyHandler(), 

    CAN1_SetRxBufferOverFlowInterruptHandler@handler	PTR FTN()void  size(2) Largest target is 1
		 -> DefaultRxBufferOverflowHandler(), 

    CAN1_RxBufferOverflowHandler	PTR FTN()void  size(2) Largest target is 1
		 -> Absolute function(), DefaultRxBufferOverflowHandler(), 

    CAN1_SetTxAttemptInterruptHandler@handler	PTR FTN()void  size(2) Largest target is 1
		 -> DefaultTxAttemptHandler(), 

    CAN1_TxAttemptHandler	PTR FTN()void  size(2) Largest target is 1
		 -> Absolute function(), DefaultTxAttemptHandler(), 

    CAN1_SetSystemErrorInterruptHandler@handler	PTR FTN()void  size(2) Largest target is 1
		 -> DefaultSystemErrorHandler(), 

    CAN1_SystemErrorHandler	PTR FTN()void  size(2) Largest target is 1
		 -> Absolute function(), DefaultSystemErrorHandler(), 

    CAN1_SetModeChangeInterruptHandler@handler	PTR FTN()void  size(2) Largest target is 1
		 -> DefaultModeChangeHandler(), 

    CAN1_ModeChangeHandler	PTR FTN()void  size(2) Largest target is 1
		 -> Absolute function(), DefaultModeChangeHandler(), 

    CAN1_SetBusErrorInterruptHandler@handler	PTR FTN()void  size(2) Largest target is 1
		 -> DefaultBusErrorHandler(), 

    CAN1_BusErrorHandler	PTR FTN()void  size(2) Largest target is 1
		 -> Absolute function(), DefaultBusErrorHandler(), 

    CAN1_SetBusWakeUpActivityInterruptHandler@handler	PTR FTN()void  size(2) Largest target is 1
		 -> DefaultBusWakeUpActivityHandler(), 

    CAN1_BusWakeUpActivityHandler	PTR FTN()void  size(2) Largest target is 1
		 -> Absolute function(), DefaultBusWakeUpActivityHandler(), 

    CAN1_SetInvalidMessageInterruptHandler@handler	PTR FTN()void  size(2) Largest target is 1
		 -> DefaultInvalidMessageHandler(), 

    CAN1_InvalidMessageHandler	PTR FTN()void  size(2) Largest target is 1
		 -> Absolute function(), DefaultInvalidMessageHandler(), 

    CAN1_Transmit@txFifoObj	PTR unsigned char  size(2) Largest target is 9727
		 -> RAM(DATA[9727]), 

    CAN1_Transmit@txCanMsg	PTR struct . size(2) Largest target is 8
		 -> msgTransmit(COMRAM[7]), 

    ValidateTransmission@txCanMsg.data	PTR unsigned char  size(2) Largest target is 8
		 -> CANDATAdata(BANK5[8]), rxMsgData(BANK5[8]), 

    ValidateTransmission@txCanMsg	PTR struct . size(2) Largest target is 8
		 -> msgTransmit(COMRAM[7]), 

    WriteMessageToFifo@txFifoObj	PTR unsigned char  size(2) Largest target is 9727
		 -> RAM(DATA[9727]), 

    WriteMessageToFifo@txCanMsg.data	PTR unsigned char  size(2) Largest target is 8
		 -> CANDATAdata(BANK5[8]), rxMsgData(BANK5[8]), 

    WriteMessageToFifo@txCanMsg	PTR struct . size(2) Largest target is 8
		 -> msgTransmit(COMRAM[7]), 

    CAN1_Receive@rxCanMsg	PTR struct . size(2) Largest target is 8
		 -> msgReceipt(COMRAM[7]), 

    Receive@rxCanMsg	PTR struct . size(2) Largest target is 8
		 -> msgReceipt(COMRAM[7]), 

    Receive@rxFifoObj	PTR unsigned char  size(2) Largest target is 9727
		 -> RAM(DATA[9727]), 

    sp__memcpy	PTR void  size(2) Largest target is 9727
		 -> RAM(DATA[9727]), rxMsgData(BANK5[8]), 

    ReadMessageFromFifo@rxCanMsg.data	PTR unsigned char  size(2) Largest target is 8
		 -> CANDATAdata(BANK5[8]), rxMsgData(BANK5[8]), 

    ReadMessageFromFifo@rxCanMsg	PTR struct . size(2) Largest target is 8
		 -> msgReceipt(COMRAM[7]), 

    ReadMessageFromFifo@rxFifoObj	PTR unsigned char  size(2) Largest target is 9727
		 -> RAM(DATA[9727]), 

    FIFO	const PTR volatile struct CAN_FIFOREG size(2) Largest target is 1
		 -> C1TXQCONL(SFR_1[1]), 

    msgReceipt.data	PTR unsigned char  size(2) Largest target is 8
		 -> CANDATAdata(BANK5[8]), rxMsgData(BANK5[8]), 

    S33$data	PTR unsigned char  size(2) Largest target is 8
		 -> CANDATAdata(BANK5[8]), rxMsgData(BANK5[8]), 

    msgTransmit.data	PTR unsigned char  size(2) Largest target is 8
		 -> CANDATAdata(BANK5[8]), rxMsgData(BANK5[8]), 


Critical Paths under _main in COMRAM

    None.

Critical Paths under _INTERRUPT_InterruptManager in COMRAM

    _TMR1_ISR->_LEDS
    _TMR1_ISR->_TMR1_WriteTimer
    _TMR0_ISR->_TEMPORIZATION_1s
    _TEMPORIZATION_5s->_MESSSAGES_ASSIState
    _MESSSAGES_ASSIState->_CANWriteMessage
    _CANWriteMessage->_CAN1_Transmit
    _CAN1_TransmitFIFOStatusGet->_isTxChannel
    _CAN1_Transmit->_WriteMessageToFifo
    _WriteMessageToFifo->_memcpy
    _ValidateTransmission->_GetTxFifoStatus
    _DefaultFIFO1NotEmptyHandler->_CANReadMessage
    _CANReadMessage->_CAN1_Receive
    _CAN1_ReceivedMessageCountGet->_GetRxFifoDepth
    _CAN1_Receive->_Receive
    _Receive->_ReadMessageFromFifo
    _ReadMessageFromFifo->_memcpy

Critical Paths under _main in BANK5

    _SYSTEM_Initialize->_TMR1_Initialize
    _TMR1_Initialize->_TMR1_SetInterruptHandler
    _TMR0_Initialize->_TMR0_SetInterruptHandler
    _CAN1_Initialize->_CAN1_OperationModeSet
    _CAN1_RX_FIFO_Configuration->_CAN1_SetFIFO1NotEmptyHandler
    _CAN1_ErrorNotificationInterruptEnable->_CAN1_SetBusErrorInterruptHandler
    _CAN1_ErrorNotificationInterruptEnable->_CAN1_SetBusWakeUpActivityInterruptHandler
    _CAN1_ErrorNotificationInterruptEnable->_CAN1_SetInvalidMessageInterruptHandler
    _CAN1_ErrorNotificationInterruptEnable->_CAN1_SetModeChangeInterruptHandler
    _CAN1_ErrorNotificationInterruptEnable->_CAN1_SetRxBufferOverFlowInterruptHandler
    _CAN1_ErrorNotificationInterruptEnable->_CAN1_SetSystemErrorInterruptHandler
    _CAN1_ErrorNotificationInterruptEnable->_CAN1_SetTxAttemptInterruptHandler
    _Init_hardware->_DELAY_milliseconds

Critical Paths under _INTERRUPT_InterruptManager in BANK5

    None.

Critical Paths under _main in BANK6

    None.

Critical Paths under _INTERRUPT_InterruptManager in BANK6

    None.

Critical Paths under _main in BANK7

    None.

Critical Paths under _INTERRUPT_InterruptManager in BANK7

    None.

Critical Paths under _main in BANK8

    None.

Critical Paths under _INTERRUPT_InterruptManager in BANK8

    None.

Critical Paths under _main in BANK9

    None.

Critical Paths under _INTERRUPT_InterruptManager in BANK9

    None.

Critical Paths under _main in BANK10

    None.

Critical Paths under _INTERRUPT_InterruptManager in BANK10

    None.

Critical Paths under _main in BANK11

    None.

Critical Paths under _INTERRUPT_InterruptManager in BANK11

    None.

Critical Paths under _main in BANK12

    None.

Critical Paths under _INTERRUPT_InterruptManager in BANK12

    None.

Critical Paths under _main in BANK13

    None.

Critical Paths under _INTERRUPT_InterruptManager in BANK13

    None.

Critical Paths under _main in BANK14

    None.

Critical Paths under _INTERRUPT_InterruptManager in BANK14

    None.

Critical Paths under _main in BANK15

    None.

Critical Paths under _INTERRUPT_InterruptManager in BANK15

    None.

Critical Paths under _main in BANK16

    None.

Critical Paths under _INTERRUPT_InterruptManager in BANK16

    None.

Critical Paths under _main in BANK17

    None.

Critical Paths under _INTERRUPT_InterruptManager in BANK17

    None.

Critical Paths under _main in BANK18

    None.

Critical Paths under _INTERRUPT_InterruptManager in BANK18

    None.

Critical Paths under _main in BANK19

    None.

Critical Paths under _INTERRUPT_InterruptManager in BANK19

    None.

Critical Paths under _main in BANK20

    None.

Critical Paths under _INTERRUPT_InterruptManager in BANK20

    None.

Critical Paths under _main in BANK21

    None.

Critical Paths under _INTERRUPT_InterruptManager in BANK21

    None.

Critical Paths under _main in BANK22

    None.

Critical Paths under _INTERRUPT_InterruptManager in BANK22

    None.

Critical Paths under _main in BANK23

    None.

Critical Paths under _INTERRUPT_InterruptManager in BANK23

    None.

Critical Paths under _main in BANK24

    None.

Critical Paths under _INTERRUPT_InterruptManager in BANK24

    None.

Critical Paths under _main in BANK25

    None.

Critical Paths under _INTERRUPT_InterruptManager in BANK25

    None.

Critical Paths under _main in BANK26

    None.

Critical Paths under _INTERRUPT_InterruptManager in BANK26

    None.

Critical Paths under _main in BANK27

    None.

Critical Paths under _INTERRUPT_InterruptManager in BANK27

    None.

Critical Paths under _main in BANK28

    None.

Critical Paths under _INTERRUPT_InterruptManager in BANK28

    None.

Critical Paths under _main in BANK29

    None.

Critical Paths under _INTERRUPT_InterruptManager in BANK29

    None.

Critical Paths under _main in BANK30

    None.

Critical Paths under _INTERRUPT_InterruptManager in BANK30

    None.

Critical Paths under _main in BANK31

    None.

Critical Paths under _INTERRUPT_InterruptManager in BANK31

    None.

Critical Paths under _main in BANK32

    None.

Critical Paths under _INTERRUPT_InterruptManager in BANK32

    None.

Critical Paths under _main in BANK33

    None.

Critical Paths under _INTERRUPT_InterruptManager in BANK33

    None.

Critical Paths under _main in BANK34

    None.

Critical Paths under _INTERRUPT_InterruptManager in BANK34

    None.

Critical Paths under _main in BANK35

    None.

Critical Paths under _INTERRUPT_InterruptManager in BANK35

    None.

Critical Paths under _main in BANK36

    None.

Critical Paths under _INTERRUPT_InterruptManager in BANK36

    None.

Critical Paths under _main in BANK37

    None.

Critical Paths under _INTERRUPT_InterruptManager in BANK37

    None.

Call Graph Tables:

 ---------------------------------------------------------------------------------
 (Depth) Function   	        Calls       Base Space   Used Autos Params    Refs
 ---------------------------------------------------------------------------------
 (0) _main                                                 0     0      0    1434
                      _Init_hardware
                    _PARAMETERS_Init
                  _SYSTEM_Initialize
 ---------------------------------------------------------------------------------
 (1) _SYSTEM_Initialize                                    0     0      0    1184
                    _CAN1_Initialize
               _INTERRUPT_Initialize
              _OSCILLATOR_Initialize
             _PIN_MANAGER_Initialize
                     _PMD_Initialize
                    _TMR0_Initialize
                    _TMR1_Initialize
 ---------------------------------------------------------------------------------
 (2) _TMR1_Initialize                                      2     2      0      98
                                              2 BANK5      2     2      0
           _TMR1_SetInterruptHandler
 ---------------------------------------------------------------------------------
 (3) _TMR1_SetInterruptHandler                             2     0      2      98
                                              0 BANK5      2     0      2
 ---------------------------------------------------------------------------------
 (2) _TMR0_Initialize                                      0     0      0      98
           _TMR0_SetInterruptHandler
 ---------------------------------------------------------------------------------
 (3) _TMR0_SetInterruptHandler                             2     0      2      98
                                              0 BANK5      2     0      2
 ---------------------------------------------------------------------------------
 (2) _PMD_Initialize                                       0     0      0       0
 ---------------------------------------------------------------------------------
 (2) _PIN_MANAGER_Initialize                               0     0      0       0
 ---------------------------------------------------------------------------------
 (2) _OSCILLATOR_Initialize                                0     0      0       0
 ---------------------------------------------------------------------------------
 (2) _INTERRUPT_Initialize                                 0     0      0       0
 ---------------------------------------------------------------------------------
 (2) _CAN1_Initialize                                      0     0      0     988
          _CAN1_BitRateConfiguration
_CAN1_ErrorNotificationInterruptEnab
              _CAN1_OperationModeSet
         _CAN1_RX_FIFO_Configuration
_CAN1_RX_FIFO_FilterMaskConfiguratio
             _CAN1_RX_FIFO_ResetInfo
         _CAN1_TX_FIFO_Configuration
 ---------------------------------------------------------------------------------
 (3) _CAN1_TX_FIFO_Configuration                           0     0      0       0
 ---------------------------------------------------------------------------------
 (3) _CAN1_RX_FIFO_ResetInfo                               1     1      0      68
                                              0 BANK5      1     1      0
 ---------------------------------------------------------------------------------
 (3) _CAN1_RX_FIFO_FilterMaskConfiguration                 0     0      0       0
 ---------------------------------------------------------------------------------
 (3) _CAN1_RX_FIFO_Configuration                           0     0      0      98
       _CAN1_SetFIFO1NotEmptyHandler
 ---------------------------------------------------------------------------------
 (4) _CAN1_SetFIFO1NotEmptyHandler                         2     0      2      98
                                              0 BANK5      2     0      2
 ---------------------------------------------------------------------------------
 (3) _CAN1_OperationModeSet                                3     3      0     136
                                              0 BANK5      3     3      0
              _CAN1_OperationModeGet
 ---------------------------------------------------------------------------------
 (4) _CAN1_OperationModeGet                                0     0      0       0
 ---------------------------------------------------------------------------------
 (3) _CAN1_ErrorNotificationInterruptEnable                0     0      0     686
   _CAN1_SetBusErrorInterruptHandler
_CAN1_SetBusWakeUpActivityInterruptH
_CAN1_SetInvalidMessageInterruptHand
 _CAN1_SetModeChangeInterruptHandler
_CAN1_SetRxBufferOverFlowInterruptHa
_CAN1_SetSystemErrorInterruptHandler
  _CAN1_SetTxAttemptInterruptHandler
 ---------------------------------------------------------------------------------
 (4) _CAN1_SetTxAttemptInterruptHandler                    2     0      2      98
                                              0 BANK5      2     0      2
 ---------------------------------------------------------------------------------
 (4) _CAN1_SetSystemErrorInterruptHandler                  2     0      2      98
                                              0 BANK5      2     0      2
 ---------------------------------------------------------------------------------
 (4) _CAN1_SetRxBufferOverFlowInterruptHandler             2     0      2      98
                                              0 BANK5      2     0      2
 ---------------------------------------------------------------------------------
 (4) _CAN1_SetModeChangeInterruptHandler                   2     0      2      98
                                              0 BANK5      2     0      2
 ---------------------------------------------------------------------------------
 (4) _CAN1_SetInvalidMessageInterruptHandler               2     0      2      98
                                              0 BANK5      2     0      2
 ---------------------------------------------------------------------------------
 (4) _CAN1_SetBusWakeUpActivityInterruptHandler            2     0      2      98
                                              0 BANK5      2     0      2
 ---------------------------------------------------------------------------------
 (4) _CAN1_SetBusErrorInterruptHandler                     2     0      2      98
                                              0 BANK5      2     0      2
 ---------------------------------------------------------------------------------
 (3) _CAN1_BitRateConfiguration                            0     0      0       0
 ---------------------------------------------------------------------------------
 (1) _PARAMETERS_Init                                      0     0      0       0
 ---------------------------------------------------------------------------------
 (1) _Init_hardware                                        0     0      0     250
                 _DELAY_milliseconds
 ---------------------------------------------------------------------------------
 (2) _DELAY_milliseconds                                   3     1      2     250
                                              0 BANK5      3     1      2
 ---------------------------------------------------------------------------------
 Estimated maximum stack depth 4
 ---------------------------------------------------------------------------------
 (Depth) Function   	        Calls       Base Space   Used Autos Params    Refs
 ---------------------------------------------------------------------------------
 (5) _INTERRUPT_InterruptManager                           4     4      0    7644
                                             55 COMRAM     4     4      0
                           _CAN1_ISR
                       _CAN1_RXI_ISR
                           _TMR0_ISR
                           _TMR1_ISR
 ---------------------------------------------------------------------------------
 (6) _TMR1_ISR                                             0     0      0     240
                               _LEDS
                      _TMR1_CallBack
                    _TMR1_WriteTimer
 ---------------------------------------------------------------------------------
 (7) _TMR1_WriteTimer                                      2     0      2     240
                                              0 COMRAM     2     0      2
 ---------------------------------------------------------------------------------
 (7) _TMR1_CallBack                                        0     0      0       0
                   Absolute function *
       _TMR1_DefaultInterruptHandler *
 ---------------------------------------------------------------------------------
 (8) _TMR1_DefaultInterruptHandler                         0     0      0       0
 ---------------------------------------------------------------------------------
 (6) _TMR0_ISR                                             1     1      0    4646
                                             47 COMRAM     1     1      0
                   _TEMPORIZATION_1s
                      _TMR0_CallBack
 ---------------------------------------------------------------------------------
 (7) _TMR0_CallBack                                        0     0      0       0
                   Absolute function *
       _TMR0_DefaultInterruptHandler *
 ---------------------------------------------------------------------------------
 (8) _TMR0_DefaultInterruptHandler                         0     0      0       0
 ---------------------------------------------------------------------------------
 (7) _TEMPORIZATION_1s                                     2     2      0    4646
                                             45 COMRAM     2     2      0
               _TEMPORIZATION_15mins
                _TEMPORIZATION_1mins
               _TEMPORIZATION_30mins
                   _TEMPORIZATION_5s
 ---------------------------------------------------------------------------------
 (8) _TEMPORIZATION_5s                                     0     0      0    4646
                _MESSSAGES_ASSIState
 ---------------------------------------------------------------------------------
 (9) _MESSSAGES_ASSIState                                  2     2      0    4646
                                             43 COMRAM     2     2      0
                    _CANWriteMessage
 ---------------------------------------------------------------------------------
 (10) _CANWriteMessage                                    14     1     13    4646
                                             29 COMRAM    14     1     13
                      _CAN1_IsBusOff
               _CAN1_IsTxErrorActive
              _CAN1_IsTxErrorPassive
              _CAN1_IsTxErrorWarning
                      _CAN1_Transmit
         _CAN1_TransmitFIFOStatusGet
 ---------------------------------------------------------------------------------
 (11) _CAN1_TransmitFIFOStatusGet                          2     2      0     158
                                              2 COMRAM     2     2      0
                    _GetTxFifoStatus
                        _isTxChannel
 ---------------------------------------------------------------------------------
 (11) _CAN1_Transmit                                       6     4      2    1988
                                             23 COMRAM     6     4      2
               _ValidateTransmission
                 _WriteMessageToFifo
                        _isTxChannel
 ---------------------------------------------------------------------------------
 (12) _isTxChannel                                         2     2      0      68
                                              0 COMRAM     2     2      0
 ---------------------------------------------------------------------------------
 (12) _WriteMessageToFifo                                 12     8      4    1356
                                             11 COMRAM    12     8      4
                             _memcpy
 ---------------------------------------------------------------------------------
 (12) _ValidateTransmission                                9     7      2     281
                                              1 COMRAM     9     7      2
                    _GetTxFifoStatus
            i2_CAN1_OperationModeGet
 ---------------------------------------------------------------------------------
 (13) i2_CAN1_OperationModeGet                             0     0      0       0
 ---------------------------------------------------------------------------------
 (12) _GetTxFifoStatus                                     1     1      0      22
                                              0 COMRAM     1     1      0
 ---------------------------------------------------------------------------------
 (11) _CAN1_IsTxErrorWarning                               0     0      0       0
 ---------------------------------------------------------------------------------
 (11) _CAN1_IsTxErrorActive                                0     0      0       0
              _CAN1_IsTxErrorPassive
 ---------------------------------------------------------------------------------
 (11) _CAN1_IsTxErrorPassive                               0     0      0       0
 ---------------------------------------------------------------------------------
 (11) _CAN1_IsBusOff                                       0     0      0       0
 ---------------------------------------------------------------------------------
 (8) _TEMPORIZATION_30mins                                 0     0      0       0
 ---------------------------------------------------------------------------------
 (8) _TEMPORIZATION_1mins                                  0     0      0       0
 ---------------------------------------------------------------------------------
 (8) _TEMPORIZATION_15mins                                 0     0      0       0
 ---------------------------------------------------------------------------------
 (6) _CAN1_RXI_ISR                                         0     0      0    2758
                   Absolute function *
        _DefaultFIFO1NotEmptyHandler *
 ---------------------------------------------------------------------------------
 (7) _DefaultFIFO1NotEmptyHandler                          0     0      0    2758
                     _CANReadMessage
 ---------------------------------------------------------------------------------
 (8) _CANReadMessage                                      18    18      0    2758
                                             37 COMRAM    18    18      0
                       _CAN1_Receive
       _CAN1_ReceivedMessageCountGet
                               _LEDS
                            _SPEAKER
 ---------------------------------------------------------------------------------
 (9) _SPEAKER                                              0     0      0       0
 ---------------------------------------------------------------------------------
 (7) _LEDS                                                 2     2      0       0
                                              0 COMRAM     2     2      0
 ---------------------------------------------------------------------------------
 (9) _CAN1_ReceivedMessageCountGet                         8     8      0     541
                                              2 COMRAM     8     8      0
                     _GetRxFifoDepth
                    _GetRxFifoStatus
 ---------------------------------------------------------------------------------
 (9) _CAN1_Receive                                         4     2      2    2162
                                             33 COMRAM     4     2      2
                            _Receive
 ---------------------------------------------------------------------------------
 (10) _Receive                                            10     7      3    1928
                                             23 COMRAM    10     7      3
                     _GetRxFifoDepth
                    _GetRxFifoStatus
                _ReadMessageFromFifo
 ---------------------------------------------------------------------------------
 (11) _ReadMessageFromFifo                                12     8      4    1268
                                             11 COMRAM    12     8      4
                             _memcpy
 ---------------------------------------------------------------------------------
 (13) _memcpy                                             11     5      6     599
                                              0 COMRAM    11     5      6
 ---------------------------------------------------------------------------------
 (10) _GetRxFifoStatus                                     1     1      0      22
                                              0 COMRAM     1     1      0
 ---------------------------------------------------------------------------------
 (10) _GetRxFifoDepth                                      2     2      0      22
                                              0 COMRAM     2     2      0
 ---------------------------------------------------------------------------------
 (6) _CAN1_ISR                                             0     0      0       0
                   Absolute function *
             _DefaultBusErrorHandler *
    _DefaultBusWakeUpActivityHandler *
       _DefaultInvalidMessageHandler *
           _DefaultModeChangeHandler *
     _DefaultRxBufferOverflowHandler *
          _DefaultSystemErrorHandler *
            _DefaultTxAttemptHandler *
 ---------------------------------------------------------------------------------
 (7) _DefaultTxAttemptHandler                              0     0      0       0
 ---------------------------------------------------------------------------------
 (7) _DefaultSystemErrorHandler                            0     0      0       0
 ---------------------------------------------------------------------------------
 (7) _DefaultRxBufferOverflowHandler                       0     0      0       0
 ---------------------------------------------------------------------------------
 (7) _DefaultModeChangeHandler                             0     0      0       0
 ---------------------------------------------------------------------------------
 (7) _DefaultInvalidMessageHandler                         0     0      0       0
 ---------------------------------------------------------------------------------
 (7) _DefaultBusWakeUpActivityHandler                      0     0      0       0
 ---------------------------------------------------------------------------------
 (7) _DefaultBusErrorHandler                               0     0      0       0
 ---------------------------------------------------------------------------------
 (8) Absolute function(Fake)                               0     0      0       0
 ---------------------------------------------------------------------------------
 Estimated maximum stack depth 13
 ---------------------------------------------------------------------------------

 Call Graph Graphs:

 _main (ROOT)
   _Init_hardware
     _DELAY_milliseconds
   _PARAMETERS_Init
   _SYSTEM_Initialize
     _CAN1_Initialize
       _CAN1_BitRateConfiguration
       _CAN1_ErrorNotificationInterruptEnable
         _CAN1_SetBusErrorInterruptHandler
         _CAN1_SetBusWakeUpActivityInterruptHandler
         _CAN1_SetInvalidMessageInterruptHandler
         _CAN1_SetModeChangeInterruptHandler
         _CAN1_SetRxBufferOverFlowInterruptHandler
         _CAN1_SetSystemErrorInterruptHandler
         _CAN1_SetTxAttemptInterruptHandler
       _CAN1_OperationModeSet
         _CAN1_OperationModeGet
       _CAN1_RX_FIFO_Configuration
         _CAN1_SetFIFO1NotEmptyHandler
       _CAN1_RX_FIFO_FilterMaskConfiguration
       _CAN1_RX_FIFO_ResetInfo
       _CAN1_TX_FIFO_Configuration
     _INTERRUPT_Initialize
     _OSCILLATOR_Initialize
     _PIN_MANAGER_Initialize
     _PMD_Initialize
     _TMR0_Initialize
       _TMR0_SetInterruptHandler
     _TMR1_Initialize
       _TMR1_SetInterruptHandler

 _INTERRUPT_InterruptManager (ROOT)
   _CAN1_ISR
     Absolute function(Fake) *
     _DefaultBusErrorHandler *
     _DefaultBusWakeUpActivityHandler *
     _DefaultInvalidMessageHandler *
     _DefaultModeChangeHandler *
     _DefaultRxBufferOverflowHandler *
     _DefaultSystemErrorHandler *
     _DefaultTxAttemptHandler *
   _CAN1_RXI_ISR
     Absolute function(Fake) *
     _DefaultFIFO1NotEmptyHandler *
       _CANReadMessage
         _CAN1_Receive
           _Receive
             _GetRxFifoDepth
             _GetRxFifoStatus
             _ReadMessageFromFifo
               _memcpy
         _CAN1_ReceivedMessageCountGet
           _GetRxFifoDepth
           _GetRxFifoStatus
         _LEDS
         _SPEAKER
   _TMR0_ISR
     _TEMPORIZATION_1s
       _TEMPORIZATION_15mins
       _TEMPORIZATION_1mins
       _TEMPORIZATION_30mins
       _TEMPORIZATION_5s
         _MESSSAGES_ASSIState
           _CANWriteMessage
             _CAN1_IsBusOff
             _CAN1_IsTxErrorActive
               _CAN1_IsTxErrorPassive
             _CAN1_IsTxErrorPassive
             _CAN1_IsTxErrorWarning
             _CAN1_Transmit
               _ValidateTransmission
                 _GetTxFifoStatus
                 i2_CAN1_OperationModeGet
               _WriteMessageToFifo
                 _memcpy
               _isTxChannel
             _CAN1_TransmitFIFOStatusGet
               _GetTxFifoStatus
               _isTxChannel
     _TMR0_CallBack
       Absolute function(Fake) *
       _TMR0_DefaultInterruptHandler *
   _TMR1_ISR
     _LEDS
     _TMR1_CallBack
       Absolute function(Fake) *
       _TMR1_DefaultInterruptHandler *
     _TMR1_WriteTimer

 Address spaces:
Name               Size   Autos  Total    Cost      Usage
BIGRAM            20FF      0       0      71        0.0%
EEDATA             400      0       0       0        0.0%
BITBANK37          100      0       0      70        0.0%
BANK37             100      0       0      68        0.0%
BITBANK36          100      0       0      66        0.0%
BANK36             100      0       0      67        0.0%
BITBANK35          100      0       0      64        0.0%
BANK35             100      0       0      65        0.0%
BITBANK34          100      0       0      62        0.0%
BANK34             100      0       0      63        0.0%
BITBANK33          100      0       0      60        0.0%
BANK33             100      0       0      61        0.0%
BITBANK32          100      0       0      58        0.0%
BANK32             100      0       0      59        0.0%
BITBANK31          100      0       0      56        0.0%
BANK31             100      0       0      57        0.0%
BITBANK30          100      0       0      54        0.0%
BANK30             100      0       0      55        0.0%
BITBANK29          100      0       0      52        0.0%
BANK29             100      0       0      53        0.0%
BITBANK28          100      0       0      50        0.0%
BANK28             100      0       0      51        0.0%
BITBANK27          100      0       0      48        0.0%
BANK27             100      0       0      49        0.0%
BITBANK26          100      0       0      46        0.0%
BANK26             100      0       0      47        0.0%
BITBANK25          100      0       0      44        0.0%
BANK25             100      0       0      45        0.0%
BITBANK24          100      0       0      42        0.0%
BANK24             100      0       0      43        0.0%
BITBANK23          100      0       0      40        0.0%
BANK23             100      0       0      41        0.0%
BITBANK22          100      0       0      38        0.0%
BANK22             100      0       0      39        0.0%
BITBANK21          100      0       0      36        0.0%
BANK21             100      0       0      37        0.0%
BITBANK20          100      0       0      34        0.0%
BANK20             100      0       0      35        0.0%
BITBANK19          100      0       0      32        0.0%
BANK19             100      0       0      33        0.0%
BITBANK18          100      0       0      30        0.0%
BANK18             100      0       0      31        0.0%
BITBANK17          100      0       0      28        0.0%
BANK17             100      0       0      29        0.0%
BITBANK16          100      0       0      26        0.0%
BANK16             100      0       0      27        0.0%
BITBANK15          100      0       0      24        0.0%
BANK15             100      0       0      25        0.0%
BITBANK14          100      0       0      22        0.0%
BANK14             100      0       0      23        0.0%
BITBANK13          100      0       0      20        0.0%
BANK13             100      0       0      21        0.0%
BITBANK12          100      0       0      18        0.0%
BANK12             100      0       0      19        0.0%
BITBANK11          100      0       0      16        0.0%
BANK11             100      0       0      17        0.0%
BITBANK10          100      0       0      14        0.0%
BANK10             100      0       0      15        0.0%
BITBANK9           100      0       0      12        0.0%
BANK9              100      0       0      13        0.0%
BITBANK8           100      0       0      10        0.0%
BANK8              100      0       0      11        0.0%
BITBANK7           100      0       0       8        0.0%
BANK7              100      0       0       9        0.0%
BITBANK6           100      0       0       6        0.0%
BANK6              100      0       0       7        0.0%
BITBANK5            A0      0       0       4        0.0%
BANK5               A0      4      28       5       25.0%
BITCOMRAM           5F      0       0       0        0.0%
COMRAM              5F     3B      5E       1       98.9%
BITSFR_5             0      0       0     200        0.0%
SFR_5                0      0       0     200        0.0%
BITSFR_4             0      0       0     200        0.0%
SFR_4                0      0       0     200        0.0%
BITSFR_3             0      0       0     200        0.0%
SFR_3                0      0       0     200        0.0%
BITSFR_2             0      0       0     200        0.0%
SFR_2                0      0       0     200        0.0%
BITSFR_1             0      0       0     200        0.0%
SFR_1                0      0       0     200        0.0%
BITSFR               0      0       0     200        0.0%
SFR                  0      0       0     200        0.0%
STACK                0      0       0       2        0.0%
NULL                 0      0       0       0        0.0%
ABS                  0      0      86      69        0.0%
DATA                 0      0      86       3        0.0%
CODE                 0      0       0       0        0.0%


Microchip Technology PIC18 Macro Assembler V2.31 build 20201012212115 
Symbol Table                                                                                   Sun Dec 26 11:29:27 2021

                                 ??_PARAMETERS_Init 0582                              __size_of_CAN1_IsBusOff 0016  
                             __size_of_CAN1_Receive 0052                                                 l202 3B6A  
                                               l303 3B9C                                                 l312 3B92  
                                               l321 3B88                                                 l306 3BA6  
                                               l315 3B7E                                                 l172 393A  
                                               l181 3B42                                                 l309 3BB0  
                                               l318 3B74                                                 l430 3768  
                                               l175 3A22                                                 l184 3578  
                                               l336 3B60                                                 l169 3886  
                                               l178 3B2E                                                 l195 33AE  
                                               l188 3686                                                 l702 3784  
                                               l198 33E8                                                 l199 33EA  
                                               l392 3A92                                                 l720 3AD2  
                                               l721 3AD2                                                 l466 3B4C  
                                               l715 37AC                                                 l395 39B4  
                                               l708 3798                                                 l556 398C  
                                               l389 3A42                                                 l590 3B56  
                                               l496 3BD0                                                 l648 35D4  
                                               l850 3BC0                                                 l659 3858  
                                               l691 376A                                                 l693 376C  
                                               l695 376E                                        ?_isTxChannel 0501  
                        __end_of_DELAY_milliseconds 385A                                     _timer1ReloadVal 055D  
                          ?_DefaultTxAttemptHandler 0501                             __size_of_PMD_Initialize 0028  
                                               prod 0004F3                                     ?_CANReadMessage 0501  
                                               tosl 0004FD                                                 wreg 0004E8  
                        _CAN1_InvalidMessageHandler 056C                              __size_of_Init_hardware 0044  
                                              l3000 3674                                                l3002 3678  
                                              l3010 398E                                                l3004 367C  
                                              l3020 35BA                                                l3012 357A  
                                              l3102 3826                                                l3006 3680  
                                              l3030 35C4                                                l3022 35BC  
                                              l3014 358A                                                l3104 382A  
                                              l3008 3BCE                                                l3032 3A7C  
                                              l3024 35BE                                                l3016 3594  
                                              l3040 3754                                                l3106 383C  
                                              l3210 3782                                                l3026 35C0  
                                              l3018 359C                                                l3050 3976  
                                              l3042 3756                                                l3034 3722  
                                              l3220 37A8                                                l3212 3792  
                                              l3204 3770                                                l3028 35C2  
                                              l3052 3978                                                l3044 3762  
                                              l3036 3738                                                l3222 37AA  
                                              l3214 3794                                                l3206 377E  
                                              l3054 3986                                                l3046 3966  
                                              l3038 373A                                                l3216 3796  
                                              l3208 3780                                                l3224 3BBC  
                                              l3048 3974                                                l3160 3A2A  
                                              l3218 37A6                                                l3170 3A3E  
                                              l3162 3A2E                   CAN1_ReceivedMessageCountGet@index 050A  
                                              l3164 3A32                                                l3156 3A24  
                                              l3166 3A36                                                l3158 3A28  
                                              l3270 3ACE                                                l3168 3A3A  
                                              l3264 3AC4                                                l3266 3AC8  
                                              l3268 3ACC                                                l2760 3B9E  
                                              l2920 3874                                                l2762 3BA8  
                                              l2770 3B80                                                l2930 3936  
                                              l2922 3876                                                l2914 385A  
                                              l2764 3B8A                                                l2772 3B62  
                                              l2756 3B58                                                l2932 3938  
                                              l2924 3912                                                l2940 3A0C  
                                              l2758 3B94                                                l2766 3B76  
                                              l2950 3564                                                l2926 3924  
                                              l2934 3A02                                                l2918 3860  
                                              l2942 3B1C                                                l2944 3B30  
                                              l2768 3B6C                                                l2952 356A  
                                              l2960 3358                                                l2928 3932  
                                              l2936 3A08                                                l2954 356E  
                                              l2946 3500                                                l2970 339A  
                                              l2962 335E                                                l2938 3A0A  
                                              l2956 3572                                                l2948 3562  
                                              l2972 33BE                                                l2964 3366  
                                              l2980 3B44                                                l2958 3576  
                                              l2974 33C8                                                l2966 3378  
                                              l2990 3634                                                l2982 3B4E  
                                              l2976 33E4                                                l2968 3388  
                                              l2992 364A                                                l2994 3668  
                                              l2996 366C                                                l2988 3630  
                                              l2998 3670                                                _FIFO 260A  
                                _WriteMessageToFifo 260E                                                _LATA 0004BE  
                                              _LATB 0004BF                                                _LATC 0004C0  
                                              _LEDS 329A                                                u2307 3832  
                                              u1800 3886                                                u1801 3882  
                                              u1810 3378                                                u1811 3374  
                                              u1820 3388                                                u1821 3384  
                                              u1830 339A                                                u1831 3396  
                                              u1840 33BE                                                u1841 33BA  
                                              u1850 33E0                                                u1851 33DC  
                                              u1860 364A                                                u1861 3646  
                                      _CAN1_RXI_ISR 393C                                                u1960 3858  
                                              u1961 3854                                                _PMD0 000060  
                                              _PMD1 000061                                                _PMD2 000062  
                                              _PMD3 000063                                                _PMD4 000064  
                                              _PMD5 000065                                                _PMD6 000066  
                                              _PMD7 000067                                                _PMD8 000068  
                                              _WPUA 000401                                                _WPUB 000409  
                                              _WPUC 000411                                                _WPUE 000421  
                           __size_of_GetRxFifoDepth 001E                                     __end_of_SPEAKER 3A02  
                            __size_of_CAN1_Transmit 0094                                    __end_of_CAN1_ISR 2BEA  
         __end_of_CAN1_SetTxAttemptInterruptHandler 3B76          __size_of_CAN1_SetTxAttemptInterruptHandler 000A  
               ??_CAN1_SetTxAttemptInterruptHandler 0584                  ?_CAN1_SetTxAttemptInterruptHandler 0582  
                 _CAN1_SetTxAttemptInterruptHandler 3B6C                              CAN1_Transmit@txFifoObj 051B  
                                              _main 3AC4                                                fsr1h 0004E2  
                                              fsr2h 0004DA                                                indf1 0004E7  
                                              indf2 0004DF                                                fsr1l 0004E1  
                                              fsr2l 0004D9                                                prodl 0004F3  
                                              start 001A                                 ?_WriteMessageToFifo 050C  
                                      _CAN1_Receive 3688                          ??_TMR1_SetInterruptHandler 0584  
                                      ___param_bank 000000                __end_of_DefaultInvalidMessageHandler 3BE8  
             __size_of_DefaultInvalidMessageHandler 0002                        _DefaultInvalidMessageHandler 3BE6  
        CAN1_SetSystemErrorInterruptHandler@handler 0582                                     __end_of_Receive 2DC2  
               CAN1_SetFIFO1NotEmptyHandler@handler 0582                                               ?_LEDS 0501  
                           __end_of_TMR0_Initialize 398E                      ??_TMR0_DefaultInterruptHandler 0501  
                    __size_of_OSCILLATOR_Initialize 0018                                CANWriteMessage@data1 0523  
                              CANWriteMessage@data2 0524                                CANWriteMessage@data3 0525  
                              CANWriteMessage@data4 0526                                CANWriteMessage@data5 0527  
                              CANWriteMessage@data6 0528                                CANWriteMessage@data7 0529  
                              CANWriteMessage@data8 052A                       __end_of_OSCILLATOR_Initialize 3A94  
                        WriteMessageToFifo@txCanMsg 050E                                               ?_main 0501  
          __end_of_CAN1_SetBusErrorInterruptHandler 3BB2           __size_of_CAN1_SetBusErrorInterruptHandler 000A  
                ??_CAN1_SetBusErrorInterruptHandler 0584                   ?_CAN1_SetBusErrorInterruptHandler 0582  
                                             _T1CLK 000321                    _CAN1_SetBusErrorInterruptHandler 3BA8  
                                             _T1CON 00031E                                               i2l202 3BBA  
                                   _isTxChannel$718 0501                                               i2l212 2A92  
                                             i2l205 3A60                                               i2l143 3BCC  
                                             i2l152 3BEA                                               i2l208 3AC2  
                                             i2l161 3BDE                                               i2l225 36D8  
                                             i2l146 3BE6                                               i2l155 3BE4  
                                             i2l331 2BE6                                               i2l219 2DC0  
                                             i2l243 31D2                                               i2l251 3AAA  
                                             i2l164 3BE2                                               i2l340 3964  
                                             i2l149 3BE8                                               i2l333 2BE8  
                                             i2l501 3214                                               i2l158 3BE0  
                                             i2l247 37E8                                               i2l503 3238  
                                             i2l248 37EA                                               i2l272 347E  
                                             i2l504 3280                                               i2l329 2BAC  
                                             i2l257 2852                                               i2l505 325C  
                                             i2l266 2E98                                               i2l291 3B04  
                                             i2l276 39DC                                               i2l444 38B4  
                                             i2l269 347E                                               i2l509 3280  
                                             i2l294 3AEE                                               i2l279 3B1A  
                                             i2l463 38E2                                               i2l297 3A7A  
                                             i2l459 3824                                               i2l740 3A00  
                                             i2l901 3BD8                                               i2l469 3BD4  
                                             i2l910 3BC6                                               i2l751 32A0  
                                             i2l735 39F0                                               i2l823 2F6E  
                                             i2l583 34FE                                               i2l760 32AE  
                                             i2l832 2FF0                                               i2l904 3BDC  
                                             i2l833 303E                                               i2l841 2CD4  
                                             i2l593 3BD6                                               i2l770 3300  
                                             i2l738 39FA                                               i2l755 32A6  
                                             i2l827 303E                                               i2l907 3BDA  
                                             i2l587 3910                                               i2l772 3302  
                                             i2l765 32D6                                               i2l757 32A8  
                                             i2l749 329E                                               i2l829 2FC8  
                                             i2l775 3308                                               i2l777 330A  
                                             i2l779 3352                                               i2l892 3108  
                                             i2l888 3108                                               _OSCEN 0000B3  
                                             _TMR0H 000319                                               _TMR1H 00031D  
                                             _TMR0L 000318                                               _TMR1L 00031C  
                              ??_WriteMessageToFifo 0510                                               _TRISA 0004C6  
                                             _TRISB 0004C7                                               _TRISC 0004C8  
                                             _TRISE 0004CA                         __end_of_MESSSAGES_ASSIState 2CD6  
                      __size_of_ReadMessageFromFifo 0240                            ??_DefaultBusErrorHandler 0501  
                 __size_of_TMR0_SetInterruptHandler 000A                           ?_TMR0_SetInterruptHandler 0582  
                               CANReadMessage@data1 0537                            __size_of_CAN1_Initialize 0058  
                                  __end_of_TMR0_ISR 3500                                    __end_of_TMR1_ISR 3826  
                          __size_of_GetRxFifoStatus 0018                                   ??_CANWriteMessage 052B  
                                     _CAN1_IsBusOff 3B06                             __end_of_TMR1_Initialize 376A  
                                             pclath 0004FA                                               tablat 0004F5  
                         ??i2_CAN1_OperationModeGet 0501                                               plusw2 0004DB  
                       GetRxFifoStatus@validChannel 0501                                               status 0004D8  
          CAN1_SetTxAttemptInterruptHandler@handler 0582                            ReadMessageFromFifo@msgId 0513  
                         __size_of_TEMPORIZATION_1s 00CA                           __size_of_TEMPORIZATION_5s 0006  
                                   _TMR1_WriteTimer 3888                        ??_CAN1_TX_FIFO_Configuration 0582  
                                      __end_of_FIFO 260C                                        __end_of_LEDS 3354  
                                     _Init_hardware 376A                                     __initialization 36DA  
                                 __end_of_DLC_BYTES 260A                                 CAN1_Transmit@status 051A  
                                 CANWriteMessage@id 051E             CAN1_ReceivedMessageCountGet@rxMsgStatus 0505  
                                      __end_of_main 3ADA                         CAN1_RX_FIFO_ResetInfo@index 0582  
                              _TEMPORIZATION_30mins 3BD8                                _TEMPORIZATION_15mins 3BDC  
                                            ??_LEDS 0501                     __end_of_DefaultTxAttemptHandler 3BE0  
                       ?_INTERRUPT_InterruptManager 0501                                       _CAN1_Transmit 33EC  
                   fp__DefaultInvalidMessageHandler 0000                       ?_DefaultInvalidMessageHandler 0501  
               __end_of_DefaultFIFO1NotEmptyHandler 3BCE                         _DefaultFIFO1NotEmptyHandler 3BC8  
                                   Receive@rxCanMsg 0519                                              ??_main 0586  
                                     __activetblptr 000003      __end_of_CAN1_SetInvalidMessageInterruptHandler 3B9E  
   __size_of_CAN1_SetInvalidMessageInterruptHandler 000A            ??_CAN1_SetInvalidMessageInterruptHandler 0584  
           ?_CAN1_SetInvalidMessageInterruptHandler 0582              _CAN1_SetInvalidMessageInterruptHandler 3B94  
                                         ??_SPEAKER 0501                                              _C1CONH 000101  
                                            _C1CONL 000100                                              _C1CONU 000102  
                                            _C1INTH 00011D                                              _C1INTL 00011C  
                                            _C1INTT 00011F                                              _C1INTU 00011E  
                 __size_of_DefaultModeChangeHandler 0002       CAN1_SetInvalidMessageInterruptHandler@handler 0582  
                                    ?_CAN1_IsBusOff 0501                           ?_DefaultModeChangeHandler 0501  
                          __size_of_GetTxFifoStatus 0018                 __size_of_CAN1_TX_FIFO_Configuration 0014  
                                            _ANSELA 000400                                              _ANSELB 000408  
                                            _ANSELC 000410                                              _T0CON0 00031A  
                                            _T0CON1 00031B                                              _T1GATE 000320  
                 fp__DefaultRxBufferOverflowHandler 0000                    ??_DefaultRxBufferOverflowHandler 0501  
                   ?_DefaultRxBufferOverflowHandler 0501                                              _T1GCON 00031F  
                                            _RB4PPS 00020D                         WriteMessageToFifo@txFifoObj 050C  
                           TMR1_WriteTimer@timerVal 0501                                              _ODCONA 000402  
                                            _ODCONB 00040A                                              _ODCONC 000412  
                                            i2l3100 38F8                                              i2l3110 2AA4  
                                            i2l3120 2AEE                                              i2l3112 2ABE  
                                            i2l3200 34D6                                              i2l3130 2B42  
                                            i2l3122 2AFC                                              i2l3114 2AC2  
                                            i2l3202 34D8                                              i2l3140 2B80  
                                            i2l3132 2B46                                              i2l3124 2B16  
                                            i2l3116 2AD0                                              i2l3108 2A94  
                                            i2l3060 389A                                              i2l3150 2BE4  
                                            i2l3142 2B9A                                              i2l3134 2B54  
                                            i2l3126 2B1A                                              i2l3118 2AEA  
                                            i2l2510 35FE                                              i2l3070 38B6  
                                            i2l3062 389E                                              i2l3144 2BAA  
                                            i2l3136 2B6E                                              i2l3128 2B28  
                                            i2l2512 3610                                              i2l2504 35D6  
                                            i2l3152 393C                                              i2l2520 3BB2  
                                            i2l2600 2E7C                                              i2l3080 3072  
                                            i2l3072 38CA                                              i2l3064 38A4  
                                            i2l3056 3888                                              i2l3146 2BBA  
                                            i2l3138 2B72                                              i2l2506 35EA  
                                            i2l2514 3614                                              i2l3154 394C  
                                            i2l2602 2E92                                              i2l2530 37E4  
                                            i2l3090 30CA                                              i2l3082 3094  
                                            i2l3074 3040                                              i2l3058 3898  
                                            i2l3066 38AA                                              i2l3250 320C  
                                            i2l3148 2BD4                                              i2l2612 3A46  
                                            i2l2508 35FA                                              i2l2620 2854  
                                            i2l2700 2CD8                                              i2l2516 3A96  
                                            i2l2604 2E96                                              i2l2540 264C  
                                            i2l2524 37B0                                              i2l3092 30D6  
                                            i2l3084 3098                                              i2l3076 3062  
                                            i2l3068 38AE                                              i2l3180 3818  
                                            i2l3172 37EC                                              i2l3260 326A  
                                            i2l3252 3222                                              i2l1590 362E  
                                            i2l2630 28D8                                              i2l2622 2864  
                                            i2l2710 2D20                                              i2l2702 2CDC  
                                            i2l2550 26A8                                              i2l2542 2662  
                                            i2l2534 260E                                              i2l2526 37B4  
                                            i2l3094 30F8                                              i2l3086 30A4  
                                            i2l3078 3066                                              i2l3190 34A0  
                                            i2l3182 381C                                              i2l3174 37EE  
                                            i2l3262 3278                                              i2l3254 3230  
                                            i2l3246 31EC                                              i2l2616 3AAE  
                                            i2l2640 2976                                              i2l2632 2906  
                                            i2l2624 2864                                              i2l2720 2D98  
                                            i2l2712 2D34                                              i2l2704 2CE4  
                                            i2l2800 3126                                              i2l2608 3AF0  
                                            i2l2560 2728                                              i2l2544 2676  
                                            i2l2552 26C0                                              i2l2536 2632  
                                            i2l2528 37C4                                              i2l3096 30FC  
                                            i2l3088 30C6                                              i2l3192 34A4  
                                            i2l3184 3480                                              i2l3176 37FA  
                                            i2l3256 3246                                              i2l3248 31FE  
                                            i2l2650 29DC                                              i2l2642 2990  
                                            i2l2634 2936                                              i2l2626 2882  
                                            i2l2722 2DA6                                              i2l2714 2D48  
                                            i2l2706 2CF2                                              i2l2810 315A  
                                            i2l2802 312E                                              i2l2570 27CE  
                                            i2l2562 273C                                              i2l2554 26F0  
                                            i2l2546 2688                                              i2l2538 2632  
                                            i2l2730 2E9A                                              i2l3098 38E4  
                                            i2l3194 34AC                                              i2l3186 3482  
                                            i2l3178 3814                                              i2l3258 3254  
                                            i2l2652 29EE                                              i2l2644 29A2  
                                            i2l2636 2954                                              i2l2628 28AC  
                                            i2l2724 2DBA                                              i2l2716 2D5A  
                                            i2l2708 2D0E                                              i2l2812 3184  
                                            i2l2820 31BA                                              i2l2804 313C  
                                            i2l3380 3324                                              i2l2900 2FF6  
                                            i2l2580 2DD8                                              i2l2572 27E0  
                                            i2l2564 2762                                              i2l2556 2702  
                                            i2l2548 2696                                              i2l2660 33EE  
                                            i2l2740 2F1A                                              i2l2732 2ED2  
                                            i2l3372 2CB6                                              i2l3196 34BC  
                                            i2l3188 349C                                              i2l2646 29BA  
                                            i2l2654 2A12                                              i2l2638 2962  
                                            i2l2718 2D84                                              i2l2726 2DBE  
                                            i2l2814 3196                                              i2l2806 3144  
                                            i2l2822 31BE                                              i2l2830 329A  
                                            i2l3374 3014                                              i2l2590 2E14  
                                            i2l2582 2DD8                                              i2l2574 27FA  
                                            i2l2566 2786                                              i2l2558 2710  
                                            i2l2670 3440                                              i2l2662 33EE  
                                            i2l2750 2F48                                              i2l2742 2F1C  
                                            i2l2734 2EF0                                              i2l3198 34CE  
                                            i2l2656 2A36                                              i2l2648 29C8  
                                            i2l2824 31C0                                              i2l2816 31A2  
                                            i2l2808 3152                                              i2l2832 32B0  
                                            i2l3376 3030                                              i2l2592 2E22  
                                            i2l2584 2DE6                                              i2l2576 2DC4  
                                            i2l2568 27AA                                              i2l2672 3452  
                                            i2l2664 3404                                              i2l2680 39BC  
                                            i2l2752 2F5E                                              i2l2744 2F30  
                                            i2l2736 2F04                                              i2l2658 2A7E  
                                            i2l2826 31D0                                              i2l2818 31B4  
                                            i2l2834 32D8                                              i2l3378 3022  
                                            i2l2594 2E36                                              i2l2586 2DFA  
                                            i2l2578 2DC8                                              i2l2674 3466  
                                            i2l2666 3414                                              i2l2682 39D2  
                                            i2l2754 2F6C                                              i2l2746 2F32  
                                            i2l2738 2F06                                              i2l2850 2BEA  
                                            i2l2780 368C                                              i2l2844 39DE  
                                            i2l2692 3ADA                                              i2l2596 2E38  
                                            i2l2588 2DFC                                              i2l2668 3424  
                                            i2l2684 39DA                                              i2l2748 2F46  
                                            i2l2852 2BEE                                              i2l2860 2CA2  
                                            i2l2790 36D6                                              i2l2782 36B0  
                                            i2l2838 3310                                              i2l2846 39F2  
                                            i2l2870 2F86                                              i2l2598 2E7A  
                                            i2l2678 39B8                                              i2l2854 2C2A  
                                            i2l2776 3688                                              i2l2848 39FC  
                                            i2l2880 2FC4                                              i2l2872 2FA2  
                                            i2l2688 3B06                                              i2l2696 3A62  
                                            i2l2856 2C66                                              _INLVLA 000404  
                                            i2l2786 36C4                                              i2l2794 310A  
                                            i2l2890 2FC4                                              i2l2882 2FC4  
                                            i2l2874 2FB4                                              i2l2866 2F70  
                                            _INLVLB 00040C                                              _INLVLC 000414  
                                            i2l2788 36C6                                              i2l2892 2FC4  
                                            i2l2884 2FC4                                              i2l2876 2FB4  
                                            i2l2868 2F72                                              _INLVLE 000424  
                                            i2l2798 3112                                              i2l2894 2FCC  
                                            i2l2886 2FC4                                              i2l2878 2FB4  
                                            i2l2896 2FE4                                              i2l2888 2FC4  
                                            i2l2984 3BC2                                              i2l2986 3BC8  
                           ??_CAN1_OperationModeGet 0582                                              _OSCFRQ 0000B1  
                    ??_CAN1_ReceivedMessageCountGet 0503                             ??_CAN1_OperationModeSet 0582  
                                         ??_Receive 051B                                      ?_Init_hardware 0501  
                       ??_CAN1_BitRateConfiguration 0582                __end_of_TMR1_DefaultInterruptHandler 3BD6  
             __size_of_TMR1_DefaultInterruptHandler 0002                        _TMR1_DefaultInterruptHandler 3BD4  
                             ?_TEMPORIZATION_30mins 0501                               ?_TEMPORIZATION_15mins 0501  
                __size_of_DefaultSystemErrorHandler 0002                                      ?_CAN1_Transmit 0518  
                                            _memcpy 35D6                                    ?_TMR0_Initialize 0501  
                                            clear_0 36FC                                              clear_1 3708  
                          ??_CAN1_RX_FIFO_ResetInfo 0582           CAN1_SetModeChangeInterruptHandler@handler 0582  
           CAN1_ReceivedMessageCountGet@totalMsgObj 0503                                           ?_CAN1_ISR 0501  
                                    _PMD_Initialize 398E                      __size_of_CAN1_IsTxErrorPassive 0016  
                     __size_of_ValidateTransmission 00D8                                        __mediumconst 0000  
                     __end_of_CAN1_IsTxErrorPassive 3B06                     __size_of_DefaultBusErrorHandler 0002  
                              __size_of_isTxChannel 003E                                              tblptrh 0004F7  
                                            tblptrl 0004F6                                              tblptru 0004F8  
                    __size_of_CAN1_IsTxErrorWarning 0016                               __end_of_TMR0_CallBack 3912  
                                isTxChannel@channel 0502                       __end_of_CAN1_IsTxErrorWarning 3AF0  
          TMR0_SetInterruptHandler@InterruptHandler 0582            TMR1_SetInterruptHandler@InterruptHandler 0582  
                           __end_of_TMR1_WriteTimer 38B6                       __size_of_INTERRUPT_Initialize 0004  
                                    _GetRxFifoDepth 3A44                               __end_of_TMR1_CallBack 38E4  
                                  ?_TMR1_Initialize 0501                                   _SYSTEM_Initialize 3A24  
                                        __accesstop 0560                             __end_of__initialization 371C  
                                   _PARAMETERS_Init 3BBC                                   ??_CAN1_Initialize 0585  
                         CANWriteMessage@dataLength 0522                                _CAN1_BusErrorHandler 0568  
                                ?_SYSTEM_Initialize 0501                                   ??_GetRxFifoStatus 0501  
                                     ___rparam_used 000001                              _CAN1_ModeChangeHandler 0566  
                                    __pcstackCOMRAM 0501                                        __pidataBANK5 3BD2  
                               ??_SYSTEM_Initialize 0586                                           ?_TMR0_ISR 0501  
                                         ?_TMR1_ISR 0501                     fp__TMR1_DefaultInterruptHandler 0000  
                     ?_TMR1_DefaultInterruptHandler 0501    __end_of_CAN1_SetRxBufferOverFlowInterruptHandler 3B8A  
 __size_of_CAN1_SetRxBufferOverFlowInterruptHandler 000A          ??_CAN1_SetRxBufferOverFlowInterruptHandler 0584  
         ?_CAN1_SetRxBufferOverFlowInterruptHandler 0582            _CAN1_SetRxBufferOverFlowInterruptHandler 3B80  
                      ??_CAN1_TransmitFIFOStatusGet 0503                                    ??_CANReadMessage 0526  
                            __end_of_PMD_Initialize 39B6                                          ??_CAN1_ISR 0501  
                             TMR0_ISR@CountCallBack 053C                           _CAN1_BitRateConfiguration 3B30  
                                Receive@rxMsgStatus 0520                __end_of_CAN1_SetFIFO1NotEmptyHandler 3B62  
             __size_of_CAN1_SetFIFO1NotEmptyHandler 000A                        _CAN1_SetFIFO1NotEmptyHandler 3B58  
                                   ??_CAN1_IsBusOff 0501         __end_of_CAN1_SetSystemErrorInterruptHandler 3B80  
      __size_of_CAN1_SetSystemErrorInterruptHandler 000A               ??_CAN1_SetSystemErrorInterruptHandler 0584  
              ?_CAN1_SetSystemErrorInterruptHandler 0582                 _CAN1_SetSystemErrorInterruptHandler 3B76  
                            __end_of_GetRxFifoDepth 3A62                           __end_of_SYSTEM_Initialize 3A44  
                                  Receive@rxFifoObj 051E                       __size_of_CAN1_IsTxErrorActive 001A  
                                        __pbssBANK5 0560                        ValidateTransmission@txCanMsg 0502  
                                _DELAY_milliseconds 3826                                          __pnvCOMRAM 055D  
                                   ??_Init_hardware 0585                    __size_of_DefaultTxAttemptHandler 0002  
                                  _TEMPORIZATION_1s 3040                                    _TEMPORIZATION_5s 3BC2  
                __end_of_CAN1_TX_FIFO_Configuration 3B30                          _CAN1_TX_FIFO_Configuration 3B1C  
                                 ??_GetTxFifoStatus 0501                 __size_of_CAN1_TransmitFIFOStatusGet 0028  
                                           IVTBASEH 00045E                                             IVTBASEL 00045D  
                                           IVTBASEU 00045F                                 _ReadMessageFromFifo 2854  
                            _DefaultBusErrorHandler 3BEA                                          _ucASSIName 054A  
                               ?_DELAY_milliseconds 0582                              ??_TEMPORIZATION_30mins 0501  
                            ??_TEMPORIZATION_15mins 0501                                     ??_CAN1_Transmit 051A  
                  __end_of_TMR0_SetInterruptHandler 3B58                       _CAN1_BusWakeUpActivityHandler 056A  
                                        ??_TMR0_ISR 0530                                          ??_TMR1_ISR 0503  
               CAN1_ReceivedMessageCountGet@channel 0506                        __size_of_TEMPORIZATION_1mins 0002  
                                           ?_memcpy 0501                                           _C1NBTCFGH 000105  
                                         _C1NBTCFGL 000104                                           _C1NBTCFGT 000107  
                                         _C1NBTCFGU 000106                                     ?_PMD_Initialize 0501  
                                   _CANWriteMessage 2E9A                     __size_of_CAN1_RX_FIFO_ResetInfo 002E  
                              ?_ReadMessageFromFifo 050C                                ??_DELAY_milliseconds 0584  
                                           _OSCCON1 0000AD                                             _OSCCON3 0000AF  
                                         _C1TXQCONH 000151                                           _C1TXQCONL 000150  
                             _CAN1_TxAttemptHandler 0562                                           _C1TXQCONT 000153  
                                         _C1TXQCONU 000152                             __end_of_PARAMETERS_Init 3BC2  
                                           _SPEAKER 39DE                                             _OSCTUNE 0000B0  
                                       _C1FIFOCON1H 00015D                                         _C1FIFOCON1L 00015C  
                                       _C1FIFOCON1T 00015F                                         _C1FIFOCON1U 00015E  
                                 CAN1_Receive@index 0525                                             _SLRCONA 000403  
                     ?_CAN1_SetFIFO1NotEmptyHandler 0582                                             _SLRCONB 00040B  
                                           _SLRCONC 000413                                     ?_GetRxFifoDepth 0501  
                                  ?_TMR1_WriteTimer 0501                                    CANReadMessage@id 0533  
                                      Receive@index 0521                                             _Receive 2CD6  
                                           __Hparam 0000                                             __Lparam 0000  
                      fp__DefaultSystemErrorHandler 0000                                        __psmallconst 2600  
                  __end_of_DefaultModeChangeHandler 3BE6                             WriteMessageToFifo@msgId 0514  
                                         _DLC_BYTES 2601                                             __pcinit 36DA  
                                   __size_of_memcpy 005A                                             __ramtop 2600  
                                           __ptext0 3AC4                                             __ptext1 3A24  
                                           __ptext2 3722                                             __ptext3 3B44  
                                           __ptext4 3966                                             __ptext5 3B4E  
                                           __ptext6 398E                                             __ptext7 357A  
                                           __ptext8 3A7C                                             __ptext9 3BCE  
                    ??_TMR1_DefaultInterruptHandler 0501                                           _T1CONbits 00031E  
                             ??_ReadMessageFromFifo 0510                               _OSCILLATOR_Initialize 3A7C  
                         _CAN1_FIFO1NotEmptyHandler 0548                         __size_of_WriteMessageToFifo 0246  
                                        _msgReceipt 054F                   __size_of_TMR1_SetInterruptHandler 000A  
                          ??_PIN_MANAGER_Initialize 0582                           ?_TMR1_SetInterruptHandler 0582  
                                           _rxFifos 0586                           ValidateTransmission@field 050A  
  CAN1_SetBusWakeUpActivityInterruptHandler@handler 0582                          __size_of_SYSTEM_Initialize 0020  
 __end_of_CAN1_SetBusWakeUpActivityInterruptHandler 3BA8  __size_of_CAN1_SetBusWakeUpActivityInterruptHandler 000A  
       ??_CAN1_SetBusWakeUpActivityInterruptHandler 0584          ?_CAN1_SetBusWakeUpActivityInterruptHandler 0582  
         _CAN1_SetBusWakeUpActivityInterruptHandler 3B9E                                end_of_initialization 371C  
              __size_of_DefaultFIFO1NotEmptyHandler 0006                        __size_of_MESSSAGES_ASSIState 00EC  
                                           memcpy@d 0507                                             memcpy@n 0505  
                                           memcpy@s 0509                              _CAN1_RX_FIFO_ResetInfo 385A  
                        GetRxFifoDepth@validChannel 0502                                         _C1TRECUbits 000136  
                    __size_of_CAN1_OperationModeGet 000A                      __size_of_CAN1_OperationModeSet 0098  
                     __end_of_CAN1_OperationModeGet 3B6C                       __end_of_CAN1_OperationModeSet 33EC  
                      ??_CAN1_RX_FIFO_Configuration 0584                        ReadMessageFromFifo@rxFifoObj 050C  
                           __end_of_CANWriteMessage 2F70                                             postdec2 0004DD  
            __end_of_DefaultRxBufferOverflowHandler 3BE4             __size_of_DefaultRxBufferOverflowHandler 0002  
                    _DefaultRxBufferOverflowHandler 3BE2                                             postinc0 0004EE  
                                           postinc2 0004DE                  __end_of_CAN1_TransmitFIFOStatusGet 39DE  
                        _CAN1_TransmitFIFOStatusGet 39B6                            _TMR0_SetInterruptHandler 3B4E  
                fp__DefaultBusWakeUpActivityHandler 0000             __end_of_DefaultBusWakeUpActivityHandler 3BEA  
          __size_of_DefaultBusWakeUpActivityHandler 0002                   ??_DefaultBusWakeUpActivityHandler 0501  
                  ?_DefaultBusWakeUpActivityHandler 0501                     _DefaultBusWakeUpActivityHandler 3BE8  
                  CAN1_TransmitFIFOStatusGet@status 0503                                     _CAN1_Initialize 3630  
                                 __size_of_CAN1_ISR 0156                                     _GetRxFifoStatus 3AAC  
                                  ?_PARAMETERS_Init 0501                            ?i2_CAN1_OperationModeGet 0501  
               __size_of_CAN1_RX_FIFO_Configuration 002A        __end_of_CAN1_RX_FIFO_FilterMaskConfiguration 3A24  
     __size_of_CAN1_RX_FIFO_FilterMaskConfiguration 0022               ?_CAN1_RX_FIFO_FilterMaskConfiguration 0501  
            ??_CAN1_RX_FIFO_FilterMaskConfiguration 0582                _CAN1_RX_FIFO_FilterMaskConfiguration 3A02  
                                    _ucASState_prev 054B                    ValidateTransmission@validChannel 0507  
                           _DefaultTxAttemptHandler 3BDE                          fp__DefaultTxAttemptHandler 0000  
                             CAN1_Transmit@txCanMsg 0518                        __end_of_ValidateTransmission 2E9A  
                   ValidateTransmission@txMsgStatus 0509                                         _CANDATAdata 0576  
                         fp__DefaultBusErrorHandler 0000                        __end_of_INTERRUPT_Initialize 3BD2  
                                 __size_of_TMR0_ISR 0080                                   __size_of_TMR1_ISR 003A  
              __end_of_CAN1_ReceivedMessageCountGet 31D4               __size_of_CAN1_ReceivedMessageCountGet 00CA  
                      _CAN1_ReceivedMessageCountGet 310A                                      __end_of_memcpy 3630  
                            ?_OSCILLATOR_Initialize 0501                                       ??_isTxChannel 0501  
                          __end_of_TEMPORIZATION_1s 310A                            __end_of_TEMPORIZATION_5s 3BC8  
     __end_of_CAN1_ErrorNotificationInterruptEnable 357A      __size_of_CAN1_ErrorNotificationInterruptEnable 007A  
            ?_CAN1_ErrorNotificationInterruptEnable 0501             ??_CAN1_ErrorNotificationInterruptEnable 0584  
             _CAN1_ErrorNotificationInterruptEnable 3500                            _DefaultModeChangeHandler 3BE4  
                       fp__DefaultModeChangeHandler 0000                                      Receive@channel 0518  
                               start_initialization 36DA                            __size_of_TMR0_Initialize 0028  
                   __size_of_PIN_MANAGER_Initialize 005C                                     _GetTxFifoStatus 3A94  
             CAN1_TransmitFIFOStatusGet@fifoChannel 0504                               _CAN1_IsTxErrorPassive 3AF0  
                                        ivt0x8_base 0008                                       ?_CAN1_RXI_ISR 0501  
                               _TEMPORIZATION_1mins 3BDA                               _CAN1_IsTxErrorWarning 3ADA  
                           ?_DefaultBusErrorHandler 0501          __end_of_CAN1_SetModeChangeInterruptHandler 3B94  
       __size_of_CAN1_SetModeChangeInterruptHandler 000A                ??_CAN1_SetModeChangeInterruptHandler 0584  
               ?_CAN1_SetModeChangeInterruptHandler 0582                  _CAN1_SetModeChangeInterruptHandler 3B8A  
                       ?_CAN1_TX_FIFO_Configuration 0501                                       ?_CAN1_Receive 0522  
                          __size_of_TMR1_Initialize 0048                                    ??_PMD_Initialize 0582  
                                  ?_CANWriteMessage 051E                        __end_of_CAN1_IsTxErrorActive 3A7C  
                            __size_of_TMR0_CallBack 002E                                ?_TEMPORIZATION_1mins 0501  
                                       __pdataBANK5 0586                             __end_of_CAN1_Initialize 3688  
                                          ??_memcpy 0507                              __size_of_TMR1_CallBack 002E  
                           __end_of_GetRxFifoStatus 3AC4                          ?_DefaultSystemErrorHandler 0501  
                                  ??_GetRxFifoDepth 0501                     __end_ofi2_CAN1_OperationModeGet 3BBC  
                     ?_CAN1_ReceivedMessageCountGet 0501                               TMR1_ISR@CountCallBack 0546  
                                       __pbssCOMRAM 053C                                       __pcstackBANK5 0582  
           CAN1_SetBusErrorInterruptHandler@handler 0582                                            ?_SPEAKER 0501  
                             __end_of_CAN1_IsBusOff 3B1C                           ??_DefaultTxAttemptHandler 0501  
                               __end_of_isTxChannel 37EC                                      ??_CAN1_RXI_ISR 0538  
                    __end_of_DefaultBusErrorHandler 3BEC                  __end_of_CAN1_RX_FIFO_Configuration 393C  
                        _CAN1_RX_FIFO_Configuration 3912                               _TMR0_InterruptHandler 057E  
                                    ??_CAN1_Receive 0524                                           __pnvBANK5 057E  
                             __end_of_Init_hardware 37AE                                            ?_Receive 0518  
                            _PIN_MANAGER_Initialize 357A                                        _uiCount30min 0544  
                                      _uiCount15min 0542                                            _C1FIFOBA 00014C  
                  __end_of_TMR1_SetInterruptHandler 3B4E                                           _ucASState 054C  
                                          _C1MASK1H 000199                                            _C1MASK1L 000198  
                                          _C1MASK1T 00019B                                            _C1MASK1U 00019A  
                             ??_TEMPORIZATION_1mins 0501                       __size_of_TEMPORIZATION_30mins 0002  
                     __size_of_TEMPORIZATION_15mins 0002                               __end_of_CAN1_Transmit 3480  
                               _MESSSAGES_ASSIState 2BEA                        ??_INTERRUPT_InterruptManager 0538  
                           __end_of_GetTxFifoStatus 3AAC                        ?_DefaultFIFO1NotEmptyHandler 0501  
              CAN1_ReceivedMessageCountGet@fifoHead 0509                                      _ucSpeakerCount 054D  
                                          _CAN1_ISR 2A94                   __end_of_DefaultSystemErrorHandler 3BE2  
              CAN1_ReceivedMessageCountGet@fifoTail 0508                                         __smallconst 2600  
                                        _C1FLTCON0H 000181                                          _C1FLTOBJ1H 000195  
                                        _C1FLTOBJ1L 000194                                          _C1FLTOBJ1T 000197  
                                        _C1FLTOBJ1U 000196                                          _C1CONHbits 000101  
                              _ValidateTransmission 2DC2                    CAN1_OperationModeSet@requestMode 0584  
                                          _CANRXPPS 00023D                                          _C1CONTbits 000103  
                                        _C1CONUbits 000102                         __size_of_DELAY_milliseconds 0034  
                            ?_CAN1_IsTxErrorPassive 0501                      ??_DefaultInvalidMessageHandler 0501  
                           ?_CAN1_RX_FIFO_ResetInfo 0501                             __size_of_CANReadMessage 00D0  
                            ?_CAN1_IsTxErrorWarning 0501                                       _TMR0_CallBack 38E4  
                                         _uiCount5s 053E                                          _C1INTHbits 00011D  
                                        _C1INTLbits 00011C                                ?_MESSSAGES_ASSIState 0501  
                              _INTERRUPT_Initialize 3BCE                                          _C1INTTbits 00011F  
                                        _C1INTUbits 00011E                                       _TMR1_CallBack 38B6  
              CAN1_ReceivedMessageCountGet@numOfMsg 0504                                   ??_TMR0_Initialize 0584  
                                          _LATBbits 0004BF                                            _LATCbits 0004C0  
                                          _PIE0bits 00049E                                            _PIE3bits 0004A1  
                                          _PIE4bits 0004A2                            __size_of_TMR1_WriteTimer 002E  
                                          i2u120_40 264C                                            i2u120_41 2648  
                                          i2u201_40 2AFC                                            i2u200_48 2AD6  
                                          i2u201_41 2AF8                                            i2u200_49 2AEA  
                                          i2u121_45 2666                                            i2u210_40 2BBA  
                                          i2u130_40 27FA                                            i2u210_41 2BB6  
                                          i2u130_41 27F6                                            i2u122_45 26AC  
                                          i2u203_40 2B28                                            i2u202_48 2B02  
                                          i2u131_40 2DE6                                            i2u123_40 275A  
                                          i2u203_41 2B24                                            i2u202_49 2B16  
                                          i2u131_41 2DE2                                            i2u123_41 2752  
                                          i2u212_40 2BE4                                            i2u211_48 2BC0  
                                          i2u132_40 2DFA                                            i2u124_40 2780  
                                          i2u123_48 275C                                            i2u212_41 2BE0  
                                          i2u211_49 2BD4                                            i2u132_41 2DF6  
                                          i2u124_41 2778                                            i2u205_40 2B54  
                                          i2u204_48 2B2E                                            i2u117_40 362E  
                                          i2u141_40 28BE                                            i2u140_48 2896  
                                          i2u213_40 394C                                            i2u133_40 2E14  
                                          i2u205_41 2B50                                            i2u204_49 2B42  
                                          i2u117_41 362A                                            i2u141_41 28B6  
                                          i2u213_41 3948                                            i2u133_41 2E10  
                                          i2u125_45 2782                                            i2u134_40 2E22  
                                          i2u126_40 27A4                                            i2u118_40 37C4  
                                          i2u150_40 3404                                            i2u222_40 31FE  
                                          i2u134_41 2E1E                                            i2u126_41 279C  
                                          i2u118_41 37C0                                            i2u150_41 3400  
                                          i2u222_41 31FA                                            i2u207_40 2B80  
                                          i2u206_48 2B5A                                            i2u143_40 28EA  
                                          i2u142_48 28C0                                            i2u214_48 3952  
                                          i2u135_40 2E36                                            i2u119_40 37E4  
                                          i2u151_40 3424                                            i2u215_40 3814  
                                          i2u223_40 320C                                            i2u207_41 2B7C  
                                          i2u206_49 2B6E                                            i2u143_41 28E2  
                                          i2u214_49 3964                                            i2u135_41 2E32  
                                          i2u119_41 37E0                                            i2u151_41 3420  
                                          i2u215_41 3810                                            i2u223_41 3208  
               __size_of_INTERRUPT_InterruptManager 00C6                                            i2u127_45 27A6  
                                          i2u160_40 2D84                                            i2u136_40 2E7A  
                                          i2u128_40 27C8                                            i2u152_40 3452  
                                          i2u216_40 349C                                            i2u224_40 3222  
                                          i2u160_41 2D80                                            i2u136_41 2E76  
                                          i2u128_41 27C0                                            i2u152_41 344E  
                                          i2u216_41 3498                                            i2u224_41 321E  
                                          i2u209_40 2BAA                                            i2u208_48 2B86  
                                          i2u145_40 2918                                            i2u144_48 28EC  
                                          i2u161_40 2DA6                                            i2u137_40 2E92  
                                          i2u153_40 39D2                                            i2u217_40 34BC  
                                          i2u225_40 3230                                            i2u209_41 2BA6  
                                          i2u208_49 2B9A                                            i2u145_41 2910  
                                          i2u161_41 2DA2                                            i2u137_41 2E8E  
                                          i2u153_41 39CE                                            i2u217_41 34B8  
                                          i2u225_41 322C                                            i2u129_45 27CA  
                                          i2u170_40 3152                                            i2u154_40 3B18  
                                          i2u138_40 3B02                                            i2u162_40 2F04  
                                          i2u218_40 34CE                                            i2u226_40 3246  
                                          i2u170_41 314E                                            i2u154_41 3B12  
                                          i2u138_41 3AFC                                            i2u162_41 2F00  
                                          i2u218_41 34CA                                            i2u226_41 3242  
                                          i2u154_46 3B1A                                            i2u138_46 3B04  
                                          i2u147_40 2990                                            i2u146_48 291A  
                                          i2u139_40 2894                                            i2u171_40 3196  
                                          i2u155_40 3AEC                                            i2u163_40 2F1A  
                                          i2u219_40 34E8                                            i2u227_40 3254  
                                          i2u147_41 298C                                            i2u139_41 288C  
                                          i2u171_41 3192                                            i2u155_41 3AE6  
                                          i2u163_41 2F16                                            i2u219_41 34E2  
                                          i2u227_41 3250                                            i2u155_46 3AEE  
                                          i2u219_46 34EA                                            i2u172_40 31B4  
                                          i2u156_40 3A78                                            i2u164_40 2F30  
                                          i2u228_40 326A                                            i2u172_41 31B0  
                                          i2u156_41 3A72                                            i2u164_41 2F2C  
                                          i2u228_41 3266                                            i2u148_45 2992  
                                          i2u173_40 31D0                                            i2u157_40 3A7A  
                                          i2u165_40 2F46                                            i2u229_40 3278  
                        ??_TMR0_SetInterruptHandler 0584                                            i2u173_41 31CC  
                                          i2u165_41 2F42                                            i2u229_41 3274  
                                          i2u149_45 29DE                                            i2u158_40 2CF2  
                                          i2u174_40 32C0                                            i2u166_40 2F5E  
                                          i2u190_40 3062                                            i2u158_41 2CEE  
                                          i2u174_41 32BA                                            i2u166_41 2F5A  
                                          i2u190_41 305E                                            i2u174_46 32C2  
                                          i2u159_40 2D20                                            i2u167_40 36C0  
                                          i2u175_40 32E8                                            i2u191_40 3094  
                                          i2u159_41 2D1C                                            i2u167_41 36BC  
                                          i2u175_41 32E2                                            i2u191_41 3090  
                                          _PIR0bits 0004AE                                            i2u175_46 32EA  
                                          i2u168_40 36D6                                            i2u176_40 39F0  
                                          i2u192_40 30C6                                            i2u168_41 36D2  
                                          i2u176_41 39EC                                            i2u192_41 30C2  
                                          i2u169_40 313C                                            i2u177_40 2F86  
                                          i2u193_40 30F8                                            i2u169_41 3138  
                                          i2u177_41 2F82                                            i2u193_41 30F4  
                                          i2u178_40 2FA2                                            i2u194_40 38F8  
                                          i2u178_41 2F9E                                            i2u194_41 38F4  
                                          i2u179_40 2FE4                                            i2u187_40 3898  
                                          i2u179_41 2FE0                                            i2u187_41 3894  
                                         _rxMsgData 056E                                            i2u195_48 38FE  
                                          i2u188_40 38CA                                            i2u195_49 3910  
                                          i2u188_41 38C6                                            i2u197_40 2AA4  
                                          i2u197_41 2AA0                                            _PIR3bits 0004B1  
                                          i2u189_48 38D0                                            i2u189_49 38E2  
                                          i2u199_40 2AD0                                            i2u198_48 2AAA  
                                          i2u199_41 2ACC                                            i2u198_49 2ABE  
                                          _PIR4bits 0004B2                      DELAY_milliseconds@milliseconds 0582  
                                          _TMR0_ISR 3480                                            _TMR1_ISR 37EC  
                       ?_CAN1_TransmitFIFOStatusGet 0501                         __end_of_ReadMessageFromFifo 2A94  
                                  ?_CAN1_Initialize 0501                                  CAN1_Receive@status 0524  
                                 ??_TMR1_Initialize 0584                          __end_of_WriteMessageToFifo 2854  
                                  ?_GetRxFifoStatus 0501                                         _isTxChannel 37AE  
                             ?_ValidateTransmission 0502                       ??_DefaultFIFO1NotEmptyHandler 0538  
                    __end_of_CAN1_RX_FIFO_ResetInfo 3888                                      ?_TMR0_CallBack 0501  
                                  __size_of_SPEAKER 0024                                         _INTCON0bits 0004D6  
                             ??_MESSSAGES_ASSIState 052C                               ?_INTERRUPT_Initialize 0501  
                              _CAN1_IsTxErrorActive 3A62                                      ?_TMR1_CallBack 0501  
                            _ucFlagEmergencySpeaker 054E                                       Receive@status 051D  
                                          __Hrparam 0000                    __size_ofi2_CAN1_OperationModeGet 000A  
                                  __size_of_Receive 00EC                                           memcpy@tmp 050B  
                             _CAN1_OperationModeGet 3B62                                            __Lrparam 0000  
                             _CAN1_OperationModeSet 3354                         GetTxFifoStatus@validChannel 0501  
                           _CAN1_SystemErrorHandler 0564                          ??_DefaultModeChangeHandler 0501  
                           ??_OSCILLATOR_Initialize 0582                                __end_of_CAN1_RXI_ISR 3966  
                          _TMR1_SetInterruptHandler 3B44                                    ?_GetTxFifoStatus 0501  
                             _TMR1_InterruptHandler 0580                                   ?_TEMPORIZATION_1s 0501  
                                 ?_TEMPORIZATION_5s 0501                                __end_of_CAN1_Receive 36DA  
                                        _T0CON0bits 00031A                            WriteMessageToFifo@status 0513  
                                          __pivt0x8 0008                                  ??_TEMPORIZATION_1s 052E  
                                ??_TEMPORIZATION_5s 052E                                         _uiCount1min 0540  
                                          __ptext10 3630                                            __ptext11 3B1C  
                                          __ptext20 3B76                                            __ptext12 385A  
                                          __ptext21 3B80                                            __ptext13 3A02  
                                        _T1GCONbits 00031F                                            __ptext30 31D4  
                                          __ptext22 3B8A                                            __ptext14 3912  
                                          __ptext31 37EC                                            __ptext23 3B94  
                                          __ptext15 3B58                                            __ptext40 2BEA  
                                          __ptext32 3888                                            __ptext24 3B9E  
                                          __ptext16 3354                                            __ptext41 2E9A  
                                          __ptext33 38B6                                            __ptext25 3BA8  
                                          __ptext17 3B62                                            __ptext50 3A62  
                                          __ptext42 39B6                                            __ptext34 3BD4  
                                          __ptext26 3B30                                            __ptext18 3500  
                                          __ptext51 3AF0                                            __ptext43 33EC  
                                          __ptext35 3480                                            __ptext27 3BBC  
                                          __ptext19 3B6C                                            __ptext60 329A  
                                          __ptext52 3B06                                            __ptext44 37AE  
                                          __ptext36 38E4                                            __ptext28 376A  
                                          __ptext61 310A                                            __ptext53 3BD8  
                                          __ptext45 260E                                            __ptext37 3BD6  
                                          __ptext29 3826                                            __ptext70 3BE0  
                                          __ptext62 3688                                            __ptext54 3BDA  
                                          __ptext46 2DC2                                            __ptext38 3040  
                                          __ptext71 3BE2                                            __ptext63 2CD6  
                                          __ptext55 3BDC                                            __ptext47 3BB2  
                                          __ptext39 3BC2                                            __ptext72 3BE4  
                                          __ptext64 2854                                            __ptext56 393C  
                                          __ptext48 3A94                                            __ptext73 3BE6  
                                          __ptext65 35D6                                            __ptext57 3BC8  
                                          __ptext49 3ADA                                            __ptext74 3BE8  
                                          __ptext66 3AAC                                            __ptext58 2F70  
                                          __ptext75 3BEA                                            __ptext67 3A44  
                                          __ptext59 39DE                                            __ptext76 0000  
                                          __ptext68 2A94                                            __ptext69 3BDE  
                       CAN1_OperationModeSet@opMode 0582                           ReadMessageFromFifo@status 0517  
                             ?_CAN1_IsTxErrorActive 0501                                       __size_of_LEDS 00BA  
                       CAN1_OperationModeSet@status 0583                                       __size_of_main 0016  
                          __size_of_PARAMETERS_Init 0006                __end_of_TMR0_DefaultInterruptHandler 3BD8  
             __size_of_TMR0_DefaultInterruptHandler 0002                        _TMR0_DefaultInterruptHandler 3BD6  
                __end_of_INTERRUPT_InterruptManager 329A                          _INTERRUPT_InterruptManager 31D4  
                                       _msgTransmit 0556                                   ??_TMR1_WriteTimer 0503  
                       ??_DefaultSystemErrorHandler 0501                              ??_ValidateTransmission 0504  
                                   ??_TMR0_CallBack 0501                        _CAN1_RxBufferOverflowHandler 0560  
                                          memcpy@d1 0501                                            memcpy@s1 0503  
                            ??_INTERRUPT_Initialize 0582                                      _CANReadMessage 2F70  
                                   ??_TMR1_CallBack 0501                                            intlevel2 0000  
                                     _C1TXQSTALbits 000154                             ?_PIN_MANAGER_Initialize 0501  
                       ?_CAN1_RX_FIFO_Configuration 0501                  __size_of_CAN1_BitRateConfiguration 0014  
                    ??_CAN1_SetFIFO1NotEmptyHandler 0584                              ?_CAN1_OperationModeGet 0501  
                        ?_CAN1_BitRateConfiguration 0501                              ?_CAN1_OperationModeSet 0501  
                   fp__TMR0_DefaultInterruptHandler 0000                       ?_TMR0_DefaultInterruptHandler 0501  
                       ReadMessageFromFifo@rxCanMsg 050E                             ??_CAN1_IsTxErrorPassive 0501  
                          __size_of_CANWriteMessage 00D6                            CAN1_Transmit@fifoChannel 051D  
                                   _TMR0_Initialize 3966                              __end_of_CANReadMessage 3040  
                           ??_CAN1_IsTxErrorWarning 0501                                CAN1_Receive@rxCanMsg 0522  
             CAN1_ReceivedMessageCountGet@fifoDepth 0507                              ??_CAN1_IsTxErrorActive 0501  
                      __end_of_TEMPORIZATION_30mins 3BDA                        __end_of_TEMPORIZATION_15mins 3BDE  
   CAN1_SetRxBufferOverFlowInterruptHandler@handler 0582                                     _C1FIFOSTA1Lbits 000160  
                    __end_of_PIN_MANAGER_Initialize 35D6                      fp__DefaultFIFO1NotEmptyHandler 0000  
                         _DefaultSystemErrorHandler 3BE0                         __end_of_TEMPORIZATION_1mins 3BDC  
                           i2_CAN1_OperationModeGet 3BB2                                     _TMR1_Initialize 3722  
                             __size_of_CAN1_RXI_ISR 002A                   __end_of_CAN1_BitRateConfiguration 3B44  
