

Microchip MPLAB XC8 Assembler V2.30 build 20200825195618 
                                                                                               Fri Dec 10 14:22:38 2021

Microchip MPLAB XC8 C Compiler v2.30 (Free license) build 20200825195618 Og1 
     1                           	processor	18F26Q84
     2                           	fnconf	rparam,??,?,0
     3                           	pagewidth 120
     4                           	opt	flic
     5                           	psect	idataBANK5,global,class=CODE,delta=1,noexec
     6                           	psect	smallconst,global,reloc=2,class=SMALLCONST,delta=1,noexec
     7                           	psect	nvCOMRAM,global,class=COMRAM,space=1,delta=1,lowdata,noexec
     8                           	psect	nvBANK5,global,class=BANK5,space=1,delta=1,lowdata,noexec
     9                           	psect	cinit,global,reloc=2,class=CODE,delta=1
    10                           	psect	bssCOMRAM,global,class=COMRAM,space=1,delta=1,lowdata,noexec
    11                           	psect	bssBANK5,global,class=BANK5,space=1,delta=1,lowdata,noexec
    12                           	psect	dataBANK5,global,class=BANK5,space=1,delta=1,lowdata,noexec
    13                           	psect	cstackBANK5,global,class=BANK5,space=1,delta=1,lowdata,noexec
    14                           	psect	cstackCOMRAM,global,class=COMRAM,space=1,delta=1,lowdata,noexec
    15                           	psect	text0,global,reloc=2,class=CODE,delta=1
    16                           	psect	text1,global,reloc=2,class=CODE,delta=1
    17                           	psect	text2,global,reloc=2,class=CODE,delta=1
    18                           	psect	text3,global,reloc=2,class=CODE,delta=1
    19                           	psect	text4,global,reloc=2,class=CODE,delta=1
    20                           	psect	text5,global,reloc=2,class=CODE,delta=1
    21                           	psect	text6,global,reloc=2,class=CODE,delta=1
    22                           	psect	text7,global,reloc=2,class=CODE,delta=1
    23                           	psect	text8,global,reloc=2,class=CODE,delta=1
    24                           	psect	text9,global,reloc=2,class=CODE,delta=1
    25                           	psect	text10,global,reloc=2,class=CODE,delta=1
    26                           	psect	text11,global,reloc=2,class=CODE,delta=1
    27                           	psect	text12,global,reloc=2,class=CODE,delta=1
    28                           	psect	text13,global,reloc=2,class=CODE,delta=1
    29                           	psect	text14,global,reloc=2,class=CODE,delta=1
    30                           	psect	text15,global,reloc=2,class=CODE,delta=1
    31                           	psect	text16,global,reloc=2,class=CODE,delta=1
    32                           	psect	text17,global,reloc=2,class=CODE,delta=1
    33                           	psect	text18,global,reloc=2,class=CODE,delta=1
    34                           	psect	text19,global,reloc=2,class=CODE,delta=1
    35                           	psect	text20,global,reloc=2,class=CODE,delta=1
    36                           	psect	text21,global,reloc=2,class=CODE,delta=1
    37                           	psect	text22,global,reloc=2,class=CODE,delta=1
    38                           	psect	text23,global,reloc=2,class=CODE,delta=1
    39                           	psect	text24,global,reloc=2,class=CODE,delta=1
    40                           	psect	text25,global,reloc=2,class=CODE,delta=1
    41                           	psect	text26,global,reloc=2,class=CODE,delta=1
    42                           	psect	text27,global,reloc=2,class=CODE,delta=1
    43                           	psect	text28,global,reloc=2,class=CODE,delta=1
    44                           	psect	text29,global,reloc=2,class=CODE,delta=1
    45                           	psect	text30,global,reloc=2,class=CODE,delta=1
    46                           	psect	text31,global,reloc=2,class=CODE,delta=1
    47                           	psect	text32,global,reloc=2,class=CODE,delta=1
    48                           	psect	text33,global,reloc=2,class=CODE,delta=1
    49                           	psect	text34,global,reloc=2,class=CODE,delta=1
    50                           	psect	text35,global,reloc=2,class=CODE,delta=1
    51                           	psect	text36,global,reloc=2,class=CODE,delta=1
    52                           	psect	text37,global,reloc=2,class=CODE,delta=1
    53                           	psect	text38,global,reloc=2,class=CODE,delta=1
    54                           	psect	text39,global,reloc=2,class=CODE,delta=1
    55                           	psect	text40,global,reloc=2,class=CODE,delta=1
    56                           	psect	text41,global,reloc=2,class=CODE,delta=1
    57                           	psect	text42,global,reloc=2,class=CODE,delta=1
    58                           	psect	text43,global,reloc=2,class=CODE,delta=1
    59                           	psect	text44,global,reloc=2,class=CODE,delta=1
    60                           	psect	text45,global,reloc=2,class=CODE,delta=1
    61                           	psect	text46,global,reloc=2,class=CODE,delta=1
    62                           	psect	text47,global,reloc=2,class=CODE,delta=1
    63                           	psect	text48,global,reloc=2,class=CODE,delta=1
    64                           	psect	text49,global,reloc=2,class=CODE,delta=1
    65                           	psect	text50,global,reloc=2,class=CODE,delta=1
    66                           	psect	text51,global,reloc=2,class=CODE,delta=1
    67                           	psect	text52,global,reloc=2,class=CODE,delta=1,group=2
    68                           	psect	text53,global,reloc=2,class=CODE,delta=1
    69                           	psect	text54,global,reloc=2,class=CODE,delta=1
    70                           	psect	text55,global,reloc=2,class=CODE,delta=1
    71                           	psect	text56,global,reloc=2,class=CODE,delta=1
    72                           	psect	text57,global,reloc=2,class=CODE,delta=1
    73                           	psect	text58,global,reloc=2,class=CODE,delta=1
    74                           	psect	text59,global,reloc=2,class=CODE,delta=1
    75                           	psect	text60,global,reloc=2,class=CODE,delta=1
    76                           	psect	text61,global,reloc=2,class=CODE,delta=1
    77                           	psect	text62,global,reloc=2,class=CODE,delta=1
    78                           	psect	ivt0x8,global,reloc=2,class=CODE,delta=1,noexec,keep,optim=
    79                           	psect	intsave_regs,global,class=BIGRAM,space=1,delta=1,noexec
    80                           	psect	text63,global,reloc=2,class=CODE,delta=1
    81                           	psect	rparam,global,class=COMRAM,space=1,delta=1,noexec
    82                           	psect	idloc,global,abs,ovrld,class=IDLOC,space=5,delta=1,noexec
    83                           	psect	config,global,abs,ovrld,class=CONFIG,space=4,delta=1,noexec
    84  0000                     
    85                           ; Version 2.32
    86                           ; Generated 10/02/2021 GMT
    87                           ; 
    88                           ; Copyright © 2021, Microchip Technology Inc. and its subsidiaries ("Microchip")
    89                           ; All rights reserved.
    90                           ; 
    91                           ; This software is developed by Microchip Technology Inc. and its subsidiaries ("Microch
      +                          ip").
    92                           ; 
    93                           ; Redistribution and use in source and binary forms, with or without modification, are
    94                           ; permitted provided that the following conditions are met:
    95                           ; 
    96                           ;     1. Redistributions of source code must retain the above copyright notice, this lis
      +                          t of
    97                           ;        conditions and the following disclaimer.
    98                           ; 
    99                           ;     2. Redistributions in binary form must reproduce the above copyright notice, this 
      +                          list
   100                           ;        of conditions and the following disclaimer in the documentation and/or other
   101                           ;        materials provided with the distribution. Publication is not required when
   102                           ;        this file is used in an embedded application.
   103                           ; 
   104                           ;     3. Microchip's name may not be used to endorse or promote products derived from th
      +                          is
   105                           ;        software without specific prior written permission.
   106                           ; 
   107                           ; THIS SOFTWARE IS PROVIDED BY MICROCHIP "AS IS" AND ANY EXPRESS OR IMPLIED WARRANTIES,
   108                           ; INCLUDING, BUT NOT LIMITED TO, THE IMPLIED WARRANTIES OF MERCHANTABILITY AND FITNESS F
      +                          OR
   109                           ; PURPOSE ARE DISCLAIMED.  IN NO EVENT SHALL MICROCHIP BE LIABLE FOR ANY DIRECT, INDIREC
      +                          T,
   110                           ; INCIDENTAL, SPECIAL, EXEMPLARY, OR CONSEQUENTIAL DAMAGES (INCLUDING BUT NOT LIMITED TO
   111                           ; PROCUREMENT OF SUBSTITUTE GOODS OR SERVICES; LOSS OF USE, DATA OR PROFITS; OR BUSINESS
   112                           ; INTERRUPTION) HOWSOEVER CAUSED AND ON ANY THEORY OF LIABILITY, WHETHER IN CONTRACT, ST
      +                          RICT
   113                           ; LIABILITY, OR TORT (INCLUDING NEGLIGENCE OR OTHERWISE) ARISING IN ANY WAY OUT OF THE U
      +                          SE OF
   114                           ; THIS SOFTWARE, EVEN IF ADVISED OF THE POSSIBILITY OF SUCH DAMAGE.
   115                           ; 
   116                           ; 
   117                           ; Code-generator required, PIC18F26Q84 Definitions
   118                           ; 
   119                           ; SFR Addresses
   120  0000                     
   121                           	psect	idataBANK5
   122  003568                     __pidataBANK5:
   123                           	callstack 0
   124                           
   125                           ;initializer for _rxFifos
   126  003568  01                 	db	1
   127  003569  00                 	db	0
   128                           
   129                           	psect	smallconst
   130  002600                     __psmallconst:
   131                           	callstack 0
   132  002600  00                 	db	0
   133  002601                     _DLC_BYTES:
   134                           	callstack 0
   135  002601  00                 	db	0
   136  002602  01                 	db	1
   137  002603  02                 	db	2
   138  002604  03                 	db	3
   139  002605  04                 	db	4
   140  002606  05                 	db	5
   141  002607  06                 	db	6
   142  002608  07                 	db	7
   143  002609  08                 	db	8
   144  00260A                     __end_of_DLC_BYTES:
   145                           	callstack 0
   146  00260A  50                 	db	80
   147  00260B  01                 	db	1
   148  00260C                     __end_of_FIFO:
   149                           	callstack 0
   150  00260C  00                 	db	0	; dummy byte at the end
   151  0000                     
   152                           	psect	nvCOMRAM
   153  00055D                     __pnvCOMRAM:
   154                           	callstack 0
   155  00055D                     _timer1ReloadVal:
   156                           	callstack 0
   157  00055D                     	ds	2
   158                           
   159                           	psect	nvBANK5
   160  00057E                     __pnvBANK5:
   161                           	callstack 0
   162  00057E                     _TMR0_InterruptHandler:
   163                           	callstack 0
   164  00057E                     	ds	2
   165  000580                     _TMR1_InterruptHandler:
   166                           	callstack 0
   167  000580                     	ds	2
   168  0000                     _PMD8	set	104
   169  0000                     _PMD7	set	103
   170  0000                     _PMD6	set	102
   171  0000                     _PMD5	set	101
   172  0000                     _PMD4	set	100
   173  0000                     _PMD3	set	99
   174  0000                     _PMD2	set	98
   175  0000                     _PMD1	set	97
   176  0000                     _PMD0	set	96
   177  0000                     _OSCTUNE	set	176
   178  0000                     _OSCFRQ	set	177
   179  0000                     _OSCEN	set	179
   180  0000                     _OSCCON3	set	175
   181  0000                     _OSCCON1	set	173
   182  0000                     _C1FIFOBA	set	332
   183  0000                     _C1FIFOSTA1Lbits	set	352
   184  0000                     _C1TXQSTALbits	set	340
   185  0000                     _C1INTLbits	set	284
   186  0000                     _C1INTTbits	set	287
   187  0000                     _C1TRECUbits	set	310
   188  0000                     _C1CONUbits	set	258
   189  0000                     _C1INTHbits	set	285
   190  0000                     _C1CONTbits	set	259
   191  0000                     _C1CONU	set	258
   192  0000                     _C1CONH	set	257
   193  0000                     _C1CONL	set	256
   194  0000                     _C1CONHbits	set	257
   195  0000                     _C1INTT	set	287
   196  0000                     _C1INTU	set	286
   197  0000                     _C1INTH	set	285
   198  0000                     _C1INTL	set	284
   199  0000                     _C1NBTCFGT	set	263
   200  0000                     _C1NBTCFGU	set	262
   201  0000                     _C1NBTCFGH	set	261
   202  0000                     _C1NBTCFGL	set	260
   203  0000                     _C1TXQCONT	set	339
   204  0000                     _C1TXQCONU	set	338
   205  0000                     _C1TXQCONH	set	337
   206  0000                     _C1FLTCON0H	set	385
   207  0000                     _C1MASK1T	set	411
   208  0000                     _C1MASK1U	set	410
   209  0000                     _C1MASK1H	set	409
   210  0000                     _C1MASK1L	set	408
   211  0000                     _C1FLTOBJ1T	set	407
   212  0000                     _C1FLTOBJ1U	set	406
   213  0000                     _C1FLTOBJ1H	set	405
   214  0000                     _C1FLTOBJ1L	set	404
   215  0000                     _C1INTUbits	set	286
   216  0000                     _C1FIFOCON1T	set	351
   217  0000                     _C1FIFOCON1U	set	350
   218  0000                     _C1FIFOCON1H	set	349
   219  0000                     _C1FIFOCON1L	set	348
   220  0000                     _C1TXQCONL	set	336
   221  0000                     _RB4PPS	set	525
   222  0000                     _CANRXPPS	set	573
   223  0000                     _T0CON0bits	set	794
   224  0000                     _T0CON0	set	794
   225  0000                     _TMR0L	set	792
   226  0000                     _TMR0H	set	793
   227  0000                     _T0CON1	set	795
   228  0000                     _T1GCONbits	set	799
   229  0000                     _T1CONbits	set	798
   230  0000                     _T1CON	set	798
   231  0000                     _TMR1L	set	796
   232  0000                     _TMR1H	set	797
   233  0000                     _T1CLK	set	801
   234  0000                     _T1GATE	set	800
   235  0000                     _T1GCON	set	799
   236  0000                     _INLVLE	set	1060
   237  0000                     _INLVLC	set	1044
   238  0000                     _INLVLB	set	1036
   239  0000                     _INLVLA	set	1028
   240  0000                     _SLRCONC	set	1043
   241  0000                     _SLRCONB	set	1035
   242  0000                     _SLRCONA	set	1027
   243  0000                     _ODCONC	set	1042
   244  0000                     _ODCONB	set	1034
   245  0000                     _ODCONA	set	1026
   246  0000                     _WPUC	set	1041
   247  0000                     _WPUA	set	1025
   248  0000                     _WPUB	set	1033
   249  0000                     _WPUE	set	1057
   250  0000                     _ANSELA	set	1024
   251  0000                     _ANSELB	set	1032
   252  0000                     _ANSELC	set	1040
   253  0000                     _LATBbits	set	1215
   254  0000                     _TRISC	set	1224
   255  0000                     _TRISB	set	1223
   256  0000                     _TRISA	set	1222
   257  0000                     _TRISE	set	1226
   258  0000                     _LATC	set	1216
   259  0000                     _LATB	set	1215
   260  0000                     _LATA	set	1214
   261  0000                     _INTCON0bits	set	1238
   262  0000                     _PIE3bits	set	1185
   263  0000                     _PIR3bits	set	1201
   264  0000                     _LATCbits	set	1216
   265  0000                     _PIE0bits	set	1182
   266  0000                     _PIR0bits	set	1198
   267  0000                     _PIE4bits	set	1186
   268  0000                     _PIR4bits	set	1202
   269                           
   270                           ; #config settings
   271                           
   272                           	psect	cinit
   273  003144                     __pcinit:
   274                           	callstack 0
   275  003144                     start_initialization:
   276                           	callstack 0
   277  003144                     __initialization:
   278                           	callstack 0
   279                           
   280                           ; Initialize objects allocated to BANK5 (2 bytes)
   281                           ; load TBLPTR registers with __pidataBANK5
   282  003144  0E68               	movlw	low __pidataBANK5
   283  003146  6EF6               	movwf	tblptrl,c
   284  003148  0E35               	movlw	high __pidataBANK5
   285  00314A  6EF7               	movwf	tblptrh,c
   286  00314C  0E00               	movlw	low (__pidataBANK5 shr (0+16))
   287  00314E  6EF8               	movwf	tblptru,c
   288  003150  0009               	tblrd		*+	;fetch initializer
   289  003152  0061 F3D4  F586    	movff	tablat,__pdataBANK5
   290  003158  0009               	tblrd		*+	;fetch initializer
   291  00315A  0061 F3D4  F587    	movff	tablat,__pdataBANK5+1
   292                           
   293                           ; Clear objects allocated to BANK5 (30 bytes)
   294  003160  EE01  F160         	lfsr	0,__pbssBANK5
   295  003164  0E1E               	movlw	30
   296  003166                     clear_0:
   297  003166  6AEE               	clrf	postinc0,c
   298  003168  06E8               	decf	wreg,f,c
   299  00316A  E1FD               	bnz	clear_0
   300                           
   301                           ; Clear objects allocated to COMRAM (33 bytes)
   302  00316C  EE01  F13C         	lfsr	0,__pbssCOMRAM
   303  003170  0E21               	movlw	33
   304  003172                     clear_1:
   305  003172  6AEE               	clrf	postinc0,c
   306  003174  06E8               	decf	wreg,f,c
   307  003176  E1FD               	bnz	clear_1
   308                           
   309                           ;
   310                           ; Setup IVTBASE
   311                           ;
   312  003178  0104               	movlb	4
   313  00317A  0E08               	movlw	(ivt0x8_base shr 0)& (0+255)
   314  00317C  6F5D               	movwf	93,b
   315  00317E  0E00               	movlw	(ivt0x8_base shr (0+8))& (0+255)
   316  003180  6F5E               	movwf	94,b
   317  003182  0E00               	movlw	(ivt0x8_base shr (0+16))& (0+255)
   318  003184  6F5F               	movwf	95,b
   319  003186                     end_of_initialization:
   320                           	callstack 0
   321  003186                     __end_of__initialization:
   322                           	callstack 0
   323  003186  0100               	movlb	0
   324  003188  EF56  F01A         	goto	_main	;jump to C main() function
   325                           
   326                           	psect	bssCOMRAM
   327  00053C                     __pbssCOMRAM:
   328                           	callstack 0
   329  00053C                     TMR0_ISR@CountCallBack:
   330                           	callstack 0
   331  00053C                     	ds	2
   332  00053E                     _uiCount30s:
   333                           	callstack 0
   334  00053E                     	ds	2
   335  000540                     _uiCount1min:
   336                           	callstack 0
   337  000540                     	ds	2
   338  000542                     _uiCount15min:
   339                           	callstack 0
   340  000542                     	ds	2
   341  000544                     _uiCount30min:
   342                           	callstack 0
   343  000544                     	ds	2
   344  000546                     TMR1_ISR@CountCallBack:
   345                           	callstack 0
   346  000546                     	ds	2
   347  000548                     _CAN1_FIFO1NotEmptyHandler:
   348                           	callstack 0
   349  000548                     	ds	2
   350  00054A                     _ucASSIName:
   351                           	callstack 0
   352  00054A                     	ds	1
   353  00054B                     _ucASState_prev:
   354                           	callstack 0
   355  00054B                     	ds	1
   356  00054C                     _ucASState:
   357                           	callstack 0
   358  00054C                     	ds	1
   359  00054D                     _ucSpeakerCount:
   360                           	callstack 0
   361  00054D                     	ds	1
   362  00054E                     _ucFlagEmergencySpeaker:
   363                           	callstack 0
   364  00054E                     	ds	1
   365  00054F                     _msgReceipt:
   366                           	callstack 0
   367  00054F                     	ds	7
   368  000556                     _msgTransmit:
   369                           	callstack 0
   370  000556                     	ds	7
   371                           
   372                           	psect	bssBANK5
   373  000560                     __pbssBANK5:
   374                           	callstack 0
   375  000560                     _CAN1_RxBufferOverflowHandler:
   376                           	callstack 0
   377  000560                     	ds	2
   378  000562                     _CAN1_TxAttemptHandler:
   379                           	callstack 0
   380  000562                     	ds	2
   381  000564                     _CAN1_SystemErrorHandler:
   382                           	callstack 0
   383  000564                     	ds	2
   384  000566                     _CAN1_ModeChangeHandler:
   385                           	callstack 0
   386  000566                     	ds	2
   387  000568                     _CAN1_BusErrorHandler:
   388                           	callstack 0
   389  000568                     	ds	2
   390  00056A                     _CAN1_BusWakeUpActivityHandler:
   391                           	callstack 0
   392  00056A                     	ds	2
   393  00056C                     _CAN1_InvalidMessageHandler:
   394                           	callstack 0
   395  00056C                     	ds	2
   396  00056E                     _rxMsgData:
   397                           	callstack 0
   398  00056E                     	ds	8
   399  000576                     _CANDATAdata:
   400                           	callstack 0
   401  000576                     	ds	8
   402                           
   403                           	psect	dataBANK5
   404  000586                     __pdataBANK5:
   405                           	callstack 0
   406  000586                     _rxFifos:
   407                           	callstack 0
   408  000586                     	ds	2
   409                           
   410                           	psect	cstackBANK5
   411  000582                     __pcstackBANK5:
   412                           	callstack 0
   413  000582                     CAN1_RX_FIFO_ResetInfo@index:
   414                           	callstack 0
   415  000582                     CAN1_OperationModeSet@opMode:
   416                           	callstack 0
   417  000582                     CAN1_SetInvalidMessageInterruptHandler@handler:
   418                           	callstack 0
   419  000582                     CAN1_SetBusWakeUpActivityInterruptHandler@handler:
   420                           	callstack 0
   421  000582                     CAN1_SetBusErrorInterruptHandler@handler:
   422                           	callstack 0
   423  000582                     CAN1_SetModeChangeInterruptHandler@handler:
   424                           	callstack 0
   425  000582                     CAN1_SetSystemErrorInterruptHandler@handler:
   426                           	callstack 0
   427  000582                     CAN1_SetTxAttemptInterruptHandler@handler:
   428                           	callstack 0
   429  000582                     CAN1_SetRxBufferOverFlowInterruptHandler@handler:
   430                           	callstack 0
   431  000582                     CAN1_SetFIFO1NotEmptyHandler@handler:
   432                           	callstack 0
   433  000582                     TMR1_SetInterruptHandler@InterruptHandler:
   434                           	callstack 0
   435  000582                     TMR0_SetInterruptHandler@InterruptHandler:
   436                           	callstack 0
   437  000582                     DELAY_milliseconds@milliseconds:
   438                           	callstack 0
   439                           
   440                           ; 2 bytes @ 0x0
   441  000582                     	ds	1
   442  000583                     CAN1_OperationModeSet@status:
   443                           	callstack 0
   444                           
   445                           ; 1 bytes @ 0x1
   446  000583                     	ds	1
   447  000584                     ??_TMR1_Initialize:
   448  000584                     ??_DELAY_milliseconds:
   449  000584                     CAN1_OperationModeSet@requestMode:
   450                           	callstack 0
   451                           
   452                           ; 1 bytes @ 0x2
   453  000584                     	ds	1
   454  000585                     
   455                           ; 1 bytes @ 0x3
   456  000585                     	ds	1
   457  000586                     
   458                           ; 1 bytes @ 0x4
   459                           
   460                           	psect	cstackCOMRAM
   461  000501                     __pcstackCOMRAM:
   462                           	callstack 0
   463  000501                     ??_LEDS:
   464  000501                     ??_TEMPORIZATION_1s:
   465  000501                     ??_SPEAKER:
   466  000501                     ??_GetRxFifoDepth:
   467  000501                     GetRxFifoStatus@validChannel:
   468                           	callstack 0
   469  000501                     TMR1_WriteTimer@timerVal:
   470                           	callstack 0
   471  000501                     memcpy@d1:
   472                           	callstack 0
   473                           
   474                           ; 2 bytes @ 0x0
   475  000501                     	ds	1
   476  000502                     GetRxFifoDepth@validChannel:
   477                           	callstack 0
   478                           
   479                           ; 1 bytes @ 0x1
   480  000502                     	ds	1
   481  000503                     CAN1_ReceivedMessageCountGet@totalMsgObj:
   482                           	callstack 0
   483  000503                     memcpy@s1:
   484                           	callstack 0
   485                           
   486                           ; 2 bytes @ 0x2
   487  000503                     	ds	1
   488  000504                     CAN1_ReceivedMessageCountGet@numOfMsg:
   489                           	callstack 0
   490                           
   491                           ; 1 bytes @ 0x3
   492  000504                     	ds	1
   493  000505                     CAN1_ReceivedMessageCountGet@rxMsgStatus:
   494                           	callstack 0
   495  000505                     memcpy@n:
   496                           	callstack 0
   497                           
   498                           ; 2 bytes @ 0x4
   499  000505                     	ds	1
   500  000506                     CAN1_ReceivedMessageCountGet@channel:
   501                           	callstack 0
   502                           
   503                           ; 1 bytes @ 0x5
   504  000506                     	ds	1
   505  000507                     CAN1_ReceivedMessageCountGet@fifoDepth:
   506                           	callstack 0
   507  000507                     memcpy@d:
   508                           	callstack 0
   509                           
   510                           ; 2 bytes @ 0x6
   511  000507                     	ds	1
   512  000508                     CAN1_ReceivedMessageCountGet@fifoTail:
   513                           	callstack 0
   514                           
   515                           ; 1 bytes @ 0x7
   516  000508                     	ds	1
   517  000509                     CAN1_ReceivedMessageCountGet@fifoHead:
   518                           	callstack 0
   519  000509                     memcpy@s:
   520                           	callstack 0
   521                           
   522                           ; 2 bytes @ 0x8
   523  000509                     	ds	1
   524  00050A                     CAN1_ReceivedMessageCountGet@index:
   525                           	callstack 0
   526                           
   527                           ; 1 bytes @ 0x9
   528  00050A                     	ds	1
   529  00050B                     memcpy@tmp:
   530                           	callstack 0
   531                           
   532                           ; 1 bytes @ 0xA
   533  00050B                     	ds	1
   534  00050C                     ReadMessageFromFifo@rxFifoObj:
   535                           	callstack 0
   536                           
   537                           ; 2 bytes @ 0xB
   538  00050C                     	ds	2
   539  00050E                     ReadMessageFromFifo@rxCanMsg:
   540                           	callstack 0
   541                           
   542                           ; 2 bytes @ 0xD
   543  00050E                     	ds	2
   544  000510                     ??_ReadMessageFromFifo:
   545                           
   546                           ; 1 bytes @ 0xF
   547  000510                     	ds	3
   548  000513                     ReadMessageFromFifo@msgId:
   549                           	callstack 0
   550                           
   551                           ; 4 bytes @ 0x12
   552  000513                     	ds	4
   553  000517                     ReadMessageFromFifo@status:
   554                           	callstack 0
   555                           
   556                           ; 1 bytes @ 0x16
   557  000517                     	ds	1
   558  000518                     Receive@channel:
   559                           	callstack 0
   560                           
   561                           ; 1 bytes @ 0x17
   562  000518                     	ds	1
   563  000519                     Receive@rxCanMsg:
   564                           	callstack 0
   565                           
   566                           ; 2 bytes @ 0x18
   567  000519                     	ds	2
   568  00051B                     ??_Receive:
   569                           
   570                           ; 1 bytes @ 0x1A
   571  00051B                     	ds	2
   572  00051D                     Receive@status:
   573                           	callstack 0
   574                           
   575                           ; 1 bytes @ 0x1C
   576  00051D                     	ds	1
   577  00051E                     Receive@rxFifoObj:
   578                           	callstack 0
   579                           
   580                           ; 2 bytes @ 0x1D
   581  00051E                     	ds	2
   582  000520                     Receive@rxMsgStatus:
   583                           	callstack 0
   584                           
   585                           ; 1 bytes @ 0x1F
   586  000520                     	ds	1
   587  000521                     Receive@index:
   588                           	callstack 0
   589                           
   590                           ; 1 bytes @ 0x20
   591  000521                     	ds	1
   592  000522                     CAN1_Receive@rxCanMsg:
   593                           	callstack 0
   594                           
   595                           ; 2 bytes @ 0x21
   596  000522                     	ds	2
   597  000524                     CAN1_Receive@status:
   598                           	callstack 0
   599                           
   600                           ; 1 bytes @ 0x23
   601  000524                     	ds	1
   602  000525                     CAN1_Receive@index:
   603                           	callstack 0
   604                           
   605                           ; 1 bytes @ 0x24
   606  000525                     	ds	1
   607  000526                     ??_CANReadMessage:
   608                           
   609                           ; 1 bytes @ 0x25
   610  000526                     	ds	13
   611  000533                     CANReadMessage@id:
   612                           	callstack 0
   613                           
   614                           ; 4 bytes @ 0x32
   615  000533                     	ds	4
   616  000537                     CANReadMessage@data1:
   617                           	callstack 0
   618                           
   619                           ; 1 bytes @ 0x36
   620  000537                     	ds	1
   621  000538                     ??_INTERRUPT_InterruptManager:
   622                           
   623                           ; 1 bytes @ 0x37
   624  000538                     	ds	4
   625                           
   626 ;;
   627 ;;Main: autosize = 0, tempsize = 0, incstack = 0, save=0
   628 ;;
   629 ;; *************** function _main *****************
   630 ;; Defined at:
   631 ;;		line 79 in file "main.c"
   632 ;; Parameters:    Size  Location     Type
   633 ;;		None
   634 ;; Auto vars:     Size  Location     Type
   635 ;;		None
   636 ;; Return value:  Size  Location     Type
   637 ;;                  1    wreg      void 
   638 ;; Registers used:
   639 ;;		wreg, fsr2l, fsr2h, status,2, status,0, prodl, prodh, cstack
   640 ;; Tracked objects:
   641 ;;		On entry : 0/0
   642 ;;		On exit  : 0/0
   643 ;;		Unchanged: 0/0
   644 ;; Data sizes:     COMRAM   BANK5   BANK6   BANK7   BANK8   BANK9  BANK10  BANK11  BANK12  BANK13  BANK14  BANK15  BANK1
      +6  BANK17  BANK18  BANK19  BANK20  BANK21  BANK22  BANK23  BANK24  BANK25  BANK26  BANK27  BANK28  BANK29  BANK30  BANK3
      +1  BANK32  BANK33  BANK34  BANK35  BANK36  BANK37
   645 ;;      Params:         0       0       0       0       0       0       0       0       0       0       0       0       
      +0       0       0       0       0       0       0       0       0       0       0       0       0       0       0       
      +0       0       0       0       0       0       0
   646 ;;      Locals:         0       0       0       0       0       0       0       0       0       0       0       0       
      +0       0       0       0       0       0       0       0       0       0       0       0       0       0       0       
      +0       0       0       0       0       0       0
   647 ;;      Temps:          0       0       0       0       0       0       0       0       0       0       0       0       
      +0       0       0       0       0       0       0       0       0       0       0       0       0       0       0       
      +0       0       0       0       0       0       0
   648 ;;      Totals:         0       0       0       0       0       0       0       0       0       0       0       0       
      +0       0       0       0       0       0       0       0       0       0       0       0       0       0       0       
      +0       0       0       0       0       0       0
   649 ;;Total ram usage:        0 bytes
   650 ;; Hardware stack levels required when called:   12
   651 ;; This function calls:
   652 ;;		_Init_hardware
   653 ;;		_PARAMETERS_Init
   654 ;;		_SYSTEM_Initialize
   655 ;; This function is called by:
   656 ;;		Startup code after reset
   657 ;; This function uses a non-reentrant model
   658 ;;
   659                           
   660                           	psect	text0
   661  0034AC                     __ptext0:
   662                           	callstack 0
   663  0034AC                     _main:
   664                           	callstack 116
   665  0034AC                     
   666                           ;main.c: 82:     SYSTEM_Initialize();
   667  0034AC  EC1F  F01A         	call	_SYSTEM_Initialize	;wreg free
   668  0034B0                     
   669                           ;main.c: 85:     PARAMETERS_Init();
   670  0034B0  ECAC  F01A         	call	_PARAMETERS_Init	;wreg free
   671  0034B4                     
   672                           ;main.c: 92:     (INTCON0bits.GIE = 1);
   673  0034B4  8ED6               	bsf	214,7,c	;volatile
   674  0034B6                     
   675                           ;main.c: 98:     Init_hardware();
   676  0034B6  ECEA  F018         	call	_Init_hardware	;wreg free
   677  0034BA                     l720:
   678  0034BA  EF5D  F01A         	goto	l720
   679  0034BE  EF0D  F000         	goto	start
   680  0034C2                     __end_of_main:
   681                           	callstack 0
   682                           
   683 ;; *************** function _SYSTEM_Initialize *****************
   684 ;; Defined at:
   685 ;;		line 50 in file "mcc_generated_files/mcc.c"
   686 ;; Parameters:    Size  Location     Type
   687 ;;		None
   688 ;; Auto vars:     Size  Location     Type
   689 ;;		None
   690 ;; Return value:  Size  Location     Type
   691 ;;                  1    wreg      void 
   692 ;; Registers used:
   693 ;;		wreg, fsr2l, fsr2h, status,2, status,0, prodl, prodh, cstack
   694 ;; Tracked objects:
   695 ;;		On entry : 0/0
   696 ;;		On exit  : 0/0
   697 ;;		Unchanged: 0/0
   698 ;; Data sizes:     COMRAM   BANK5   BANK6   BANK7   BANK8   BANK9  BANK10  BANK11  BANK12  BANK13  BANK14  BANK15  BANK1
      +6  BANK17  BANK18  BANK19  BANK20  BANK21  BANK22  BANK23  BANK24  BANK25  BANK26  BANK27  BANK28  BANK29  BANK30  BANK3
      +1  BANK32  BANK33  BANK34  BANK35  BANK36  BANK37
   699 ;;      Params:         0       0       0       0       0       0       0       0       0       0       0       0       
      +0       0       0       0       0       0       0       0       0       0       0       0       0       0       0       
      +0       0       0       0       0       0       0
   700 ;;      Locals:         0       0       0       0       0       0       0       0       0       0       0       0       
      +0       0       0       0       0       0       0       0       0       0       0       0       0       0       0       
      +0       0       0       0       0       0       0
   701 ;;      Temps:          0       0       0       0       0       0       0       0       0       0       0       0       
      +0       0       0       0       0       0       0       0       0       0       0       0       0       0       0       
      +0       0       0       0       0       0       0
   702 ;;      Totals:         0       0       0       0       0       0       0       0       0       0       0       0       
      +0       0       0       0       0       0       0       0       0       0       0       0       0       0       0       
      +0       0       0       0       0       0       0
   703 ;;Total ram usage:        0 bytes
   704 ;; Hardware stack levels used:    1
   705 ;; Hardware stack levels required when called:   11
   706 ;; This function calls:
   707 ;;		_CAN1_Initialize
   708 ;;		_INTERRUPT_Initialize
   709 ;;		_OSCILLATOR_Initialize
   710 ;;		_PIN_MANAGER_Initialize
   711 ;;		_PMD_Initialize
   712 ;;		_TMR0_Initialize
   713 ;;		_TMR1_Initialize
   714 ;; This function is called by:
   715 ;;		_main
   716 ;; This function uses a non-reentrant model
   717 ;;
   718                           
   719                           	psect	text1
   720  00343E                     __ptext1:
   721                           	callstack 0
   722  00343E                     _SYSTEM_Initialize:
   723                           	callstack 116
   724  00343E                     
   725                           ;mcc_generated_files/mcc.c: 52:     INTERRUPT_Initialize();
   726  00343E  ECB2  F01A         	call	_INTERRUPT_Initialize	;wreg free
   727  003442  86C0               	bsf	192,3,c	;volatile
   728  003444                     
   729                           ;mcc_generated_files/mcc.c: 54:     PMD_Initialize();
   730  003444  ECFA  F019         	call	_PMD_Initialize	;wreg free
   731  003448                     
   732                           ;mcc_generated_files/mcc.c: 55:     PIN_MANAGER_Initialize();
   733  003448  ECF2  F017         	call	_PIN_MANAGER_Initialize	;wreg free
   734  00344C                     
   735                           ;mcc_generated_files/mcc.c: 56:     OSCILLATOR_Initialize();
   736  00344C  EC3E  F01A         	call	_OSCILLATOR_Initialize	;wreg free
   737  003450                     
   738                           ;mcc_generated_files/mcc.c: 57:     TMR1_Initialize();
   739  003450  ECC6  F018         	call	_TMR1_Initialize	;wreg free
   740  003454                     
   741                           ;mcc_generated_files/mcc.c: 58:     TMR0_Initialize();
   742  003454  ECE6  F019         	call	_TMR0_Initialize	;wreg free
   743  003458                     
   744                           ;mcc_generated_files/mcc.c: 59:     CAN1_Initialize();
   745  003458  EC4D  F018         	call	_CAN1_Initialize	;wreg free
   746  00345C  0012               	return		;funcret
   747  00345E                     __end_of_SYSTEM_Initialize:
   748                           	callstack 0
   749                           
   750 ;; *************** function _TMR1_Initialize *****************
   751 ;; Defined at:
   752 ;;		line 64 in file "mcc_generated_files/tmr1.c"
   753 ;; Parameters:    Size  Location     Type
   754 ;;		None
   755 ;; Auto vars:     Size  Location     Type
   756 ;;		None
   757 ;; Return value:  Size  Location     Type
   758 ;;                  1    wreg      void 
   759 ;; Registers used:
   760 ;;		wreg, status,2, status,0, cstack
   761 ;; Tracked objects:
   762 ;;		On entry : 0/0
   763 ;;		On exit  : 0/0
   764 ;;		Unchanged: 0/0
   765 ;; Data sizes:     COMRAM   BANK5   BANK6   BANK7   BANK8   BANK9  BANK10  BANK11  BANK12  BANK13  BANK14  BANK15  BANK1
      +6  BANK17  BANK18  BANK19  BANK20  BANK21  BANK22  BANK23  BANK24  BANK25  BANK26  BANK27  BANK28  BANK29  BANK30  BANK3
      +1  BANK32  BANK33  BANK34  BANK35  BANK36  BANK37
   766 ;;      Params:         0       0       0       0       0       0       0       0       0       0       0       0       
      +0       0       0       0       0       0       0       0       0       0       0       0       0       0       0       
      +0       0       0       0       0       0       0
   767 ;;      Locals:         0       0       0       0       0       0       0       0       0       0       0       0       
      +0       0       0       0       0       0       0       0       0       0       0       0       0       0       0       
      +0       0       0       0       0       0       0
   768 ;;      Temps:          0       2       0       0       0       0       0       0       0       0       0       0       
      +0       0       0       0       0       0       0       0       0       0       0       0       0       0       0       
      +0       0       0       0       0       0       0
   769 ;;      Totals:         0       2       0       0       0       0       0       0       0       0       0       0       
      +0       0       0       0       0       0       0       0       0       0       0       0       0       0       0       
      +0       0       0       0       0       0       0
   770 ;;Total ram usage:        2 bytes
   771 ;; Hardware stack levels used:    1
   772 ;; Hardware stack levels required when called:    9
   773 ;; This function calls:
   774 ;;		_TMR1_SetInterruptHandler
   775 ;; This function is called by:
   776 ;;		_SYSTEM_Initialize
   777 ;; This function uses a non-reentrant model
   778 ;;
   779                           
   780                           	psect	text2
   781  00318C                     __ptext2:
   782                           	callstack 0
   783  00318C                     _TMR1_Initialize:
   784                           	callstack 117
   785  00318C                     
   786                           ;mcc_generated_files/tmr1.c: 69:     T1GCON = 0x00;
   787  00318C  0E00               	movlw	0
   788  00318E  0103               	movlb	3	; () banked
   789  003190  6F1F               	movwf	31,b	;volatile
   790                           
   791                           ;mcc_generated_files/tmr1.c: 72:     T1GATE = 0x00;
   792  003192  0E00               	movlw	0
   793  003194  6F20               	movwf	32,b	;volatile
   794                           
   795                           ;mcc_generated_files/tmr1.c: 75:     T1CLK = 0x01;
   796  003196  0E01               	movlw	1
   797  003198  6F21               	movwf	33,b	;volatile
   798                           
   799                           ;mcc_generated_files/tmr1.c: 78:     TMR1H = 0x0B;
   800  00319A  0E0B               	movlw	11
   801  00319C  6F1D               	movwf	29,b	;volatile
   802                           
   803                           ;mcc_generated_files/tmr1.c: 81:     TMR1L = 0xDC;
   804  00319E  0EDC               	movlw	220
   805  0031A0  6F1C               	movwf	28,b	;volatile
   806  0031A2                     
   807                           ; BSR set to: 3
   808                           ;mcc_generated_files/tmr1.c: 84:     PIR3bits.TMR1IF = 0;
   809  0031A2  98B1               	bcf	177,4,c	;volatile
   810  0031A4                     
   811                           ; BSR set to: 3
   812                           ;mcc_generated_files/tmr1.c: 87:     timer1ReloadVal=(uint16_t)((TMR1H << 8) | TMR1L);
   813  0031A4  511C               	movf	28,w,b	;volatile
   814  0031A6  0060 FC74  F584    	movff	797,??_TMR1_Initialize	;volatile
   815  0031AC  0105               	movlb	5	; () banked
   816  0031AE  6B85               	clrf	(??_TMR1_Initialize+1)& (0+255),b
   817  0031B0  C584  F585         	movff	??_TMR1_Initialize,??_TMR1_Initialize+1
   818  0031B4  6B84               	clrf	??_TMR1_Initialize& (0+255),b
   819  0031B6  1184               	iorwf	??_TMR1_Initialize& (0+255),w,b
   820  0031B8  6E5D               	movwf	_timer1ReloadVal^(0+1280),c	;volatile
   821  0031BA  5185               	movf	(??_TMR1_Initialize+1)& (0+255),w,b
   822  0031BC  6E5E               	movwf	(_timer1ReloadVal+1)^(0+1280),c	;volatile
   823  0031BE                     
   824                           ; BSR set to: 5
   825                           ;mcc_generated_files/tmr1.c: 90:     PIE3bits.TMR1IE = 1;
   826  0031BE  88A1               	bsf	161,4,c	;volatile
   827  0031C0                     
   828                           ; BSR set to: 5
   829                           ;mcc_generated_files/tmr1.c: 93:     TMR1_SetInterruptHandler(TMR1_DefaultInterruptHandl
      +                          er);
   830  0031C0  0E6A               	movlw	low _TMR1_DefaultInterruptHandler
   831  0031C2  6F82               	movwf	TMR1_SetInterruptHandler@InterruptHandler& (0+255),b
   832  0031C4  0E35               	movlw	high _TMR1_DefaultInterruptHandler
   833  0031C6  6F83               	movwf	(TMR1_SetInterruptHandler@InterruptHandler+1)& (0+255),b
   834  0031C8  EC75  F01A         	call	_TMR1_SetInterruptHandler	;wreg free
   835  0031CC                     
   836                           ;mcc_generated_files/tmr1.c: 96:     T1CON = 0x21;
   837  0031CC  0E21               	movlw	33
   838  0031CE  0103               	movlb	3	; () banked
   839  0031D0  6F1E               	movwf	30,b	;volatile
   840  0031D2                     
   841                           ; BSR set to: 3
   842  0031D2  0012               	return		;funcret
   843  0031D4                     __end_of_TMR1_Initialize:
   844                           	callstack 0
   845                           
   846 ;; *************** function _TMR1_SetInterruptHandler *****************
   847 ;; Defined at:
   848 ;;		line 195 in file "mcc_generated_files/tmr1.c"
   849 ;; Parameters:    Size  Location     Type
   850 ;;  InterruptHan    2    0[BANK5 ] PTR FTN()void 
   851 ;;		 -> TMR1_DefaultInterruptHandler(1), 
   852 ;; Auto vars:     Size  Location     Type
   853 ;;		None
   854 ;; Return value:  Size  Location     Type
   855 ;;                  1    wreg      void 
   856 ;; Registers used:
   857 ;;		wreg, status,2, status,0
   858 ;; Tracked objects:
   859 ;;		On entry : 0/0
   860 ;;		On exit  : 0/0
   861 ;;		Unchanged: 0/0
   862 ;; Data sizes:     COMRAM   BANK5   BANK6   BANK7   BANK8   BANK9  BANK10  BANK11  BANK12  BANK13  BANK14  BANK15  BANK1
      +6  BANK17  BANK18  BANK19  BANK20  BANK21  BANK22  BANK23  BANK24  BANK25  BANK26  BANK27  BANK28  BANK29  BANK30  BANK3
      +1  BANK32  BANK33  BANK34  BANK35  BANK36  BANK37
   863 ;;      Params:         0       2       0       0       0       0       0       0       0       0       0       0       
      +0       0       0       0       0       0       0       0       0       0       0       0       0       0       0       
      +0       0       0       0       0       0       0
   864 ;;      Locals:         0       0       0       0       0       0       0       0       0       0       0       0       
      +0       0       0       0       0       0       0       0       0       0       0       0       0       0       0       
      +0       0       0       0       0       0       0
   865 ;;      Temps:          0       0       0       0       0       0       0       0       0       0       0       0       
      +0       0       0       0       0       0       0       0       0       0       0       0       0       0       0       
      +0       0       0       0       0       0       0
   866 ;;      Totals:         0       2       0       0       0       0       0       0       0       0       0       0       
      +0       0       0       0       0       0       0       0       0       0       0       0       0       0       0       
      +0       0       0       0       0       0       0
   867 ;;Total ram usage:        2 bytes
   868 ;; Hardware stack levels used:    1
   869 ;; Hardware stack levels required when called:    8
   870 ;; This function calls:
   871 ;;		Nothing
   872 ;; This function is called by:
   873 ;;		_TMR1_Initialize
   874 ;; This function uses a non-reentrant model
   875 ;;
   876                           
   877                           	psect	text3
   878  0034EA                     __ptext3:
   879                           	callstack 0
   880  0034EA                     _TMR1_SetInterruptHandler:
   881                           	callstack 117
   882  0034EA                     
   883                           ;mcc_generated_files/tmr1.c: 196:     TMR1_InterruptHandler = InterruptHandler;
   884  0034EA  C582  F580         	movff	TMR1_SetInterruptHandler@InterruptHandler,_TMR1_InterruptHandler
   885  0034EE  C583  F581         	movff	TMR1_SetInterruptHandler@InterruptHandler+1,_TMR1_InterruptHandler+1
   886  0034F2  0012               	return		;funcret
   887  0034F4                     __end_of_TMR1_SetInterruptHandler:
   888                           	callstack 0
   889                           
   890 ;; *************** function _TMR0_Initialize *****************
   891 ;; Defined at:
   892 ;;		line 64 in file "mcc_generated_files/tmr0.c"
   893 ;; Parameters:    Size  Location     Type
   894 ;;		None
   895 ;; Auto vars:     Size  Location     Type
   896 ;;		None
   897 ;; Return value:  Size  Location     Type
   898 ;;                  1    wreg      void 
   899 ;; Registers used:
   900 ;;		wreg, status,2, status,0, cstack
   901 ;; Tracked objects:
   902 ;;		On entry : 0/0
   903 ;;		On exit  : 0/0
   904 ;;		Unchanged: 0/0
   905 ;; Data sizes:     COMRAM   BANK5   BANK6   BANK7   BANK8   BANK9  BANK10  BANK11  BANK12  BANK13  BANK14  BANK15  BANK1
      +6  BANK17  BANK18  BANK19  BANK20  BANK21  BANK22  BANK23  BANK24  BANK25  BANK26  BANK27  BANK28  BANK29  BANK30  BANK3
      +1  BANK32  BANK33  BANK34  BANK35  BANK36  BANK37
   906 ;;      Params:         0       0       0       0       0       0       0       0       0       0       0       0       
      +0       0       0       0       0       0       0       0       0       0       0       0       0       0       0       
      +0       0       0       0       0       0       0
   907 ;;      Locals:         0       0       0       0       0       0       0       0       0       0       0       0       
      +0       0       0       0       0       0       0       0       0       0       0       0       0       0       0       
      +0       0       0       0       0       0       0
   908 ;;      Temps:          0       0       0       0       0       0       0       0       0       0       0       0       
      +0       0       0       0       0       0       0       0       0       0       0       0       0       0       0       
      +0       0       0       0       0       0       0
   909 ;;      Totals:         0       0       0       0       0       0       0       0       0       0       0       0       
      +0       0       0       0       0       0       0       0       0       0       0       0       0       0       0       
      +0       0       0       0       0       0       0
   910 ;;Total ram usage:        0 bytes
   911 ;; Hardware stack levels used:    1
   912 ;; Hardware stack levels required when called:    9
   913 ;; This function calls:
   914 ;;		_TMR0_SetInterruptHandler
   915 ;; This function is called by:
   916 ;;		_SYSTEM_Initialize
   917 ;; This function uses a non-reentrant model
   918 ;;
   919                           
   920                           	psect	text4
   921  0033CC                     __ptext4:
   922                           	callstack 0
   923  0033CC                     _TMR0_Initialize:
   924                           	callstack 117
   925  0033CC                     
   926                           ;mcc_generated_files/tmr0.c: 69:     T0CON1 = 0x4C;
   927  0033CC  0E4C               	movlw	76
   928  0033CE  0103               	movlb	3	; () banked
   929  0033D0  6F1B               	movwf	27,b	;volatile
   930                           
   931                           ;mcc_generated_files/tmr0.c: 72:     TMR0H = 0x98;
   932  0033D2  0E98               	movlw	152
   933  0033D4  6F19               	movwf	25,b	;volatile
   934                           
   935                           ;mcc_generated_files/tmr0.c: 75:     TMR0L = 0x00;
   936  0033D6  0E00               	movlw	0
   937  0033D8  6F18               	movwf	24,b	;volatile
   938  0033DA                     
   939                           ; BSR set to: 3
   940                           ;mcc_generated_files/tmr0.c: 78:     PIR3bits.TMR0IF = 0;
   941  0033DA  9EB1               	bcf	177,7,c	;volatile
   942  0033DC                     
   943                           ; BSR set to: 3
   944                           ;mcc_generated_files/tmr0.c: 81:     PIE3bits.TMR0IE = 1;
   945  0033DC  8EA1               	bsf	161,7,c	;volatile
   946  0033DE                     
   947                           ; BSR set to: 3
   948                           ;mcc_generated_files/tmr0.c: 84:     TMR0_SetInterruptHandler(TMR0_DefaultInterruptHandl
      +                          er);
   949  0033DE  0E6C               	movlw	low _TMR0_DefaultInterruptHandler
   950  0033E0  0105               	movlb	5	; () banked
   951  0033E2  6F82               	movwf	TMR0_SetInterruptHandler@InterruptHandler& (0+255),b
   952  0033E4  0E35               	movlw	high _TMR0_DefaultInterruptHandler
   953  0033E6  6F83               	movwf	(TMR0_SetInterruptHandler@InterruptHandler+1)& (0+255),b
   954  0033E8  EC7A  F01A         	call	_TMR0_SetInterruptHandler	;wreg free
   955  0033EC                     
   956                           ;mcc_generated_files/tmr0.c: 87:     T0CON0 = 0x80;
   957  0033EC  0E80               	movlw	128
   958  0033EE  0103               	movlb	3	; () banked
   959  0033F0  6F1A               	movwf	26,b	;volatile
   960  0033F2                     
   961                           ; BSR set to: 3
   962  0033F2  0012               	return		;funcret
   963  0033F4                     __end_of_TMR0_Initialize:
   964                           	callstack 0
   965                           
   966 ;; *************** function _TMR0_SetInterruptHandler *****************
   967 ;; Defined at:
   968 ;;		line 169 in file "mcc_generated_files/tmr0.c"
   969 ;; Parameters:    Size  Location     Type
   970 ;;  InterruptHan    2    0[BANK5 ] PTR FTN()void 
   971 ;;		 -> TMR0_DefaultInterruptHandler(1), 
   972 ;; Auto vars:     Size  Location     Type
   973 ;;		None
   974 ;; Return value:  Size  Location     Type
   975 ;;                  1    wreg      void 
   976 ;; Registers used:
   977 ;;		wreg, status,2, status,0
   978 ;; Tracked objects:
   979 ;;		On entry : 0/0
   980 ;;		On exit  : 0/0
   981 ;;		Unchanged: 0/0
   982 ;; Data sizes:     COMRAM   BANK5   BANK6   BANK7   BANK8   BANK9  BANK10  BANK11  BANK12  BANK13  BANK14  BANK15  BANK1
      +6  BANK17  BANK18  BANK19  BANK20  BANK21  BANK22  BANK23  BANK24  BANK25  BANK26  BANK27  BANK28  BANK29  BANK30  BANK3
      +1  BANK32  BANK33  BANK34  BANK35  BANK36  BANK37
   983 ;;      Params:         0       2       0       0       0       0       0       0       0       0       0       0       
      +0       0       0       0       0       0       0       0       0       0       0       0       0       0       0       
      +0       0       0       0       0       0       0
   984 ;;      Locals:         0       0       0       0       0       0       0       0       0       0       0       0       
      +0       0       0       0       0       0       0       0       0       0       0       0       0       0       0       
      +0       0       0       0       0       0       0
   985 ;;      Temps:          0       0       0       0       0       0       0       0       0       0       0       0       
      +0       0       0       0       0       0       0       0       0       0       0       0       0       0       0       
      +0       0       0       0       0       0       0
   986 ;;      Totals:         0       2       0       0       0       0       0       0       0       0       0       0       
      +0       0       0       0       0       0       0       0       0       0       0       0       0       0       0       
      +0       0       0       0       0       0       0
   987 ;;Total ram usage:        2 bytes
   988 ;; Hardware stack levels used:    1
   989 ;; Hardware stack levels required when called:    8
   990 ;; This function calls:
   991 ;;		Nothing
   992 ;; This function is called by:
   993 ;;		_TMR0_Initialize
   994 ;; This function uses a non-reentrant model
   995 ;;
   996                           
   997                           	psect	text5
   998  0034F4                     __ptext5:
   999                           	callstack 0
  1000  0034F4                     _TMR0_SetInterruptHandler:
  1001                           	callstack 117
  1002  0034F4                     
  1003                           ;mcc_generated_files/tmr0.c: 170:     TMR0_InterruptHandler = InterruptHandler;
  1004  0034F4  C582  F57E         	movff	TMR0_SetInterruptHandler@InterruptHandler,_TMR0_InterruptHandler
  1005  0034F8  C583  F57F         	movff	TMR0_SetInterruptHandler@InterruptHandler+1,_TMR0_InterruptHandler+1
  1006  0034FC  0012               	return		;funcret
  1007  0034FE                     __end_of_TMR0_SetInterruptHandler:
  1008                           	callstack 0
  1009                           
  1010 ;; *************** function _PMD_Initialize *****************
  1011 ;; Defined at:
  1012 ;;		line 76 in file "mcc_generated_files/mcc.c"
  1013 ;; Parameters:    Size  Location     Type
  1014 ;;		None
  1015 ;; Auto vars:     Size  Location     Type
  1016 ;;		None
  1017 ;; Return value:  Size  Location     Type
  1018 ;;                  1    wreg      void 
  1019 ;; Registers used:
  1020 ;;		wreg, status,2
  1021 ;; Tracked objects:
  1022 ;;		On entry : 0/0
  1023 ;;		On exit  : 0/0
  1024 ;;		Unchanged: 0/0
  1025 ;; Data sizes:     COMRAM   BANK5   BANK6   BANK7   BANK8   BANK9  BANK10  BANK11  BANK12  BANK13  BANK14  BANK15  BANK1
      +6  BANK17  BANK18  BANK19  BANK20  BANK21  BANK22  BANK23  BANK24  BANK25  BANK26  BANK27  BANK28  BANK29  BANK30  BANK3
      +1  BANK32  BANK33  BANK34  BANK35  BANK36  BANK37
  1026 ;;      Params:         0       0       0       0       0       0       0       0       0       0       0       0       
      +0       0       0       0       0       0       0       0       0       0       0       0       0       0       0       
      +0       0       0       0       0       0       0
  1027 ;;      Locals:         0       0       0       0       0       0       0       0       0       0       0       0       
      +0       0       0       0       0       0       0       0       0       0       0       0       0       0       0       
      +0       0       0       0       0       0       0
  1028 ;;      Temps:          0       0       0       0       0       0       0       0       0       0       0       0       
      +0       0       0       0       0       0       0       0       0       0       0       0       0       0       0       
      +0       0       0       0       0       0       0
  1029 ;;      Totals:         0       0       0       0       0       0       0       0       0       0       0       0       
      +0       0       0       0       0       0       0       0       0       0       0       0       0       0       0       
      +0       0       0       0       0       0       0
  1030 ;;Total ram usage:        0 bytes
  1031 ;; Hardware stack levels used:    1
  1032 ;; Hardware stack levels required when called:    8
  1033 ;; This function calls:
  1034 ;;		Nothing
  1035 ;; This function is called by:
  1036 ;;		_SYSTEM_Initialize
  1037 ;; This function uses a non-reentrant model
  1038 ;;
  1039                           
  1040                           	psect	text6
  1041  0033F4                     __ptext6:
  1042                           	callstack 0
  1043  0033F4                     _PMD_Initialize:
  1044                           	callstack 118
  1045  0033F4                     
  1046                           ;mcc_generated_files/mcc.c: 79:     PMD0 = 0x00;
  1047  0033F4  0E00               	movlw	0
  1048  0033F6  0100               	movlb	0	; () banked
  1049  0033F8  6F60               	movwf	96,b	;volatile
  1050                           
  1051                           ;mcc_generated_files/mcc.c: 81:     PMD1 = 0x00;
  1052  0033FA  0E00               	movlw	0
  1053  0033FC  6F61               	movwf	97,b	;volatile
  1054                           
  1055                           ;mcc_generated_files/mcc.c: 83:     PMD2 = 0x00;
  1056  0033FE  0E00               	movlw	0
  1057  003400  6F62               	movwf	98,b	;volatile
  1058                           
  1059                           ;mcc_generated_files/mcc.c: 85:     PMD3 = 0x00;
  1060  003402  0E00               	movlw	0
  1061  003404  6F63               	movwf	99,b	;volatile
  1062                           
  1063                           ;mcc_generated_files/mcc.c: 87:     PMD4 = 0x00;
  1064  003406  0E00               	movlw	0
  1065  003408  6F64               	movwf	100,b	;volatile
  1066                           
  1067                           ;mcc_generated_files/mcc.c: 89:     PMD5 = 0x00;
  1068  00340A  0E00               	movlw	0
  1069  00340C  6F65               	movwf	101,b	;volatile
  1070                           
  1071                           ;mcc_generated_files/mcc.c: 91:     PMD6 = 0x00;
  1072  00340E  0E00               	movlw	0
  1073  003410  6F66               	movwf	102,b	;volatile
  1074                           
  1075                           ;mcc_generated_files/mcc.c: 93:     PMD7 = 0x00;
  1076  003412  0E00               	movlw	0
  1077  003414  6F67               	movwf	103,b	;volatile
  1078                           
  1079                           ;mcc_generated_files/mcc.c: 95:     PMD8 = 0x00;
  1080  003416  0E00               	movlw	0
  1081  003418  6F68               	movwf	104,b	;volatile
  1082  00341A                     
  1083                           ; BSR set to: 0
  1084  00341A  0012               	return		;funcret
  1085  00341C                     __end_of_PMD_Initialize:
  1086                           	callstack 0
  1087                           
  1088 ;; *************** function _PIN_MANAGER_Initialize *****************
  1089 ;; Defined at:
  1090 ;;		line 55 in file "mcc_generated_files/pin_manager.c"
  1091 ;; Parameters:    Size  Location     Type
  1092 ;;		None
  1093 ;; Auto vars:     Size  Location     Type
  1094 ;;		None
  1095 ;; Return value:  Size  Location     Type
  1096 ;;                  1    wreg      void 
  1097 ;; Registers used:
  1098 ;;		wreg, status,2
  1099 ;; Tracked objects:
  1100 ;;		On entry : 0/0
  1101 ;;		On exit  : 0/0
  1102 ;;		Unchanged: 0/0
  1103 ;; Data sizes:     COMRAM   BANK5   BANK6   BANK7   BANK8   BANK9  BANK10  BANK11  BANK12  BANK13  BANK14  BANK15  BANK1
      +6  BANK17  BANK18  BANK19  BANK20  BANK21  BANK22  BANK23  BANK24  BANK25  BANK26  BANK27  BANK28  BANK29  BANK30  BANK3
      +1  BANK32  BANK33  BANK34  BANK35  BANK36  BANK37
  1104 ;;      Params:         0       0       0       0       0       0       0       0       0       0       0       0       
      +0       0       0       0       0       0       0       0       0       0       0       0       0       0       0       
      +0       0       0       0       0       0       0
  1105 ;;      Locals:         0       0       0       0       0       0       0       0       0       0       0       0       
      +0       0       0       0       0       0       0       0       0       0       0       0       0       0       0       
      +0       0       0       0       0       0       0
  1106 ;;      Temps:          0       0       0       0       0       0       0       0       0       0       0       0       
      +0       0       0       0       0       0       0       0       0       0       0       0       0       0       0       
      +0       0       0       0       0       0       0
  1107 ;;      Totals:         0       0       0       0       0       0       0       0       0       0       0       0       
      +0       0       0       0       0       0       0       0       0       0       0       0       0       0       0       
      +0       0       0       0       0       0       0
  1108 ;;Total ram usage:        0 bytes
  1109 ;; Hardware stack levels used:    1
  1110 ;; Hardware stack levels required when called:    8
  1111 ;; This function calls:
  1112 ;;		Nothing
  1113 ;; This function is called by:
  1114 ;;		_SYSTEM_Initialize
  1115 ;; This function uses a non-reentrant model
  1116 ;;
  1117                           
  1118                           	psect	text7
  1119  002FE4                     __ptext7:
  1120                           	callstack 0
  1121  002FE4                     _PIN_MANAGER_Initialize:
  1122                           	callstack 118
  1123  002FE4                     
  1124                           ;mcc_generated_files/pin_manager.c: 60:     LATA = 0x00;
  1125  002FE4  0E00               	movlw	0
  1126  002FE6  6EBE               	movwf	190,c	;volatile
  1127                           
  1128                           ;mcc_generated_files/pin_manager.c: 61:     LATB = 0x00;
  1129  002FE8  0E00               	movlw	0
  1130  002FEA  6EBF               	movwf	191,c	;volatile
  1131                           
  1132                           ;mcc_generated_files/pin_manager.c: 62:     LATC = 0x00;
  1133  002FEC  0E00               	movlw	0
  1134  002FEE  6EC0               	movwf	192,c	;volatile
  1135                           
  1136                           ;mcc_generated_files/pin_manager.c: 67:     TRISE = 0x08;
  1137  002FF0  0E08               	movlw	8
  1138  002FF2  6ECA               	movwf	202,c	;volatile
  1139  002FF4                     
  1140                           ;mcc_generated_files/pin_manager.c: 68:     TRISA = 0xFF;
  1141  002FF4  68C6               	setf	198,c	;volatile
  1142                           
  1143                           ;mcc_generated_files/pin_manager.c: 69:     TRISB = 0xE9;
  1144  002FF6  0EE9               	movlw	233
  1145  002FF8  6EC7               	movwf	199,c	;volatile
  1146                           
  1147                           ;mcc_generated_files/pin_manager.c: 70:     TRISC = 0xE7;
  1148  002FFA  0EE7               	movlw	231
  1149  002FFC  6EC8               	movwf	200,c	;volatile
  1150  002FFE                     
  1151                           ;mcc_generated_files/pin_manager.c: 75:     ANSELC = 0xFF;
  1152  002FFE  0104               	movlb	4	; () banked
  1153  003000  6910               	setf	16,b	;volatile
  1154                           
  1155                           ;mcc_generated_files/pin_manager.c: 76:     ANSELB = 0xF1;
  1156  003002  0EF1               	movlw	241
  1157  003004  6F08               	movwf	8,b	;volatile
  1158  003006                     
  1159                           ; BSR set to: 4
  1160                           ;mcc_generated_files/pin_manager.c: 77:     ANSELA = 0xFF;
  1161  003006  6900               	setf	0,b	;volatile
  1162                           
  1163                           ;mcc_generated_files/pin_manager.c: 82:     WPUE = 0x00;
  1164  003008  0E00               	movlw	0
  1165  00300A  6F21               	movwf	33,b	;volatile
  1166                           
  1167                           ;mcc_generated_files/pin_manager.c: 83:     WPUB = 0x00;
  1168  00300C  0E00               	movlw	0
  1169  00300E  6F09               	movwf	9,b	;volatile
  1170                           
  1171                           ;mcc_generated_files/pin_manager.c: 84:     WPUA = 0x00;
  1172  003010  0E00               	movlw	0
  1173  003012  6F01               	movwf	1,b	;volatile
  1174                           
  1175                           ;mcc_generated_files/pin_manager.c: 85:     WPUC = 0x00;
  1176  003014  0E00               	movlw	0
  1177  003016  6F11               	movwf	17,b	;volatile
  1178                           
  1179                           ;mcc_generated_files/pin_manager.c: 90:     ODCONA = 0x00;
  1180  003018  0E00               	movlw	0
  1181  00301A  6F02               	movwf	2,b	;volatile
  1182                           
  1183                           ;mcc_generated_files/pin_manager.c: 91:     ODCONB = 0x00;
  1184  00301C  0E00               	movlw	0
  1185  00301E  6F0A               	movwf	10,b	;volatile
  1186                           
  1187                           ;mcc_generated_files/pin_manager.c: 92:     ODCONC = 0x00;
  1188  003020  0E00               	movlw	0
  1189  003022  6F12               	movwf	18,b	;volatile
  1190  003024                     
  1191                           ; BSR set to: 4
  1192                           ;mcc_generated_files/pin_manager.c: 97:     SLRCONA = 0xFF;
  1193  003024  6903               	setf	3,b	;volatile
  1194  003026                     
  1195                           ; BSR set to: 4
  1196                           ;mcc_generated_files/pin_manager.c: 98:     SLRCONB = 0xFF;
  1197  003026  690B               	setf	11,b	;volatile
  1198  003028                     
  1199                           ; BSR set to: 4
  1200                           ;mcc_generated_files/pin_manager.c: 99:     SLRCONC = 0xFF;
  1201  003028  6913               	setf	19,b	;volatile
  1202  00302A                     
  1203                           ; BSR set to: 4
  1204                           ;mcc_generated_files/pin_manager.c: 104:     INLVLA = 0xFF;
  1205  00302A  6904               	setf	4,b	;volatile
  1206  00302C                     
  1207                           ; BSR set to: 4
  1208                           ;mcc_generated_files/pin_manager.c: 105:     INLVLB = 0xFF;
  1209  00302C  690C               	setf	12,b	;volatile
  1210  00302E                     
  1211                           ; BSR set to: 4
  1212                           ;mcc_generated_files/pin_manager.c: 106:     INLVLC = 0xFF;
  1213  00302E  6914               	setf	20,b	;volatile
  1214                           
  1215                           ;mcc_generated_files/pin_manager.c: 107:     INLVLE = 0x08;
  1216  003030  0E08               	movlw	8
  1217  003032  6F24               	movwf	36,b	;volatile
  1218                           
  1219                           ;mcc_generated_files/pin_manager.c: 116:     CANRXPPS = 0x0B;
  1220  003034  0E0B               	movlw	11
  1221  003036  0102               	movlb	2	; () banked
  1222  003038  6F3D               	movwf	61,b	;volatile
  1223                           
  1224                           ;mcc_generated_files/pin_manager.c: 117:     RB4PPS = 0x46;
  1225  00303A  0E46               	movlw	70
  1226  00303C  6F0D               	movwf	13,b	;volatile
  1227  00303E                     
  1228                           ; BSR set to: 2
  1229  00303E  0012               	return		;funcret
  1230  003040                     __end_of_PIN_MANAGER_Initialize:
  1231                           	callstack 0
  1232                           
  1233 ;; *************** function _OSCILLATOR_Initialize *****************
  1234 ;; Defined at:
  1235 ;;		line 62 in file "mcc_generated_files/mcc.c"
  1236 ;; Parameters:    Size  Location     Type
  1237 ;;		None
  1238 ;; Auto vars:     Size  Location     Type
  1239 ;;		None
  1240 ;; Return value:  Size  Location     Type
  1241 ;;                  1    wreg      void 
  1242 ;; Registers used:
  1243 ;;		wreg, status,2
  1244 ;; Tracked objects:
  1245 ;;		On entry : 0/0
  1246 ;;		On exit  : 0/0
  1247 ;;		Unchanged: 0/0
  1248 ;; Data sizes:     COMRAM   BANK5   BANK6   BANK7   BANK8   BANK9  BANK10  BANK11  BANK12  BANK13  BANK14  BANK15  BANK1
      +6  BANK17  BANK18  BANK19  BANK20  BANK21  BANK22  BANK23  BANK24  BANK25  BANK26  BANK27  BANK28  BANK29  BANK30  BANK3
      +1  BANK32  BANK33  BANK34  BANK35  BANK36  BANK37
  1249 ;;      Params:         0       0       0       0       0       0       0       0       0       0       0       0       
      +0       0       0       0       0       0       0       0       0       0       0       0       0       0       0       
      +0       0       0       0       0       0       0
  1250 ;;      Locals:         0       0       0       0       0       0       0       0       0       0       0       0       
      +0       0       0       0       0       0       0       0       0       0       0       0       0       0       0       
      +0       0       0       0       0       0       0
  1251 ;;      Temps:          0       0       0       0       0       0       0       0       0       0       0       0       
      +0       0       0       0       0       0       0       0       0       0       0       0       0       0       0       
      +0       0       0       0       0       0       0
  1252 ;;      Totals:         0       0       0       0       0       0       0       0       0       0       0       0       
      +0       0       0       0       0       0       0       0       0       0       0       0       0       0       0       
      +0       0       0       0       0       0       0
  1253 ;;Total ram usage:        0 bytes
  1254 ;; Hardware stack levels used:    1
  1255 ;; Hardware stack levels required when called:    8
  1256 ;; This function calls:
  1257 ;;		Nothing
  1258 ;; This function is called by:
  1259 ;;		_SYSTEM_Initialize
  1260 ;; This function uses a non-reentrant model
  1261 ;;
  1262                           
  1263                           	psect	text8
  1264  00347C                     __ptext8:
  1265                           	callstack 0
  1266  00347C                     _OSCILLATOR_Initialize:
  1267                           	callstack 118
  1268  00347C                     
  1269                           ;mcc_generated_files/mcc.c: 65:     OSCCON1 = 0x70;
  1270  00347C  0E70               	movlw	112
  1271  00347E  0100               	movlb	0	; () banked
  1272  003480  6FAD               	movwf	173,b	;volatile
  1273                           
  1274                           ;mcc_generated_files/mcc.c: 67:     OSCCON3 = 0x00;
  1275  003482  0E00               	movlw	0
  1276  003484  6FAF               	movwf	175,b	;volatile
  1277                           
  1278                           ;mcc_generated_files/mcc.c: 69:     OSCEN = 0x00;
  1279  003486  0E00               	movlw	0
  1280  003488  6FB3               	movwf	179,b	;volatile
  1281                           
  1282                           ;mcc_generated_files/mcc.c: 71:     OSCFRQ = 0x02;
  1283  00348A  0E02               	movlw	2
  1284  00348C  6FB1               	movwf	177,b	;volatile
  1285                           
  1286                           ;mcc_generated_files/mcc.c: 73:     OSCTUNE = 0x00;
  1287  00348E  0E00               	movlw	0
  1288  003490  6FB0               	movwf	176,b	;volatile
  1289  003492                     
  1290                           ; BSR set to: 0
  1291  003492  0012               	return		;funcret
  1292  003494                     __end_of_OSCILLATOR_Initialize:
  1293                           	callstack 0
  1294                           
  1295 ;; *************** function _INTERRUPT_Initialize *****************
  1296 ;; Defined at:
  1297 ;;		line 52 in file "mcc_generated_files/interrupt_manager.c"
  1298 ;; Parameters:    Size  Location     Type
  1299 ;;		None
  1300 ;; Auto vars:     Size  Location     Type
  1301 ;;		None
  1302 ;; Return value:  Size  Location     Type
  1303 ;;                  1    wreg      void 
  1304 ;; Registers used:
  1305 ;;		None
  1306 ;; Tracked objects:
  1307 ;;		On entry : 0/0
  1308 ;;		On exit  : 0/0
  1309 ;;		Unchanged: 0/0
  1310 ;; Data sizes:     COMRAM   BANK5   BANK6   BANK7   BANK8   BANK9  BANK10  BANK11  BANK12  BANK13  BANK14  BANK15  BANK1
      +6  BANK17  BANK18  BANK19  BANK20  BANK21  BANK22  BANK23  BANK24  BANK25  BANK26  BANK27  BANK28  BANK29  BANK30  BANK3
      +1  BANK32  BANK33  BANK34  BANK35  BANK36  BANK37
  1311 ;;      Params:         0       0       0       0       0       0       0       0       0       0       0       0       
      +0       0       0       0       0       0       0       0       0       0       0       0       0       0       0       
      +0       0       0       0       0       0       0
  1312 ;;      Locals:         0       0       0       0       0       0       0       0       0       0       0       0       
      +0       0       0       0       0       0       0       0       0       0       0       0       0       0       0       
      +0       0       0       0       0       0       0
  1313 ;;      Temps:          0       0       0       0       0       0       0       0       0       0       0       0       
      +0       0       0       0       0       0       0       0       0       0       0       0       0       0       0       
      +0       0       0       0       0       0       0
  1314 ;;      Totals:         0       0       0       0       0       0       0       0       0       0       0       0       
      +0       0       0       0       0       0       0       0       0       0       0       0       0       0       0       
      +0       0       0       0       0       0       0
  1315 ;;Total ram usage:        0 bytes
  1316 ;; Hardware stack levels used:    1
  1317 ;; Hardware stack levels required when called:    8
  1318 ;; This function calls:
  1319 ;;		Nothing
  1320 ;; This function is called by:
  1321 ;;		_SYSTEM_Initialize
  1322 ;; This function uses a non-reentrant model
  1323 ;;
  1324                           
  1325                           	psect	text9
  1326  003564                     __ptext9:
  1327                           	callstack 0
  1328  003564                     _INTERRUPT_Initialize:
  1329                           	callstack 118
  1330  003564                     
  1331                           ;mcc_generated_files/interrupt_manager.c: 55:     INTCON0bits.IPEN = 0;
  1332  003564  9AD6               	bcf	214,5,c	;volatile
  1333  003566  0012               	return		;funcret
  1334  003568                     __end_of_INTERRUPT_Initialize:
  1335                           	callstack 0
  1336                           
  1337 ;; *************** function _CAN1_Initialize *****************
  1338 ;; Defined at:
  1339 ;;		line 270 in file "mcc_generated_files/can1.c"
  1340 ;; Parameters:    Size  Location     Type
  1341 ;;		None
  1342 ;; Auto vars:     Size  Location     Type
  1343 ;;		None
  1344 ;; Return value:  Size  Location     Type
  1345 ;;                  1    wreg      void 
  1346 ;; Registers used:
  1347 ;;		wreg, fsr2l, fsr2h, status,2, status,0, prodl, prodh, cstack
  1348 ;; Tracked objects:
  1349 ;;		On entry : 0/0
  1350 ;;		On exit  : 0/0
  1351 ;;		Unchanged: 0/0
  1352 ;; Data sizes:     COMRAM   BANK5   BANK6   BANK7   BANK8   BANK9  BANK10  BANK11  BANK12  BANK13  BANK14  BANK15  BANK1
      +6  BANK17  BANK18  BANK19  BANK20  BANK21  BANK22  BANK23  BANK24  BANK25  BANK26  BANK27  BANK28  BANK29  BANK30  BANK3
      +1  BANK32  BANK33  BANK34  BANK35  BANK36  BANK37
  1353 ;;      Params:         0       0       0       0       0       0       0       0       0       0       0       0       
      +0       0       0       0       0       0       0       0       0       0       0       0       0       0       0       
      +0       0       0       0       0       0       0
  1354 ;;      Locals:         0       0       0       0       0       0       0       0       0       0       0       0       
      +0       0       0       0       0       0       0       0       0       0       0       0       0       0       0       
      +0       0       0       0       0       0       0
  1355 ;;      Temps:          0       0       0       0       0       0       0       0       0       0       0       0       
      +0       0       0       0       0       0       0       0       0       0       0       0       0       0       0       
      +0       0       0       0       0       0       0
  1356 ;;      Totals:         0       0       0       0       0       0       0       0       0       0       0       0       
      +0       0       0       0       0       0       0       0       0       0       0       0       0       0       0       
      +0       0       0       0       0       0       0
  1357 ;;Total ram usage:        0 bytes
  1358 ;; Hardware stack levels used:    1
  1359 ;; Hardware stack levels required when called:   10
  1360 ;; This function calls:
  1361 ;;		_CAN1_BitRateConfiguration
  1362 ;;		_CAN1_ErrorNotificationInterruptEnable
  1363 ;;		_CAN1_OperationModeSet
  1364 ;;		_CAN1_RX_FIFO_Configuration
  1365 ;;		_CAN1_RX_FIFO_FilterMaskConfiguration
  1366 ;;		_CAN1_RX_FIFO_ResetInfo
  1367 ;;		_CAN1_TX_FIFO_Configuration
  1368 ;; This function is called by:
  1369 ;;		_SYSTEM_Initialize
  1370 ;; This function uses a non-reentrant model
  1371 ;;
  1372                           
  1373                           	psect	text10
  1374  00309A                     __ptext10:
  1375                           	callstack 0
  1376  00309A                     _CAN1_Initialize:
  1377                           	callstack 116
  1378  00309A                     
  1379                           ;mcc_generated_files/can1.c: 273:     C1CONHbits.ON = 1;
  1380  00309A  0101               	movlb	1	; () banked
  1381  00309C  8F01               	bsf	1,7,b	;volatile
  1382  00309E                     
  1383                           ; BSR set to: 1
  1384                           ;mcc_generated_files/can1.c: 275:     if (CAN_OP_MODE_REQUEST_SUCCESS == CAN1_OperationM
      +                          odeSet(CAN_CONFIGURATION_MODE))
  1385  00309E  0E04               	movlw	4
  1386  0030A0  EC3A  F017         	call	_CAN1_OperationModeSet
  1387  0030A4  0900               	iorlw	0
  1388  0030A6  A4D8               	btfss	status,2,c
  1389  0030A8  EF58  F018         	goto	u1741
  1390  0030AC  EF5A  F018         	goto	u1740
  1391  0030B0                     u1741:
  1392  0030B0  EF78  F018         	goto	l188
  1393  0030B4                     u1740:
  1394  0030B4                     
  1395                           ;mcc_generated_files/can1.c: 276:     {;mcc_generated_files/can1.c: 278:         C1FIFOB
      +                          A = 0x2600;
  1396  0030B4  0E00               	movlw	0
  1397  0030B6  0101               	movlb	1	; () banked
  1398  0030B8  6F4C               	movwf	76,b	;volatile
  1399  0030BA  0E26               	movlw	38
  1400  0030BC  6F4D               	movwf	77,b	;volatile
  1401  0030BE  0E00               	movlw	0
  1402  0030C0  6F4E               	movwf	78,b	;volatile
  1403  0030C2  0E00               	movlw	0
  1404  0030C4  6F4F               	movwf	79,b	;volatile
  1405                           
  1406                           ;mcc_generated_files/can1.c: 281:         C1CONL = 0x60;
  1407  0030C6  0E60               	movlw	96
  1408  0030C8  6F00               	movwf	0,b	;volatile
  1409                           
  1410                           ;mcc_generated_files/can1.c: 284:         C1CONH = 0x97;
  1411  0030CA  0E97               	movlw	151
  1412  0030CC  6F01               	movwf	1,b	;volatile
  1413                           
  1414                           ;mcc_generated_files/can1.c: 287:         C1CONU = 0x10;
  1415  0030CE  0E10               	movlw	16
  1416  0030D0  6F02               	movwf	2,b	;volatile
  1417  0030D2                     
  1418                           ; BSR set to: 1
  1419                           ;mcc_generated_files/can1.c: 289:         CAN1_BitRateConfiguration();
  1420  0030D2  EC6B  F01A         	call	_CAN1_BitRateConfiguration	;wreg free
  1421  0030D6                     
  1422                           ;mcc_generated_files/can1.c: 290:         CAN1_TX_FIFO_Configuration();
  1423  0030D6  EC61  F01A         	call	_CAN1_TX_FIFO_Configuration	;wreg free
  1424  0030DA                     
  1425                           ;mcc_generated_files/can1.c: 291:         CAN1_RX_FIFO_Configuration();
  1426  0030DA  ECBC  F019         	call	_CAN1_RX_FIFO_Configuration	;wreg free
  1427  0030DE                     
  1428                           ;mcc_generated_files/can1.c: 292:         CAN1_RX_FIFO_FilterMaskConfiguration();
  1429  0030DE  EC0E  F01A         	call	_CAN1_RX_FIFO_FilterMaskConfiguration	;wreg free
  1430  0030E2                     
  1431                           ;mcc_generated_files/can1.c: 293:         CAN1_RX_FIFO_ResetInfo();
  1432  0030E2  EC60  F019         	call	_CAN1_RX_FIFO_ResetInfo	;wreg free
  1433  0030E6                     
  1434                           ;mcc_generated_files/can1.c: 294:         CAN1_ErrorNotificationInterruptEnable();
  1435  0030E6  EC86  F017         	call	_CAN1_ErrorNotificationInterruptEnable	;wreg free
  1436  0030EA                     
  1437                           ;mcc_generated_files/can1.c: 295:         CAN1_OperationModeSet(CAN_NORMAL_2_0_MODE);
  1438  0030EA  0E06               	movlw	6
  1439  0030EC  EC3A  F017         	call	_CAN1_OperationModeSet
  1440  0030F0                     l188:
  1441  0030F0  0012               	return		;funcret
  1442  0030F2                     __end_of_CAN1_Initialize:
  1443                           	callstack 0
  1444                           
  1445 ;; *************** function _CAN1_TX_FIFO_Configuration *****************
  1446 ;; Defined at:
  1447 ;;		line 212 in file "mcc_generated_files/can1.c"
  1448 ;; Parameters:    Size  Location     Type
  1449 ;;		None
  1450 ;; Auto vars:     Size  Location     Type
  1451 ;;		None
  1452 ;; Return value:  Size  Location     Type
  1453 ;;                  1    wreg      void 
  1454 ;; Registers used:
  1455 ;;		wreg, status,2
  1456 ;; Tracked objects:
  1457 ;;		On entry : 0/0
  1458 ;;		On exit  : 0/0
  1459 ;;		Unchanged: 0/0
  1460 ;; Data sizes:     COMRAM   BANK5   BANK6   BANK7   BANK8   BANK9  BANK10  BANK11  BANK12  BANK13  BANK14  BANK15  BANK1
      +6  BANK17  BANK18  BANK19  BANK20  BANK21  BANK22  BANK23  BANK24  BANK25  BANK26  BANK27  BANK28  BANK29  BANK30  BANK3
      +1  BANK32  BANK33  BANK34  BANK35  BANK36  BANK37
  1461 ;;      Params:         0       0       0       0       0       0       0       0       0       0       0       0       
      +0       0       0       0       0       0       0       0       0       0       0       0       0       0       0       
      +0       0       0       0       0       0       0
  1462 ;;      Locals:         0       0       0       0       0       0       0       0       0       0       0       0       
      +0       0       0       0       0       0       0       0       0       0       0       0       0       0       0       
      +0       0       0       0       0       0       0
  1463 ;;      Temps:          0       0       0       0       0       0       0       0       0       0       0       0       
      +0       0       0       0       0       0       0       0       0       0       0       0       0       0       0       
      +0       0       0       0       0       0       0
  1464 ;;      Totals:         0       0       0       0       0       0       0       0       0       0       0       0       
      +0       0       0       0       0       0       0       0       0       0       0       0       0       0       0       
      +0       0       0       0       0       0       0
  1465 ;;Total ram usage:        0 bytes
  1466 ;; Hardware stack levels used:    1
  1467 ;; Hardware stack levels required when called:    8
  1468 ;; This function calls:
  1469 ;;		Nothing
  1470 ;; This function is called by:
  1471 ;;		_CAN1_Initialize
  1472 ;; This function uses a non-reentrant model
  1473 ;;
  1474                           
  1475                           	psect	text11
  1476  0034C2                     __ptext11:
  1477                           	callstack 0
  1478  0034C2                     _CAN1_TX_FIFO_Configuration:
  1479                           	callstack 117
  1480  0034C2                     
  1481                           ;mcc_generated_files/can1.c: 215:     C1TXQCONL = 0x10;
  1482  0034C2  0E10               	movlw	16
  1483  0034C4  0101               	movlb	1	; () banked
  1484  0034C6  6F50               	movwf	80,b	;volatile
  1485                           
  1486                           ;mcc_generated_files/can1.c: 218:     C1TXQCONH = 0x04;
  1487  0034C8  0E04               	movlw	4
  1488  0034CA  6F51               	movwf	81,b	;volatile
  1489                           
  1490                           ;mcc_generated_files/can1.c: 221:     C1TXQCONU = 0x61;
  1491  0034CC  0E61               	movlw	97
  1492  0034CE  6F52               	movwf	82,b	;volatile
  1493                           
  1494                           ;mcc_generated_files/can1.c: 224:     C1TXQCONT = 0x05;
  1495  0034D0  0E05               	movlw	5
  1496  0034D2  6F53               	movwf	83,b	;volatile
  1497  0034D4                     
  1498                           ; BSR set to: 1
  1499  0034D4  0012               	return		;funcret
  1500  0034D6                     __end_of_CAN1_TX_FIFO_Configuration:
  1501                           	callstack 0
  1502                           
  1503 ;; *************** function _CAN1_RX_FIFO_ResetInfo *****************
  1504 ;; Defined at:
  1505 ;;		line 152 in file "mcc_generated_files/can1.c"
  1506 ;; Parameters:    Size  Location     Type
  1507 ;;		None
  1508 ;; Auto vars:     Size  Location     Type
  1509 ;;  index           1    0[BANK5 ] unsigned char 
  1510 ;; Return value:  Size  Location     Type
  1511 ;;                  1    wreg      void 
  1512 ;; Registers used:
  1513 ;;		wreg, fsr2l, fsr2h, status,2, status,0, prodl, prodh
  1514 ;; Tracked objects:
  1515 ;;		On entry : 0/0
  1516 ;;		On exit  : 0/0
  1517 ;;		Unchanged: 0/0
  1518 ;; Data sizes:     COMRAM   BANK5   BANK6   BANK7   BANK8   BANK9  BANK10  BANK11  BANK12  BANK13  BANK14  BANK15  BANK1
      +6  BANK17  BANK18  BANK19  BANK20  BANK21  BANK22  BANK23  BANK24  BANK25  BANK26  BANK27  BANK28  BANK29  BANK30  BANK3
      +1  BANK32  BANK33  BANK34  BANK35  BANK36  BANK37
  1519 ;;      Params:         0       0       0       0       0       0       0       0       0       0       0       0       
      +0       0       0       0       0       0       0       0       0       0       0       0       0       0       0       
      +0       0       0       0       0       0       0
  1520 ;;      Locals:         0       1       0       0       0       0       0       0       0       0       0       0       
      +0       0       0       0       0       0       0       0       0       0       0       0       0       0       0       
      +0       0       0       0       0       0       0
  1521 ;;      Temps:          0       0       0       0       0       0       0       0       0       0       0       0       
      +0       0       0       0       0       0       0       0       0       0       0       0       0       0       0       
      +0       0       0       0       0       0       0
  1522 ;;      Totals:         0       1       0       0       0       0       0       0       0       0       0       0       
      +0       0       0       0       0       0       0       0       0       0       0       0       0       0       0       
      +0       0       0       0       0       0       0
  1523 ;;Total ram usage:        1 bytes
  1524 ;; Hardware stack levels used:    1
  1525 ;; Hardware stack levels required when called:    8
  1526 ;; This function calls:
  1527 ;;		Nothing
  1528 ;; This function is called by:
  1529 ;;		_CAN1_Initialize
  1530 ;; This function uses a non-reentrant model
  1531 ;;
  1532                           
  1533                           	psect	text12
  1534  0032C0                     __ptext12:
  1535                           	callstack 0
  1536  0032C0                     _CAN1_RX_FIFO_ResetInfo:
  1537                           	callstack 117
  1538  0032C0                     
  1539                           ;mcc_generated_files/can1.c: 154:     uint8_t index;;mcc_generated_files/can1.c: 156:   
      +                            for (index = 0; index < (1U); index++)
  1540  0032C0  0E00               	movlw	0
  1541  0032C2  0105               	movlb	5	; () banked
  1542  0032C4  6F82               	movwf	CAN1_RX_FIFO_ResetInfo@index& (0+255),b
  1543  0032C6                     l2715:
  1544                           
  1545                           ; BSR set to: 5
  1546                           ;mcc_generated_files/can1.c: 157:     {;mcc_generated_files/can1.c: 158:         rxFifos
      +                          [index].fifoHead = 0;
  1547  0032C6  5182               	movf	CAN1_RX_FIFO_ResetInfo@index& (0+255),w,b
  1548  0032C8  0D02               	mullw	2
  1549  0032CA  0E87               	movlw	low (_rxFifos+1)
  1550  0032CC  24F3               	addwf	243,w,c
  1551  0032CE  6ED9               	movwf	fsr2l,c
  1552  0032D0  0E05               	movlw	high (_rxFifos+1)
  1553  0032D2  20F4               	addwfc	prodh,w,c
  1554  0032D4  6EDA               	movwf	fsr2h,c
  1555  0032D6  0E00               	movlw	0
  1556  0032D8  6EDF               	movwf	indf2,c
  1557  0032DA                     
  1558                           ; BSR set to: 5
  1559                           ;mcc_generated_files/can1.c: 159:     }
  1560  0032DA  2B82               	incf	CAN1_RX_FIFO_ResetInfo@index& (0+255),f,b
  1561  0032DC                     
  1562                           ; BSR set to: 5
  1563  0032DC  5182               	movf	CAN1_RX_FIFO_ResetInfo@index& (0+255),w,b
  1564  0032DE  B4D8               	btfsc	status,2,c
  1565  0032E0  EF74  F019         	goto	u1471
  1566  0032E4  EF76  F019         	goto	u1470
  1567  0032E8                     u1471:
  1568  0032E8  EF63  F019         	goto	l2715
  1569  0032EC                     u1470:
  1570  0032EC                     
  1571                           ; BSR set to: 5
  1572  0032EC  0012               	return		;funcret
  1573  0032EE                     __end_of_CAN1_RX_FIFO_ResetInfo:
  1574                           	callstack 0
  1575                           
  1576 ;; *************** function _CAN1_RX_FIFO_FilterMaskConfiguration *****************
  1577 ;; Defined at:
  1578 ;;		line 184 in file "mcc_generated_files/can1.c"
  1579 ;; Parameters:    Size  Location     Type
  1580 ;;		None
  1581 ;; Auto vars:     Size  Location     Type
  1582 ;;		None
  1583 ;; Return value:  Size  Location     Type
  1584 ;;                  1    wreg      void 
  1585 ;; Registers used:
  1586 ;;		wreg, status,2
  1587 ;; Tracked objects:
  1588 ;;		On entry : 0/0
  1589 ;;		On exit  : 0/0
  1590 ;;		Unchanged: 0/0
  1591 ;; Data sizes:     COMRAM   BANK5   BANK6   BANK7   BANK8   BANK9  BANK10  BANK11  BANK12  BANK13  BANK14  BANK15  BANK1
      +6  BANK17  BANK18  BANK19  BANK20  BANK21  BANK22  BANK23  BANK24  BANK25  BANK26  BANK27  BANK28  BANK29  BANK30  BANK3
      +1  BANK32  BANK33  BANK34  BANK35  BANK36  BANK37
  1592 ;;      Params:         0       0       0       0       0       0       0       0       0       0       0       0       
      +0       0       0       0       0       0       0       0       0       0       0       0       0       0       0       
      +0       0       0       0       0       0       0
  1593 ;;      Locals:         0       0       0       0       0       0       0       0       0       0       0       0       
      +0       0       0       0       0       0       0       0       0       0       0       0       0       0       0       
      +0       0       0       0       0       0       0
  1594 ;;      Temps:          0       0       0       0       0       0       0       0       0       0       0       0       
      +0       0       0       0       0       0       0       0       0       0       0       0       0       0       0       
      +0       0       0       0       0       0       0
  1595 ;;      Totals:         0       0       0       0       0       0       0       0       0       0       0       0       
      +0       0       0       0       0       0       0       0       0       0       0       0       0       0       0       
      +0       0       0       0       0       0       0
  1596 ;;Total ram usage:        0 bytes
  1597 ;; Hardware stack levels used:    1
  1598 ;; Hardware stack levels required when called:    8
  1599 ;; This function calls:
  1600 ;;		Nothing
  1601 ;; This function is called by:
  1602 ;;		_CAN1_Initialize
  1603 ;; This function uses a non-reentrant model
  1604 ;;
  1605                           
  1606                           	psect	text13
  1607  00341C                     __ptext13:
  1608                           	callstack 0
  1609  00341C                     _CAN1_RX_FIFO_FilterMaskConfiguration:
  1610                           	callstack 117
  1611  00341C                     
  1612                           ;mcc_generated_files/can1.c: 199:     C1FLTOBJ1L = 0x5F;
  1613  00341C  0E5F               	movlw	95
  1614  00341E  0101               	movlb	1	; () banked
  1615  003420  6F94               	movwf	148,b	;volatile
  1616  003422                     
  1617                           ; BSR set to: 1
  1618                           ;mcc_generated_files/can1.c: 200:     C1FLTOBJ1H = 0xFF;
  1619  003422  6995               	setf	149,b	;volatile
  1620  003424                     
  1621                           ; BSR set to: 1
  1622                           ;mcc_generated_files/can1.c: 201:     C1FLTOBJ1U = 0xFF;
  1623  003424  6996               	setf	150,b	;volatile
  1624  003426                     
  1625                           ; BSR set to: 1
  1626                           ;mcc_generated_files/can1.c: 202:     C1FLTOBJ1T = 0xFF;
  1627  003426  6997               	setf	151,b	;volatile
  1628                           
  1629                           ;mcc_generated_files/can1.c: 204:     C1MASK1L = 0x00;
  1630  003428  0E00               	movlw	0
  1631  00342A  6F98               	movwf	152,b	;volatile
  1632                           
  1633                           ;mcc_generated_files/can1.c: 205:     C1MASK1H = 0x00;
  1634  00342C  0E00               	movlw	0
  1635  00342E  6F99               	movwf	153,b	;volatile
  1636                           
  1637                           ;mcc_generated_files/can1.c: 206:     C1MASK1U = 0x00;
  1638  003430  0E00               	movlw	0
  1639  003432  6F9A               	movwf	154,b	;volatile
  1640                           
  1641                           ;mcc_generated_files/can1.c: 207:     C1MASK1T = 0x00;
  1642  003434  0E00               	movlw	0
  1643  003436  6F9B               	movwf	155,b	;volatile
  1644                           
  1645                           ;mcc_generated_files/can1.c: 208:     C1FLTCON0H = 0x81;
  1646  003438  0E81               	movlw	129
  1647  00343A  6F81               	movwf	129,b	;volatile
  1648  00343C                     
  1649                           ; BSR set to: 1
  1650  00343C  0012               	return		;funcret
  1651  00343E                     __end_of_CAN1_RX_FIFO_FilterMaskConfiguration:
  1652                           	callstack 0
  1653                           
  1654 ;; *************** function _CAN1_RX_FIFO_Configuration *****************
  1655 ;; Defined at:
  1656 ;;		line 162 in file "mcc_generated_files/can1.c"
  1657 ;; Parameters:    Size  Location     Type
  1658 ;;		None
  1659 ;; Auto vars:     Size  Location     Type
  1660 ;;		None
  1661 ;; Return value:  Size  Location     Type
  1662 ;;                  1    wreg      void 
  1663 ;; Registers used:
  1664 ;;		wreg, status,2, status,0, cstack
  1665 ;; Tracked objects:
  1666 ;;		On entry : 0/0
  1667 ;;		On exit  : 0/0
  1668 ;;		Unchanged: 0/0
  1669 ;; Data sizes:     COMRAM   BANK5   BANK6   BANK7   BANK8   BANK9  BANK10  BANK11  BANK12  BANK13  BANK14  BANK15  BANK1
      +6  BANK17  BANK18  BANK19  BANK20  BANK21  BANK22  BANK23  BANK24  BANK25  BANK26  BANK27  BANK28  BANK29  BANK30  BANK3
      +1  BANK32  BANK33  BANK34  BANK35  BANK36  BANK37
  1670 ;;      Params:         0       0       0       0       0       0       0       0       0       0       0       0       
      +0       0       0       0       0       0       0       0       0       0       0       0       0       0       0       
      +0       0       0       0       0       0       0
  1671 ;;      Locals:         0       0       0       0       0       0       0       0       0       0       0       0       
      +0       0       0       0       0       0       0       0       0       0       0       0       0       0       0       
      +0       0       0       0       0       0       0
  1672 ;;      Temps:          0       0       0       0       0       0       0       0       0       0       0       0       
      +0       0       0       0       0       0       0       0       0       0       0       0       0       0       0       
      +0       0       0       0       0       0       0
  1673 ;;      Totals:         0       0       0       0       0       0       0       0       0       0       0       0       
      +0       0       0       0       0       0       0       0       0       0       0       0       0       0       0       
      +0       0       0       0       0       0       0
  1674 ;;Total ram usage:        0 bytes
  1675 ;; Hardware stack levels used:    1
  1676 ;; Hardware stack levels required when called:    9
  1677 ;; This function calls:
  1678 ;;		_CAN1_SetFIFO1NotEmptyHandler
  1679 ;; This function is called by:
  1680 ;;		_CAN1_Initialize
  1681 ;; This function uses a non-reentrant model
  1682 ;;
  1683                           
  1684                           	psect	text14
  1685  003378                     __ptext14:
  1686                           	callstack 0
  1687  003378                     _CAN1_RX_FIFO_Configuration:
  1688                           	callstack 116
  1689  003378                     
  1690                           ;mcc_generated_files/can1.c: 165:     C1FIFOCON1L = 0x19;
  1691  003378  0E19               	movlw	25
  1692  00337A  0101               	movlb	1	; () banked
  1693  00337C  6F5C               	movwf	92,b	;volatile
  1694                           
  1695                           ;mcc_generated_files/can1.c: 168:     C1FIFOCON1H = 0x04;
  1696  00337E  0E04               	movlw	4
  1697  003380  6F5D               	movwf	93,b	;volatile
  1698                           
  1699                           ;mcc_generated_files/can1.c: 171:     C1FIFOCON1U = 0x60;
  1700  003382  0E60               	movlw	96
  1701  003384  6F5E               	movwf	94,b	;volatile
  1702                           
  1703                           ;mcc_generated_files/can1.c: 174:     C1FIFOCON1T = 0x05;
  1704  003386  0E05               	movlw	5
  1705  003388  6F5F               	movwf	95,b	;volatile
  1706  00338A                     
  1707                           ; BSR set to: 1
  1708                           ;mcc_generated_files/can1.c: 176:     CAN1_SetFIFO1NotEmptyHandler(DefaultFIFO1NotEmptyH
      +                          andler);
  1709  00338A  0E5E               	movlw	low _DefaultFIFO1NotEmptyHandler
  1710  00338C  0105               	movlb	5	; () banked
  1711  00338E  6F82               	movwf	CAN1_SetFIFO1NotEmptyHandler@handler& (0+255),b
  1712  003390  0E35               	movlw	high _DefaultFIFO1NotEmptyHandler
  1713  003392  6F83               	movwf	(CAN1_SetFIFO1NotEmptyHandler@handler+1)& (0+255),b
  1714  003394  EC7F  F01A         	call	_CAN1_SetFIFO1NotEmptyHandler	;wreg free
  1715  003398                     
  1716                           ;mcc_generated_files/can1.c: 178:     C1INTUbits.RXIE = 1;
  1717  003398  0101               	movlb	1	; () banked
  1718  00339A  831E               	bsf	30,1,b	;volatile
  1719  00339C                     
  1720                           ; BSR set to: 1
  1721                           ;mcc_generated_files/can1.c: 180:     PIR4bits.CANRXIF = 0;
  1722  00339C  98B2               	bcf	178,4,c	;volatile
  1723  00339E                     
  1724                           ; BSR set to: 1
  1725                           ;mcc_generated_files/can1.c: 181:     PIE4bits.CANRXIE = 1;
  1726  00339E  88A2               	bsf	162,4,c	;volatile
  1727  0033A0                     
  1728                           ; BSR set to: 1
  1729  0033A0  0012               	return		;funcret
  1730  0033A2                     __end_of_CAN1_RX_FIFO_Configuration:
  1731                           	callstack 0
  1732                           
  1733 ;; *************** function _CAN1_SetFIFO1NotEmptyHandler *****************
  1734 ;; Defined at:
  1735 ;;		line 732 in file "mcc_generated_files/can1.c"
  1736 ;; Parameters:    Size  Location     Type
  1737 ;;  handler         2    0[BANK5 ] PTR FTN()void 
  1738 ;;		 -> DefaultFIFO1NotEmptyHandler(1), 
  1739 ;; Auto vars:     Size  Location     Type
  1740 ;;		None
  1741 ;; Return value:  Size  Location     Type
  1742 ;;                  1    wreg      void 
  1743 ;; Registers used:
  1744 ;;		wreg, status,2, status,0
  1745 ;; Tracked objects:
  1746 ;;		On entry : 0/0
  1747 ;;		On exit  : 0/0
  1748 ;;		Unchanged: 0/0
  1749 ;; Data sizes:     COMRAM   BANK5   BANK6   BANK7   BANK8   BANK9  BANK10  BANK11  BANK12  BANK13  BANK14  BANK15  BANK1
      +6  BANK17  BANK18  BANK19  BANK20  BANK21  BANK22  BANK23  BANK24  BANK25  BANK26  BANK27  BANK28  BANK29  BANK30  BANK3
      +1  BANK32  BANK33  BANK34  BANK35  BANK36  BANK37
  1750 ;;      Params:         0       2       0       0       0       0       0       0       0       0       0       0       
      +0       0       0       0       0       0       0       0       0       0       0       0       0       0       0       
      +0       0       0       0       0       0       0
  1751 ;;      Locals:         0       0       0       0       0       0       0       0       0       0       0       0       
      +0       0       0       0       0       0       0       0       0       0       0       0       0       0       0       
      +0       0       0       0       0       0       0
  1752 ;;      Temps:          0       0       0       0       0       0       0       0       0       0       0       0       
      +0       0       0       0       0       0       0       0       0       0       0       0       0       0       0       
      +0       0       0       0       0       0       0
  1753 ;;      Totals:         0       2       0       0       0       0       0       0       0       0       0       0       
      +0       0       0       0       0       0       0       0       0       0       0       0       0       0       0       
      +0       0       0       0       0       0       0
  1754 ;;Total ram usage:        2 bytes
  1755 ;; Hardware stack levels used:    1
  1756 ;; Hardware stack levels required when called:    8
  1757 ;; This function calls:
  1758 ;;		Nothing
  1759 ;; This function is called by:
  1760 ;;		_CAN1_RX_FIFO_Configuration
  1761 ;; This function uses a non-reentrant model
  1762 ;;
  1763                           
  1764                           	psect	text15
  1765  0034FE                     __ptext15:
  1766                           	callstack 0
  1767  0034FE                     _CAN1_SetFIFO1NotEmptyHandler:
  1768                           	callstack 116
  1769  0034FE                     
  1770                           ;mcc_generated_files/can1.c: 732: void CAN1_SetFIFO1NotEmptyHandler(void (*handler)(void
      +                          ));mcc_generated_files/can1.c: 733: {;mcc_generated_files/can1.c: 734:     CAN1_FIFO1Not
      +                          EmptyHandler = handler;
  1771  0034FE  C582  F548         	movff	CAN1_SetFIFO1NotEmptyHandler@handler,_CAN1_FIFO1NotEmptyHandler
  1772  003502  C583  F549         	movff	CAN1_SetFIFO1NotEmptyHandler@handler+1,_CAN1_FIFO1NotEmptyHandler+1
  1773  003506  0012               	return		;funcret
  1774  003508                     __end_of_CAN1_SetFIFO1NotEmptyHandler:
  1775                           	callstack 0
  1776                           
  1777 ;; *************** function _CAN1_OperationModeSet *****************
  1778 ;; Defined at:
  1779 ;;		line 299 in file "mcc_generated_files/can1.c"
  1780 ;; Parameters:    Size  Location     Type
  1781 ;;  requestMode     1    wreg     const enum E22346
  1782 ;; Auto vars:     Size  Location     Type
  1783 ;;  requestMode     1    2[BANK5 ] const enum E22346
  1784 ;;  status          1    1[BANK5 ] enum E22356
  1785 ;;  opMode          1    0[BANK5 ] enum E22346
  1786 ;; Return value:  Size  Location     Type
  1787 ;;                  1    wreg      enum E22356
  1788 ;; Registers used:
  1789 ;;		wreg, status,2, status,0, cstack
  1790 ;; Tracked objects:
  1791 ;;		On entry : 0/0
  1792 ;;		On exit  : 0/0
  1793 ;;		Unchanged: 0/0
  1794 ;; Data sizes:     COMRAM   BANK5   BANK6   BANK7   BANK8   BANK9  BANK10  BANK11  BANK12  BANK13  BANK14  BANK15  BANK1
      +6  BANK17  BANK18  BANK19  BANK20  BANK21  BANK22  BANK23  BANK24  BANK25  BANK26  BANK27  BANK28  BANK29  BANK30  BANK3
      +1  BANK32  BANK33  BANK34  BANK35  BANK36  BANK37
  1795 ;;      Params:         0       0       0       0       0       0       0       0       0       0       0       0       
      +0       0       0       0       0       0       0       0       0       0       0       0       0       0       0       
      +0       0       0       0       0       0       0
  1796 ;;      Locals:         0       3       0       0       0       0       0       0       0       0       0       0       
      +0       0       0       0       0       0       0       0       0       0       0       0       0       0       0       
      +0       0       0       0       0       0       0
  1797 ;;      Temps:          0       0       0       0       0       0       0       0       0       0       0       0       
      +0       0       0       0       0       0       0       0       0       0       0       0       0       0       0       
      +0       0       0       0       0       0       0
  1798 ;;      Totals:         0       3       0       0       0       0       0       0       0       0       0       0       
      +0       0       0       0       0       0       0       0       0       0       0       0       0       0       0       
      +0       0       0       0       0       0       0
  1799 ;;Total ram usage:        3 bytes
  1800 ;; Hardware stack levels used:    1
  1801 ;; Hardware stack levels required when called:    9
  1802 ;; This function calls:
  1803 ;;		_CAN1_OperationModeGet
  1804 ;; This function is called by:
  1805 ;;		_CAN1_Initialize
  1806 ;;		_CAN1_Sleep
  1807 ;; This function uses a non-reentrant model
  1808 ;;
  1809                           
  1810                           	psect	text16
  1811  002E74                     __ptext16:
  1812                           	callstack 0
  1813  002E74                     _CAN1_OperationModeSet:
  1814                           	callstack 116
  1815                           
  1816                           ;incstack = 0
  1817                           ;CAN1_OperationModeSet@requestMode stored from wreg
  1818  002E74  0105               	movlb	5	; () banked
  1819  002E76  6F84               	movwf	CAN1_OperationModeSet@requestMode& (0+255),b
  1820  002E78                     
  1821                           ;mcc_generated_files/can1.c: 299: CAN_OP_MODE_STATUS CAN1_OperationModeSet(const CAN_OP_
      +                          MODES requestMode);mcc_generated_files/can1.c: 300: {;mcc_generated_files/can1.c: 301:  
      +                             CAN_OP_MODE_STATUS status = CAN_OP_MODE_REQUEST_SUCCESS;
  1822  002E78  0E00               	movlw	0
  1823  002E7A  0105               	movlb	5	; () banked
  1824  002E7C  6F83               	movwf	CAN1_OperationModeSet@status& (0+255),b
  1825  002E7E                     
  1826                           ; BSR set to: 5
  1827                           ;mcc_generated_files/can1.c: 302:     CAN_OP_MODES opMode = CAN1_OperationModeGet();
  1828  002E7E  EC84  F01A         	call	_CAN1_OperationModeGet	;wreg free
  1829  002E82  0105               	movlb	5	; () banked
  1830  002E84  6F82               	movwf	CAN1_OperationModeSet@opMode& (0+255),b
  1831  002E86                     
  1832                           ; BSR set to: 5
  1833                           ;mcc_generated_files/can1.c: 304:     if (CAN_CONFIGURATION_MODE == opMode
  1834  002E86  0E04               	movlw	4
  1835  002E88  1982               	xorwf	CAN1_OperationModeSet@opMode& (0+255),w,b
  1836  002E8A  B4D8               	btfsc	status,2,c
  1837  002E8C  EF4A  F017         	goto	u1481
  1838  002E90  EF4C  F017         	goto	u1480
  1839  002E94                     u1481:
  1840  002E94  EF5D  F017         	goto	l2767
  1841  002E98                     u1480:
  1842  002E98                     
  1843                           ; BSR set to: 5
  1844  002E98  0584               	decf	CAN1_OperationModeSet@requestMode& (0+255),w,b
  1845  002E9A  B4D8               	btfsc	status,2,c
  1846  002E9C  EF52  F017         	goto	u1491
  1847  002EA0  EF54  F017         	goto	u1490
  1848  002EA4                     u1491:
  1849  002EA4  EF5D  F017         	goto	l2767
  1850  002EA8                     u1490:
  1851  002EA8                     
  1852                           ; BSR set to: 5
  1853  002EA8  0E04               	movlw	4
  1854  002EAA  1984               	xorwf	CAN1_OperationModeSet@requestMode& (0+255),w,b
  1855  002EAC  A4D8               	btfss	status,2,c
  1856  002EAE  EF5B  F017         	goto	u1501
  1857  002EB2  EF5D  F017         	goto	u1500
  1858  002EB6                     u1501:
  1859  002EB6  EF82  F017         	goto	l2773
  1860  002EBA                     u1500:
  1861  002EBA                     l2767:
  1862                           
  1863                           ; BSR set to: 5
  1864                           ;mcc_generated_files/can1.c: 307:     {;mcc_generated_files/can1.c: 308:         C1CONTb
      +                          its.REQOP = requestMode;
  1865  002EBA  0101               	movlb	1	; () banked
  1866  002EBC  5103               	movf	3,w,b	;volatile
  1867  002EBE  0105               	movlb	5	; () banked
  1868  002EC0  1984               	xorwf	CAN1_OperationModeSet@requestMode& (0+255),w,b
  1869  002EC2  0BF8               	andlw	-8
  1870  002EC4  1984               	xorwf	CAN1_OperationModeSet@requestMode& (0+255),w,b
  1871  002EC6  0101               	movlb	1	; () banked
  1872  002EC8  6F03               	movwf	3,b	;volatile
  1873                           
  1874                           ;mcc_generated_files/can1.c: 310:         while (C1CONUbits.OPMOD != requestMode)
  1875  002ECA  EF74  F017         	goto	l2771
  1876  002ECE                     l195:
  1877                           
  1878                           ; BSR set to: 5
  1879                           ;mcc_generated_files/can1.c: 311:         {;mcc_generated_files/can1.c: 313:            
      +                           if (1 == C1INTHbits.SERRIF)
  1880  002ECE  0101               	movlb	1	; () banked
  1881  002ED0  A91D               	btfss	29,4,b	;volatile
  1882  002ED2  EF6D  F017         	goto	u1511
  1883  002ED6  EF6F  F017         	goto	u1510
  1884  002EDA                     u1511:
  1885  002EDA  EF74  F017         	goto	l2771
  1886  002EDE                     u1510:
  1887  002EDE                     
  1888                           ; BSR set to: 1
  1889                           ;mcc_generated_files/can1.c: 314:             {;mcc_generated_files/can1.c: 315:        
      +                                   status = CAN_OP_MODE_SYS_ERROR_OCCURED;
  1890  002EDE  0E02               	movlw	2
  1891  002EE0  0105               	movlb	5	; () banked
  1892  002EE2  6F83               	movwf	CAN1_OperationModeSet@status& (0+255),b
  1893                           
  1894                           ;mcc_generated_files/can1.c: 316:                 break;
  1895  002EE4  EF84  F017         	goto	l198
  1896  002EE8                     l2771:
  1897                           
  1898                           ; BSR set to: 1
  1899                           ;mcc_generated_files/can1.c: 310:         while (C1CONUbits.OPMOD != requestMode)
  1900  002EE8  3902               	swapf	2,w,b	;volatile
  1901  002EEA  32E8               	rrcf	wreg,f,c
  1902  002EEC  0B07               	andlw	7
  1903  002EEE  0105               	movlb	5	; () banked
  1904  002EF0  1984               	xorwf	CAN1_OperationModeSet@requestMode& (0+255),w,b
  1905  002EF2  A4D8               	btfss	status,2,c
  1906  002EF4  EF7E  F017         	goto	u1521
  1907  002EF8  EF80  F017         	goto	u1520
  1908  002EFC                     u1521:
  1909  002EFC  EF67  F017         	goto	l195
  1910  002F00                     u1520:
  1911  002F00  EF84  F017         	goto	l198
  1912  002F04                     l2773:
  1913                           
  1914                           ; BSR set to: 5
  1915                           ;mcc_generated_files/can1.c: 321:     {;mcc_generated_files/can1.c: 322:         status 
      +                          = CAN_OP_MODE_REQUEST_FAIL;
  1916  002F04  0E01               	movlw	1
  1917  002F06  6F83               	movwf	CAN1_OperationModeSet@status& (0+255),b
  1918  002F08                     l198:
  1919                           
  1920                           ; BSR set to: 5
  1921                           ;mcc_generated_files/can1.c: 325:     return status;
  1922  002F08  5183               	movf	CAN1_OperationModeSet@status& (0+255),w,b
  1923  002F0A                     
  1924                           ; BSR set to: 5
  1925  002F0A  0012               	return		;funcret
  1926  002F0C                     __end_of_CAN1_OperationModeSet:
  1927                           	callstack 0
  1928                           
  1929 ;; *************** function _CAN1_OperationModeGet *****************
  1930 ;; Defined at:
  1931 ;;		line 328 in file "mcc_generated_files/can1.c"
  1932 ;; Parameters:    Size  Location     Type
  1933 ;;		None
  1934 ;; Auto vars:     Size  Location     Type
  1935 ;;		None
  1936 ;; Return value:  Size  Location     Type
  1937 ;;                  1    wreg      enum E22346
  1938 ;; Registers used:
  1939 ;;		wreg, status,2, status,0
  1940 ;; Tracked objects:
  1941 ;;		On entry : 0/0
  1942 ;;		On exit  : 0/0
  1943 ;;		Unchanged: 0/0
  1944 ;; Data sizes:     COMRAM   BANK5   BANK6   BANK7   BANK8   BANK9  BANK10  BANK11  BANK12  BANK13  BANK14  BANK15  BANK1
      +6  BANK17  BANK18  BANK19  BANK20  BANK21  BANK22  BANK23  BANK24  BANK25  BANK26  BANK27  BANK28  BANK29  BANK30  BANK3
      +1  BANK32  BANK33  BANK34  BANK35  BANK36  BANK37
  1945 ;;      Params:         0       0       0       0       0       0       0       0       0       0       0       0       
      +0       0       0       0       0       0       0       0       0       0       0       0       0       0       0       
      +0       0       0       0       0       0       0
  1946 ;;      Locals:         0       0       0       0       0       0       0       0       0       0       0       0       
      +0       0       0       0       0       0       0       0       0       0       0       0       0       0       0       
      +0       0       0       0       0       0       0
  1947 ;;      Temps:          0       0       0       0       0       0       0       0       0       0       0       0       
      +0       0       0       0       0       0       0       0       0       0       0       0       0       0       0       
      +0       0       0       0       0       0       0
  1948 ;;      Totals:         0       0       0       0       0       0       0       0       0       0       0       0       
      +0       0       0       0       0       0       0       0       0       0       0       0       0       0       0       
      +0       0       0       0       0       0       0
  1949 ;;Total ram usage:        0 bytes
  1950 ;; Hardware stack levels used:    1
  1951 ;; Hardware stack levels required when called:    8
  1952 ;; This function calls:
  1953 ;;		Nothing
  1954 ;; This function is called by:
  1955 ;;		_CAN1_OperationModeSet
  1956 ;;		_ValidateTransmission
  1957 ;; This function uses a non-reentrant model
  1958 ;;
  1959                           
  1960                           	psect	text17
  1961  003508                     __ptext17:
  1962                           	callstack 0
  1963  003508                     _CAN1_OperationModeGet:
  1964                           	callstack 116
  1965  003508                     
  1966                           ;mcc_generated_files/can1.c: 330:     return C1CONUbits.OPMOD;
  1967  003508  0101               	movlb	1	; () banked
  1968  00350A  3902               	swapf	2,w,b	;volatile
  1969  00350C  32E8               	rrcf	wreg,f,c
  1970  00350E  0B07               	andlw	7
  1971  003510                     
  1972                           ; BSR set to: 1
  1973  003510  0012               	return		;funcret
  1974  003512                     __end_of_CAN1_OperationModeGet:
  1975                           	callstack 0
  1976                           
  1977 ;; *************** function _CAN1_ErrorNotificationInterruptEnable *****************
  1978 ;; Defined at:
  1979 ;;		line 244 in file "mcc_generated_files/can1.c"
  1980 ;; Parameters:    Size  Location     Type
  1981 ;;		None
  1982 ;; Auto vars:     Size  Location     Type
  1983 ;;		None
  1984 ;; Return value:  Size  Location     Type
  1985 ;;                  1    wreg      void 
  1986 ;; Registers used:
  1987 ;;		wreg, status,2, status,0, cstack
  1988 ;; Tracked objects:
  1989 ;;		On entry : 0/0
  1990 ;;		On exit  : 0/0
  1991 ;;		Unchanged: 0/0
  1992 ;; Data sizes:     COMRAM   BANK5   BANK6   BANK7   BANK8   BANK9  BANK10  BANK11  BANK12  BANK13  BANK14  BANK15  BANK1
      +6  BANK17  BANK18  BANK19  BANK20  BANK21  BANK22  BANK23  BANK24  BANK25  BANK26  BANK27  BANK28  BANK29  BANK30  BANK3
      +1  BANK32  BANK33  BANK34  BANK35  BANK36  BANK37
  1993 ;;      Params:         0       0       0       0       0       0       0       0       0       0       0       0       
      +0       0       0       0       0       0       0       0       0       0       0       0       0       0       0       
      +0       0       0       0       0       0       0
  1994 ;;      Locals:         0       0       0       0       0       0       0       0       0       0       0       0       
      +0       0       0       0       0       0       0       0       0       0       0       0       0       0       0       
      +0       0       0       0       0       0       0
  1995 ;;      Temps:          0       0       0       0       0       0       0       0       0       0       0       0       
      +0       0       0       0       0       0       0       0       0       0       0       0       0       0       0       
      +0       0       0       0       0       0       0
  1996 ;;      Totals:         0       0       0       0       0       0       0       0       0       0       0       0       
      +0       0       0       0       0       0       0       0       0       0       0       0       0       0       0       
      +0       0       0       0       0       0       0
  1997 ;;Total ram usage:        0 bytes
  1998 ;; Hardware stack levels used:    1
  1999 ;; Hardware stack levels required when called:    9
  2000 ;; This function calls:
  2001 ;;		_CAN1_SetBusErrorInterruptHandler
  2002 ;;		_CAN1_SetBusWakeUpActivityInterruptHandler
  2003 ;;		_CAN1_SetInvalidMessageInterruptHandler
  2004 ;;		_CAN1_SetModeChangeInterruptHandler
  2005 ;;		_CAN1_SetRxBufferOverFlowInterruptHandler
  2006 ;;		_CAN1_SetSystemErrorInterruptHandler
  2007 ;;		_CAN1_SetTxAttemptInterruptHandler
  2008 ;; This function is called by:
  2009 ;;		_CAN1_Initialize
  2010 ;; This function uses a non-reentrant model
  2011 ;;
  2012                           
  2013                           	psect	text18
  2014  002F0C                     __ptext18:
  2015                           	callstack 0
  2016  002F0C                     _CAN1_ErrorNotificationInterruptEnable:
  2017                           	callstack 116
  2018  002F0C                     
  2019                           ;mcc_generated_files/can1.c: 246:     CAN1_SetInvalidMessageInterruptHandler(DefaultInva
      +                          lidMessageHandler);
  2020  002F0C  0E7E               	movlw	low _DefaultInvalidMessageHandler
  2021  002F0E  0105               	movlb	5	; () banked
  2022  002F10  6F82               	movwf	CAN1_SetInvalidMessageInterruptHandler@handler& (0+255),b
  2023  002F12  0E35               	movlw	high _DefaultInvalidMessageHandler
  2024  002F14  6F83               	movwf	(CAN1_SetInvalidMessageInterruptHandler@handler+1)& (0+255),b
  2025  002F16  EC9D  F01A         	call	_CAN1_SetInvalidMessageInterruptHandler	;wreg free
  2026                           
  2027                           ;mcc_generated_files/can1.c: 247:     CAN1_SetBusWakeUpActivityInterruptHandler(DefaultB
      +                          usWakeUpActivityHandler);
  2028  002F1A  0E80               	movlw	low _DefaultBusWakeUpActivityHandler
  2029  002F1C  0105               	movlb	5	; () banked
  2030  002F1E  6F82               	movwf	CAN1_SetBusWakeUpActivityInterruptHandler@handler& (0+255),b
  2031  002F20  0E35               	movlw	high _DefaultBusWakeUpActivityHandler
  2032  002F22  6F83               	movwf	(CAN1_SetBusWakeUpActivityInterruptHandler@handler+1)& (0+255),b
  2033  002F24  ECA2  F01A         	call	_CAN1_SetBusWakeUpActivityInterruptHandler	;wreg free
  2034                           
  2035                           ;mcc_generated_files/can1.c: 248:     CAN1_SetBusErrorInterruptHandler(DefaultBusErrorHa
      +                          ndler);
  2036  002F28  0E82               	movlw	low _DefaultBusErrorHandler
  2037  002F2A  0105               	movlb	5	; () banked
  2038  002F2C  6F82               	movwf	CAN1_SetBusErrorInterruptHandler@handler& (0+255),b
  2039  002F2E  0E35               	movlw	high _DefaultBusErrorHandler
  2040  002F30  6F83               	movwf	(CAN1_SetBusErrorInterruptHandler@handler+1)& (0+255),b
  2041  002F32  ECA7  F01A         	call	_CAN1_SetBusErrorInterruptHandler	;wreg free
  2042                           
  2043                           ;mcc_generated_files/can1.c: 249:     CAN1_SetModeChangeInterruptHandler(DefaultModeChan
      +                          geHandler);
  2044  002F36  0E7C               	movlw	low _DefaultModeChangeHandler
  2045  002F38  0105               	movlb	5	; () banked
  2046  002F3A  6F82               	movwf	CAN1_SetModeChangeInterruptHandler@handler& (0+255),b
  2047  002F3C  0E35               	movlw	high _DefaultModeChangeHandler
  2048  002F3E  6F83               	movwf	(CAN1_SetModeChangeInterruptHandler@handler+1)& (0+255),b
  2049  002F40  EC98  F01A         	call	_CAN1_SetModeChangeInterruptHandler	;wreg free
  2050                           
  2051                           ;mcc_generated_files/can1.c: 250:     CAN1_SetSystemErrorInterruptHandler(DefaultSystemE
      +                          rrorHandler);
  2052  002F44  0E78               	movlw	low _DefaultSystemErrorHandler
  2053  002F46  0105               	movlb	5	; () banked
  2054  002F48  6F82               	movwf	CAN1_SetSystemErrorInterruptHandler@handler& (0+255),b
  2055  002F4A  0E35               	movlw	high _DefaultSystemErrorHandler
  2056  002F4C  6F83               	movwf	(CAN1_SetSystemErrorInterruptHandler@handler+1)& (0+255),b
  2057  002F4E  EC8E  F01A         	call	_CAN1_SetSystemErrorInterruptHandler	;wreg free
  2058                           
  2059                           ;mcc_generated_files/can1.c: 251:     CAN1_SetTxAttemptInterruptHandler(DefaultTxAttempt
      +                          Handler);
  2060  002F52  0E76               	movlw	low _DefaultTxAttemptHandler
  2061  002F54  0105               	movlb	5	; () banked
  2062  002F56  6F82               	movwf	CAN1_SetTxAttemptInterruptHandler@handler& (0+255),b
  2063  002F58  0E35               	movlw	high _DefaultTxAttemptHandler
  2064  002F5A  6F83               	movwf	(CAN1_SetTxAttemptInterruptHandler@handler+1)& (0+255),b
  2065  002F5C  EC89  F01A         	call	_CAN1_SetTxAttemptInterruptHandler	;wreg free
  2066                           
  2067                           ;mcc_generated_files/can1.c: 252:     CAN1_SetRxBufferOverFlowInterruptHandler(DefaultRx
      +                          BufferOverflowHandler);
  2068  002F60  0E7A               	movlw	low _DefaultRxBufferOverflowHandler
  2069  002F62  0105               	movlb	5	; () banked
  2070  002F64  6F82               	movwf	CAN1_SetRxBufferOverFlowInterruptHandler@handler& (0+255),b
  2071  002F66  0E35               	movlw	high _DefaultRxBufferOverflowHandler
  2072  002F68  6F83               	movwf	(CAN1_SetRxBufferOverFlowInterruptHandler@handler+1)& (0+255),b
  2073  002F6A  EC93  F01A         	call	_CAN1_SetRxBufferOverFlowInterruptHandler	;wreg free
  2074  002F6E                     
  2075                           ;mcc_generated_files/can1.c: 253:     PIR0bits.CANIF = 0;
  2076  002F6E  9CAE               	bcf	174,6,c	;volatile
  2077  002F70                     
  2078                           ;mcc_generated_files/can1.c: 256:     C1INTL = 0x00;
  2079  002F70  0E00               	movlw	0
  2080  002F72  0101               	movlb	1	; () banked
  2081  002F74  6F1C               	movwf	28,b	;volatile
  2082  002F76                     
  2083                           ; BSR set to: 1
  2084                           ;mcc_generated_files/can1.c: 259:     C1INTH = 0x00;
  2085  002F76  0E00               	movlw	0
  2086  002F78  6F1D               	movwf	29,b	;volatile
  2087  002F7A                     
  2088                           ; BSR set to: 1
  2089                           ;mcc_generated_files/can1.c: 262:     C1INTU = 0x0A;
  2090  002F7A  0E0A               	movlw	10
  2091  002F7C  6F1E               	movwf	30,b	;volatile
  2092  002F7E                     
  2093                           ; BSR set to: 1
  2094                           ;mcc_generated_files/can1.c: 265:     C1INTT = 0xFC;
  2095  002F7E  0EFC               	movlw	252
  2096  002F80  6F1F               	movwf	31,b	;volatile
  2097  002F82                     
  2098                           ; BSR set to: 1
  2099                           ;mcc_generated_files/can1.c: 267:     PIE0bits.CANIE = 1;
  2100  002F82  8C9E               	bsf	158,6,c	;volatile
  2101  002F84                     
  2102                           ; BSR set to: 1
  2103  002F84  0012               	return		;funcret
  2104  002F86                     __end_of_CAN1_ErrorNotificationInterruptEnable:
  2105                           	callstack 0
  2106                           
  2107 ;; *************** function _CAN1_SetTxAttemptInterruptHandler *****************
  2108 ;; Defined at:
  2109 ;;		line 669 in file "mcc_generated_files/can1.c"
  2110 ;; Parameters:    Size  Location     Type
  2111 ;;  handler         2    0[BANK5 ] PTR FTN()void 
  2112 ;;		 -> DefaultTxAttemptHandler(1), 
  2113 ;; Auto vars:     Size  Location     Type
  2114 ;;		None
  2115 ;; Return value:  Size  Location     Type
  2116 ;;                  1    wreg      void 
  2117 ;; Registers used:
  2118 ;;		wreg, status,2, status,0
  2119 ;; Tracked objects:
  2120 ;;		On entry : 0/0
  2121 ;;		On exit  : 0/0
  2122 ;;		Unchanged: 0/0
  2123 ;; Data sizes:     COMRAM   BANK5   BANK6   BANK7   BANK8   BANK9  BANK10  BANK11  BANK12  BANK13  BANK14  BANK15  BANK1
      +6  BANK17  BANK18  BANK19  BANK20  BANK21  BANK22  BANK23  BANK24  BANK25  BANK26  BANK27  BANK28  BANK29  BANK30  BANK3
      +1  BANK32  BANK33  BANK34  BANK35  BANK36  BANK37
  2124 ;;      Params:         0       2       0       0       0       0       0       0       0       0       0       0       
      +0       0       0       0       0       0       0       0       0       0       0       0       0       0       0       
      +0       0       0       0       0       0       0
  2125 ;;      Locals:         0       0       0       0       0       0       0       0       0       0       0       0       
      +0       0       0       0       0       0       0       0       0       0       0       0       0       0       0       
      +0       0       0       0       0       0       0
  2126 ;;      Temps:          0       0       0       0       0       0       0       0       0       0       0       0       
      +0       0       0       0       0       0       0       0       0       0       0       0       0       0       0       
      +0       0       0       0       0       0       0
  2127 ;;      Totals:         0       2       0       0       0       0       0       0       0       0       0       0       
      +0       0       0       0       0       0       0       0       0       0       0       0       0       0       0       
      +0       0       0       0       0       0       0
  2128 ;;Total ram usage:        2 bytes
  2129 ;; Hardware stack levels used:    1
  2130 ;; Hardware stack levels required when called:    8
  2131 ;; This function calls:
  2132 ;;		Nothing
  2133 ;; This function is called by:
  2134 ;;		_CAN1_ErrorNotificationInterruptEnable
  2135 ;; This function uses a non-reentrant model
  2136 ;;
  2137                           
  2138                           	psect	text19
  2139  003512                     __ptext19:
  2140                           	callstack 0
  2141  003512                     _CAN1_SetTxAttemptInterruptHandler:
  2142                           	callstack 116
  2143  003512                     
  2144                           ;mcc_generated_files/can1.c: 669: void CAN1_SetTxAttemptInterruptHandler(void (*handler)
      +                          (void));mcc_generated_files/can1.c: 670: {;mcc_generated_files/can1.c: 671:     CAN1_TxA
      +                          ttemptHandler = handler;
  2145  003512  C582  F562         	movff	CAN1_SetTxAttemptInterruptHandler@handler,_CAN1_TxAttemptHandler
  2146  003516  C583  F563         	movff	CAN1_SetTxAttemptInterruptHandler@handler+1,_CAN1_TxAttemptHandler+1
  2147  00351A  0012               	return		;funcret
  2148  00351C                     __end_of_CAN1_SetTxAttemptInterruptHandler:
  2149                           	callstack 0
  2150                           
  2151 ;; *************** function _CAN1_SetSystemErrorInterruptHandler *****************
  2152 ;; Defined at:
  2153 ;;		line 664 in file "mcc_generated_files/can1.c"
  2154 ;; Parameters:    Size  Location     Type
  2155 ;;  handler         2    0[BANK5 ] PTR FTN()void 
  2156 ;;		 -> DefaultSystemErrorHandler(1), 
  2157 ;; Auto vars:     Size  Location     Type
  2158 ;;		None
  2159 ;; Return value:  Size  Location     Type
  2160 ;;                  1    wreg      void 
  2161 ;; Registers used:
  2162 ;;		wreg, status,2, status,0
  2163 ;; Tracked objects:
  2164 ;;		On entry : 0/0
  2165 ;;		On exit  : 0/0
  2166 ;;		Unchanged: 0/0
  2167 ;; Data sizes:     COMRAM   BANK5   BANK6   BANK7   BANK8   BANK9  BANK10  BANK11  BANK12  BANK13  BANK14  BANK15  BANK1
      +6  BANK17  BANK18  BANK19  BANK20  BANK21  BANK22  BANK23  BANK24  BANK25  BANK26  BANK27  BANK28  BANK29  BANK30  BANK3
      +1  BANK32  BANK33  BANK34  BANK35  BANK36  BANK37
  2168 ;;      Params:         0       2       0       0       0       0       0       0       0       0       0       0       
      +0       0       0       0       0       0       0       0       0       0       0       0       0       0       0       
      +0       0       0       0       0       0       0
  2169 ;;      Locals:         0       0       0       0       0       0       0       0       0       0       0       0       
      +0       0       0       0       0       0       0       0       0       0       0       0       0       0       0       
      +0       0       0       0       0       0       0
  2170 ;;      Temps:          0       0       0       0       0       0       0       0       0       0       0       0       
      +0       0       0       0       0       0       0       0       0       0       0       0       0       0       0       
      +0       0       0       0       0       0       0
  2171 ;;      Totals:         0       2       0       0       0       0       0       0       0       0       0       0       
      +0       0       0       0       0       0       0       0       0       0       0       0       0       0       0       
      +0       0       0       0       0       0       0
  2172 ;;Total ram usage:        2 bytes
  2173 ;; Hardware stack levels used:    1
  2174 ;; Hardware stack levels required when called:    8
  2175 ;; This function calls:
  2176 ;;		Nothing
  2177 ;; This function is called by:
  2178 ;;		_CAN1_ErrorNotificationInterruptEnable
  2179 ;; This function uses a non-reentrant model
  2180 ;;
  2181                           
  2182                           	psect	text20
  2183  00351C                     __ptext20:
  2184                           	callstack 0
  2185  00351C                     _CAN1_SetSystemErrorInterruptHandler:
  2186                           	callstack 116
  2187  00351C                     
  2188                           ;mcc_generated_files/can1.c: 664: void CAN1_SetSystemErrorInterruptHandler(void (*handle
      +                          r)(void));mcc_generated_files/can1.c: 665: {;mcc_generated_files/can1.c: 666:     CAN1_S
      +                          ystemErrorHandler = handler;
  2189  00351C  C582  F564         	movff	CAN1_SetSystemErrorInterruptHandler@handler,_CAN1_SystemErrorHandler
  2190  003520  C583  F565         	movff	CAN1_SetSystemErrorInterruptHandler@handler+1,_CAN1_SystemErrorHandler+1
  2191  003524  0012               	return		;funcret
  2192  003526                     __end_of_CAN1_SetSystemErrorInterruptHandler:
  2193                           	callstack 0
  2194                           
  2195 ;; *************** function _CAN1_SetRxBufferOverFlowInterruptHandler *****************
  2196 ;; Defined at:
  2197 ;;		line 674 in file "mcc_generated_files/can1.c"
  2198 ;; Parameters:    Size  Location     Type
  2199 ;;  handler         2    0[BANK5 ] PTR FTN()void 
  2200 ;;		 -> DefaultRxBufferOverflowHandler(1), 
  2201 ;; Auto vars:     Size  Location     Type
  2202 ;;		None
  2203 ;; Return value:  Size  Location     Type
  2204 ;;                  1    wreg      void 
  2205 ;; Registers used:
  2206 ;;		wreg, status,2, status,0
  2207 ;; Tracked objects:
  2208 ;;		On entry : 0/0
  2209 ;;		On exit  : 0/0
  2210 ;;		Unchanged: 0/0
  2211 ;; Data sizes:     COMRAM   BANK5   BANK6   BANK7   BANK8   BANK9  BANK10  BANK11  BANK12  BANK13  BANK14  BANK15  BANK1
      +6  BANK17  BANK18  BANK19  BANK20  BANK21  BANK22  BANK23  BANK24  BANK25  BANK26  BANK27  BANK28  BANK29  BANK30  BANK3
      +1  BANK32  BANK33  BANK34  BANK35  BANK36  BANK37
  2212 ;;      Params:         0       2       0       0       0       0       0       0       0       0       0       0       
      +0       0       0       0       0       0       0       0       0       0       0       0       0       0       0       
      +0       0       0       0       0       0       0
  2213 ;;      Locals:         0       0       0       0       0       0       0       0       0       0       0       0       
      +0       0       0       0       0       0       0       0       0       0       0       0       0       0       0       
      +0       0       0       0       0       0       0
  2214 ;;      Temps:          0       0       0       0       0       0       0       0       0       0       0       0       
      +0       0       0       0       0       0       0       0       0       0       0       0       0       0       0       
      +0       0       0       0       0       0       0
  2215 ;;      Totals:         0       2       0       0       0       0       0       0       0       0       0       0       
      +0       0       0       0       0       0       0       0       0       0       0       0       0       0       0       
      +0       0       0       0       0       0       0
  2216 ;;Total ram usage:        2 bytes
  2217 ;; Hardware stack levels used:    1
  2218 ;; Hardware stack levels required when called:    8
  2219 ;; This function calls:
  2220 ;;		Nothing
  2221 ;; This function is called by:
  2222 ;;		_CAN1_ErrorNotificationInterruptEnable
  2223 ;; This function uses a non-reentrant model
  2224 ;;
  2225                           
  2226                           	psect	text21
  2227  003526                     __ptext21:
  2228                           	callstack 0
  2229  003526                     _CAN1_SetRxBufferOverFlowInterruptHandler:
  2230                           	callstack 116
  2231  003526                     
  2232                           ;mcc_generated_files/can1.c: 674: void CAN1_SetRxBufferOverFlowInterruptHandler(void (*h
      +                          andler)(void));mcc_generated_files/can1.c: 675: {;mcc_generated_files/can1.c: 676:     C
      +                          AN1_RxBufferOverflowHandler = handler;
  2233  003526  C582  F560         	movff	CAN1_SetRxBufferOverFlowInterruptHandler@handler,_CAN1_RxBufferOverflowHandler
  2234  00352A  C583  F561         	movff	CAN1_SetRxBufferOverFlowInterruptHandler@handler+1,_CAN1_RxBufferOverflowHandler+
      +                          1
  2235  00352E  0012               	return		;funcret
  2236  003530                     __end_of_CAN1_SetRxBufferOverFlowInterruptHandler:
  2237                           	callstack 0
  2238                           
  2239 ;; *************** function _CAN1_SetModeChangeInterruptHandler *****************
  2240 ;; Defined at:
  2241 ;;		line 659 in file "mcc_generated_files/can1.c"
  2242 ;; Parameters:    Size  Location     Type
  2243 ;;  handler         2    0[BANK5 ] PTR FTN()void 
  2244 ;;		 -> DefaultModeChangeHandler(1), 
  2245 ;; Auto vars:     Size  Location     Type
  2246 ;;		None
  2247 ;; Return value:  Size  Location     Type
  2248 ;;                  1    wreg      void 
  2249 ;; Registers used:
  2250 ;;		wreg, status,2, status,0
  2251 ;; Tracked objects:
  2252 ;;		On entry : 0/0
  2253 ;;		On exit  : 0/0
  2254 ;;		Unchanged: 0/0
  2255 ;; Data sizes:     COMRAM   BANK5   BANK6   BANK7   BANK8   BANK9  BANK10  BANK11  BANK12  BANK13  BANK14  BANK15  BANK1
      +6  BANK17  BANK18  BANK19  BANK20  BANK21  BANK22  BANK23  BANK24  BANK25  BANK26  BANK27  BANK28  BANK29  BANK30  BANK3
      +1  BANK32  BANK33  BANK34  BANK35  BANK36  BANK37
  2256 ;;      Params:         0       2       0       0       0       0       0       0       0       0       0       0       
      +0       0       0       0       0       0       0       0       0       0       0       0       0       0       0       
      +0       0       0       0       0       0       0
  2257 ;;      Locals:         0       0       0       0       0       0       0       0       0       0       0       0       
      +0       0       0       0       0       0       0       0       0       0       0       0       0       0       0       
      +0       0       0       0       0       0       0
  2258 ;;      Temps:          0       0       0       0       0       0       0       0       0       0       0       0       
      +0       0       0       0       0       0       0       0       0       0       0       0       0       0       0       
      +0       0       0       0       0       0       0
  2259 ;;      Totals:         0       2       0       0       0       0       0       0       0       0       0       0       
      +0       0       0       0       0       0       0       0       0       0       0       0       0       0       0       
      +0       0       0       0       0       0       0
  2260 ;;Total ram usage:        2 bytes
  2261 ;; Hardware stack levels used:    1
  2262 ;; Hardware stack levels required when called:    8
  2263 ;; This function calls:
  2264 ;;		Nothing
  2265 ;; This function is called by:
  2266 ;;		_CAN1_ErrorNotificationInterruptEnable
  2267 ;; This function uses a non-reentrant model
  2268 ;;
  2269                           
  2270                           	psect	text22
  2271  003530                     __ptext22:
  2272                           	callstack 0
  2273  003530                     _CAN1_SetModeChangeInterruptHandler:
  2274                           	callstack 116
  2275  003530                     
  2276                           ;mcc_generated_files/can1.c: 659: void CAN1_SetModeChangeInterruptHandler(void (*handler
      +                          )(void));mcc_generated_files/can1.c: 660: {;mcc_generated_files/can1.c: 661:     CAN1_Mo
      +                          deChangeHandler = handler;
  2277  003530  C582  F566         	movff	CAN1_SetModeChangeInterruptHandler@handler,_CAN1_ModeChangeHandler
  2278  003534  C583  F567         	movff	CAN1_SetModeChangeInterruptHandler@handler+1,_CAN1_ModeChangeHandler+1
  2279  003538  0012               	return		;funcret
  2280  00353A                     __end_of_CAN1_SetModeChangeInterruptHandler:
  2281                           	callstack 0
  2282                           
  2283 ;; *************** function _CAN1_SetInvalidMessageInterruptHandler *****************
  2284 ;; Defined at:
  2285 ;;		line 644 in file "mcc_generated_files/can1.c"
  2286 ;; Parameters:    Size  Location     Type
  2287 ;;  handler         2    0[BANK5 ] PTR FTN()void 
  2288 ;;		 -> DefaultInvalidMessageHandler(1), 
  2289 ;; Auto vars:     Size  Location     Type
  2290 ;;		None
  2291 ;; Return value:  Size  Location     Type
  2292 ;;                  1    wreg      void 
  2293 ;; Registers used:
  2294 ;;		wreg, status,2, status,0
  2295 ;; Tracked objects:
  2296 ;;		On entry : 0/0
  2297 ;;		On exit  : 0/0
  2298 ;;		Unchanged: 0/0
  2299 ;; Data sizes:     COMRAM   BANK5   BANK6   BANK7   BANK8   BANK9  BANK10  BANK11  BANK12  BANK13  BANK14  BANK15  BANK1
      +6  BANK17  BANK18  BANK19  BANK20  BANK21  BANK22  BANK23  BANK24  BANK25  BANK26  BANK27  BANK28  BANK29  BANK30  BANK3
      +1  BANK32  BANK33  BANK34  BANK35  BANK36  BANK37
  2300 ;;      Params:         0       2       0       0       0       0       0       0       0       0       0       0       
      +0       0       0       0       0       0       0       0       0       0       0       0       0       0       0       
      +0       0       0       0       0       0       0
  2301 ;;      Locals:         0       0       0       0       0       0       0       0       0       0       0       0       
      +0       0       0       0       0       0       0       0       0       0       0       0       0       0       0       
      +0       0       0       0       0       0       0
  2302 ;;      Temps:          0       0       0       0       0       0       0       0       0       0       0       0       
      +0       0       0       0       0       0       0       0       0       0       0       0       0       0       0       
      +0       0       0       0       0       0       0
  2303 ;;      Totals:         0       2       0       0       0       0       0       0       0       0       0       0       
      +0       0       0       0       0       0       0       0       0       0       0       0       0       0       0       
      +0       0       0       0       0       0       0
  2304 ;;Total ram usage:        2 bytes
  2305 ;; Hardware stack levels used:    1
  2306 ;; Hardware stack levels required when called:    8
  2307 ;; This function calls:
  2308 ;;		Nothing
  2309 ;; This function is called by:
  2310 ;;		_CAN1_ErrorNotificationInterruptEnable
  2311 ;; This function uses a non-reentrant model
  2312 ;;
  2313                           
  2314                           	psect	text23
  2315  00353A                     __ptext23:
  2316                           	callstack 0
  2317  00353A                     _CAN1_SetInvalidMessageInterruptHandler:
  2318                           	callstack 116
  2319  00353A                     
  2320                           ;mcc_generated_files/can1.c: 644: void CAN1_SetInvalidMessageInterruptHandler(void (*han
      +                          dler)(void));mcc_generated_files/can1.c: 645: {;mcc_generated_files/can1.c: 646:     CAN
      +                          1_InvalidMessageHandler = handler;
  2321  00353A  C582  F56C         	movff	CAN1_SetInvalidMessageInterruptHandler@handler,_CAN1_InvalidMessageHandler
  2322  00353E  C583  F56D         	movff	CAN1_SetInvalidMessageInterruptHandler@handler+1,_CAN1_InvalidMessageHandler+1
  2323  003542  0012               	return		;funcret
  2324  003544                     __end_of_CAN1_SetInvalidMessageInterruptHandler:
  2325                           	callstack 0
  2326                           
  2327 ;; *************** function _CAN1_SetBusWakeUpActivityInterruptHandler *****************
  2328 ;; Defined at:
  2329 ;;		line 649 in file "mcc_generated_files/can1.c"
  2330 ;; Parameters:    Size  Location     Type
  2331 ;;  handler         2    0[BANK5 ] PTR FTN()void 
  2332 ;;		 -> DefaultBusWakeUpActivityHandler(1), 
  2333 ;; Auto vars:     Size  Location     Type
  2334 ;;		None
  2335 ;; Return value:  Size  Location     Type
  2336 ;;                  1    wreg      void 
  2337 ;; Registers used:
  2338 ;;		wreg, status,2, status,0
  2339 ;; Tracked objects:
  2340 ;;		On entry : 0/0
  2341 ;;		On exit  : 0/0
  2342 ;;		Unchanged: 0/0
  2343 ;; Data sizes:     COMRAM   BANK5   BANK6   BANK7   BANK8   BANK9  BANK10  BANK11  BANK12  BANK13  BANK14  BANK15  BANK1
      +6  BANK17  BANK18  BANK19  BANK20  BANK21  BANK22  BANK23  BANK24  BANK25  BANK26  BANK27  BANK28  BANK29  BANK30  BANK3
      +1  BANK32  BANK33  BANK34  BANK35  BANK36  BANK37
  2344 ;;      Params:         0       2       0       0       0       0       0       0       0       0       0       0       
      +0       0       0       0       0       0       0       0       0       0       0       0       0       0       0       
      +0       0       0       0       0       0       0
  2345 ;;      Locals:         0       0       0       0       0       0       0       0       0       0       0       0       
      +0       0       0       0       0       0       0       0       0       0       0       0       0       0       0       
      +0       0       0       0       0       0       0
  2346 ;;      Temps:          0       0       0       0       0       0       0       0       0       0       0       0       
      +0       0       0       0       0       0       0       0       0       0       0       0       0       0       0       
      +0       0       0       0       0       0       0
  2347 ;;      Totals:         0       2       0       0       0       0       0       0       0       0       0       0       
      +0       0       0       0       0       0       0       0       0       0       0       0       0       0       0       
      +0       0       0       0       0       0       0
  2348 ;;Total ram usage:        2 bytes
  2349 ;; Hardware stack levels used:    1
  2350 ;; Hardware stack levels required when called:    8
  2351 ;; This function calls:
  2352 ;;		Nothing
  2353 ;; This function is called by:
  2354 ;;		_CAN1_ErrorNotificationInterruptEnable
  2355 ;; This function uses a non-reentrant model
  2356 ;;
  2357                           
  2358                           	psect	text24
  2359  003544                     __ptext24:
  2360                           	callstack 0
  2361  003544                     _CAN1_SetBusWakeUpActivityInterruptHandler:
  2362                           	callstack 116
  2363  003544                     
  2364                           ;mcc_generated_files/can1.c: 649: void CAN1_SetBusWakeUpActivityInterruptHandler(void (*
      +                          handler)(void));mcc_generated_files/can1.c: 650: {;mcc_generated_files/can1.c: 651:     
      +                          CAN1_BusWakeUpActivityHandler = handler;
  2365  003544  C582  F56A         	movff	CAN1_SetBusWakeUpActivityInterruptHandler@handler,_CAN1_BusWakeUpActivityHandler
  2366  003548  C583  F56B         	movff	CAN1_SetBusWakeUpActivityInterruptHandler@handler+1,_CAN1_BusWakeUpActivityHandle
      +                          r+1
  2367  00354C  0012               	return		;funcret
  2368  00354E                     __end_of_CAN1_SetBusWakeUpActivityInterruptHandler:
  2369                           	callstack 0
  2370                           
  2371 ;; *************** function _CAN1_SetBusErrorInterruptHandler *****************
  2372 ;; Defined at:
  2373 ;;		line 654 in file "mcc_generated_files/can1.c"
  2374 ;; Parameters:    Size  Location     Type
  2375 ;;  handler         2    0[BANK5 ] PTR FTN()void 
  2376 ;;		 -> DefaultBusErrorHandler(1), 
  2377 ;; Auto vars:     Size  Location     Type
  2378 ;;		None
  2379 ;; Return value:  Size  Location     Type
  2380 ;;                  1    wreg      void 
  2381 ;; Registers used:
  2382 ;;		wreg, status,2, status,0
  2383 ;; Tracked objects:
  2384 ;;		On entry : 0/0
  2385 ;;		On exit  : 0/0
  2386 ;;		Unchanged: 0/0
  2387 ;; Data sizes:     COMRAM   BANK5   BANK6   BANK7   BANK8   BANK9  BANK10  BANK11  BANK12  BANK13  BANK14  BANK15  BANK1
      +6  BANK17  BANK18  BANK19  BANK20  BANK21  BANK22  BANK23  BANK24  BANK25  BANK26  BANK27  BANK28  BANK29  BANK30  BANK3
      +1  BANK32  BANK33  BANK34  BANK35  BANK36  BANK37
  2388 ;;      Params:         0       2       0       0       0       0       0       0       0       0       0       0       
      +0       0       0       0       0       0       0       0       0       0       0       0       0       0       0       
      +0       0       0       0       0       0       0
  2389 ;;      Locals:         0       0       0       0       0       0       0       0       0       0       0       0       
      +0       0       0       0       0       0       0       0       0       0       0       0       0       0       0       
      +0       0       0       0       0       0       0
  2390 ;;      Temps:          0       0       0       0       0       0       0       0       0       0       0       0       
      +0       0       0       0       0       0       0       0       0       0       0       0       0       0       0       
      +0       0       0       0       0       0       0
  2391 ;;      Totals:         0       2       0       0       0       0       0       0       0       0       0       0       
      +0       0       0       0       0       0       0       0       0       0       0       0       0       0       0       
      +0       0       0       0       0       0       0
  2392 ;;Total ram usage:        2 bytes
  2393 ;; Hardware stack levels used:    1
  2394 ;; Hardware stack levels required when called:    8
  2395 ;; This function calls:
  2396 ;;		Nothing
  2397 ;; This function is called by:
  2398 ;;		_CAN1_ErrorNotificationInterruptEnable
  2399 ;; This function uses a non-reentrant model
  2400 ;;
  2401                           
  2402                           	psect	text25
  2403  00354E                     __ptext25:
  2404                           	callstack 0
  2405  00354E                     _CAN1_SetBusErrorInterruptHandler:
  2406                           	callstack 116
  2407  00354E                     
  2408                           ;mcc_generated_files/can1.c: 654: void CAN1_SetBusErrorInterruptHandler(void (*handler)(
      +                          void));mcc_generated_files/can1.c: 655: {;mcc_generated_files/can1.c: 656:     CAN1_BusE
      +                          rrorHandler = handler;
  2409  00354E  C582  F568         	movff	CAN1_SetBusErrorInterruptHandler@handler,_CAN1_BusErrorHandler
  2410  003552  C583  F569         	movff	CAN1_SetBusErrorInterruptHandler@handler+1,_CAN1_BusErrorHandler+1
  2411  003556  0012               	return		;funcret
  2412  003558                     __end_of_CAN1_SetBusErrorInterruptHandler:
  2413                           	callstack 0
  2414                           
  2415 ;; *************** function _CAN1_BitRateConfiguration *****************
  2416 ;; Defined at:
  2417 ;;		line 228 in file "mcc_generated_files/can1.c"
  2418 ;; Parameters:    Size  Location     Type
  2419 ;;		None
  2420 ;; Auto vars:     Size  Location     Type
  2421 ;;		None
  2422 ;; Return value:  Size  Location     Type
  2423 ;;                  1    wreg      void 
  2424 ;; Registers used:
  2425 ;;		wreg, status,2
  2426 ;; Tracked objects:
  2427 ;;		On entry : 0/0
  2428 ;;		On exit  : 0/0
  2429 ;;		Unchanged: 0/0
  2430 ;; Data sizes:     COMRAM   BANK5   BANK6   BANK7   BANK8   BANK9  BANK10  BANK11  BANK12  BANK13  BANK14  BANK15  BANK1
      +6  BANK17  BANK18  BANK19  BANK20  BANK21  BANK22  BANK23  BANK24  BANK25  BANK26  BANK27  BANK28  BANK29  BANK30  BANK3
      +1  BANK32  BANK33  BANK34  BANK35  BANK36  BANK37
  2431 ;;      Params:         0       0       0       0       0       0       0       0       0       0       0       0       
      +0       0       0       0       0       0       0       0       0       0       0       0       0       0       0       
      +0       0       0       0       0       0       0
  2432 ;;      Locals:         0       0       0       0       0       0       0       0       0       0       0       0       
      +0       0       0       0       0       0       0       0       0       0       0       0       0       0       0       
      +0       0       0       0       0       0       0
  2433 ;;      Temps:          0       0       0       0       0       0       0       0       0       0       0       0       
      +0       0       0       0       0       0       0       0       0       0       0       0       0       0       0       
      +0       0       0       0       0       0       0
  2434 ;;      Totals:         0       0       0       0       0       0       0       0       0       0       0       0       
      +0       0       0       0       0       0       0       0       0       0       0       0       0       0       0       
      +0       0       0       0       0       0       0
  2435 ;;Total ram usage:        0 bytes
  2436 ;; Hardware stack levels used:    1
  2437 ;; Hardware stack levels required when called:    8
  2438 ;; This function calls:
  2439 ;;		Nothing
  2440 ;; This function is called by:
  2441 ;;		_CAN1_Initialize
  2442 ;; This function uses a non-reentrant model
  2443 ;;
  2444                           
  2445                           	psect	text26
  2446  0034D6                     __ptext26:
  2447                           	callstack 0
  2448  0034D6                     _CAN1_BitRateConfiguration:
  2449                           	callstack 117
  2450  0034D6                     
  2451                           ;mcc_generated_files/can1.c: 231:     C1NBTCFGL = 0x01;
  2452  0034D6  0E01               	movlw	1
  2453  0034D8  0101               	movlb	1	; () banked
  2454  0034DA  6F04               	movwf	4,b	;volatile
  2455                           
  2456                           ;mcc_generated_files/can1.c: 234:     C1NBTCFGH = 0x01;
  2457  0034DC  0E01               	movlw	1
  2458  0034DE  6F05               	movwf	5,b	;volatile
  2459                           
  2460                           ;mcc_generated_files/can1.c: 237:     C1NBTCFGU = 0x06;
  2461  0034E0  0E06               	movlw	6
  2462  0034E2  6F06               	movwf	6,b	;volatile
  2463                           
  2464                           ;mcc_generated_files/can1.c: 240:     C1NBTCFGT = 0x00;
  2465  0034E4  0E00               	movlw	0
  2466  0034E6  6F07               	movwf	7,b	;volatile
  2467  0034E8                     
  2468                           ; BSR set to: 1
  2469  0034E8  0012               	return		;funcret
  2470  0034EA                     __end_of_CAN1_BitRateConfiguration:
  2471                           	callstack 0
  2472                           
  2473 ;; *************** function _PARAMETERS_Init *****************
  2474 ;; Defined at:
  2475 ;;		line 17 in file "PARAMETERS.c"
  2476 ;; Parameters:    Size  Location     Type
  2477 ;;		None
  2478 ;; Auto vars:     Size  Location     Type
  2479 ;;		None
  2480 ;; Return value:  Size  Location     Type
  2481 ;;                  1    wreg      void 
  2482 ;; Registers used:
  2483 ;;		wreg, status,2
  2484 ;; Tracked objects:
  2485 ;;		On entry : 0/0
  2486 ;;		On exit  : 0/0
  2487 ;;		Unchanged: 0/0
  2488 ;; Data sizes:     COMRAM   BANK5   BANK6   BANK7   BANK8   BANK9  BANK10  BANK11  BANK12  BANK13  BANK14  BANK15  BANK1
      +6  BANK17  BANK18  BANK19  BANK20  BANK21  BANK22  BANK23  BANK24  BANK25  BANK26  BANK27  BANK28  BANK29  BANK30  BANK3
      +1  BANK32  BANK33  BANK34  BANK35  BANK36  BANK37
  2489 ;;      Params:         0       0       0       0       0       0       0       0       0       0       0       0       
      +0       0       0       0       0       0       0       0       0       0       0       0       0       0       0       
      +0       0       0       0       0       0       0
  2490 ;;      Locals:         0       0       0       0       0       0       0       0       0       0       0       0       
      +0       0       0       0       0       0       0       0       0       0       0       0       0       0       0       
      +0       0       0       0       0       0       0
  2491 ;;      Temps:          0       0       0       0       0       0       0       0       0       0       0       0       
      +0       0       0       0       0       0       0       0       0       0       0       0       0       0       0       
      +0       0       0       0       0       0       0
  2492 ;;      Totals:         0       0       0       0       0       0       0       0       0       0       0       0       
      +0       0       0       0       0       0       0       0       0       0       0       0       0       0       0       
      +0       0       0       0       0       0       0
  2493 ;;Total ram usage:        0 bytes
  2494 ;; Hardware stack levels used:    1
  2495 ;; Hardware stack levels required when called:    8
  2496 ;; This function calls:
  2497 ;;		Nothing
  2498 ;; This function is called by:
  2499 ;;		_main
  2500 ;; This function uses a non-reentrant model
  2501 ;;
  2502                           
  2503                           	psect	text27
  2504  003558                     __ptext27:
  2505                           	callstack 0
  2506  003558                     _PARAMETERS_Init:
  2507                           	callstack 119
  2508  003558                     
  2509                           ;PARAMETERS.c: 19:     ucASSIName = 0;
  2510  003558  0E00               	movlw	0
  2511  00355A  6E4A               	movwf	_ucASSIName^(0+1280),c
  2512  00355C  0012               	return		;funcret
  2513  00355E                     __end_of_PARAMETERS_Init:
  2514                           	callstack 0
  2515                           
  2516 ;; *************** function _Init_hardware *****************
  2517 ;; Defined at:
  2518 ;;		line 56 in file "main.c"
  2519 ;; Parameters:    Size  Location     Type
  2520 ;;		None
  2521 ;; Auto vars:     Size  Location     Type
  2522 ;;		None
  2523 ;; Return value:  Size  Location     Type
  2524 ;;                  1    wreg      void 
  2525 ;; Registers used:
  2526 ;;		wreg, status,2, status,0, cstack
  2527 ;; Tracked objects:
  2528 ;;		On entry : 0/0
  2529 ;;		On exit  : 0/0
  2530 ;;		Unchanged: 0/0
  2531 ;; Data sizes:     COMRAM   BANK5   BANK6   BANK7   BANK8   BANK9  BANK10  BANK11  BANK12  BANK13  BANK14  BANK15  BANK1
      +6  BANK17  BANK18  BANK19  BANK20  BANK21  BANK22  BANK23  BANK24  BANK25  BANK26  BANK27  BANK28  BANK29  BANK30  BANK3
      +1  BANK32  BANK33  BANK34  BANK35  BANK36  BANK37
  2532 ;;      Params:         0       0       0       0       0       0       0       0       0       0       0       0       
      +0       0       0       0       0       0       0       0       0       0       0       0       0       0       0       
      +0       0       0       0       0       0       0
  2533 ;;      Locals:         0       0       0       0       0       0       0       0       0       0       0       0       
      +0       0       0       0       0       0       0       0       0       0       0       0       0       0       0       
      +0       0       0       0       0       0       0
  2534 ;;      Temps:          0       0       0       0       0       0       0       0       0       0       0       0       
      +0       0       0       0       0       0       0       0       0       0       0       0       0       0       0       
      +0       0       0       0       0       0       0
  2535 ;;      Totals:         0       0       0       0       0       0       0       0       0       0       0       0       
      +0       0       0       0       0       0       0       0       0       0       0       0       0       0       0       
      +0       0       0       0       0       0       0
  2536 ;;Total ram usage:        0 bytes
  2537 ;; Hardware stack levels used:    1
  2538 ;; Hardware stack levels required when called:    9
  2539 ;; This function calls:
  2540 ;;		_DELAY_milliseconds
  2541 ;; This function is called by:
  2542 ;;		_main
  2543 ;; This function uses a non-reentrant model
  2544 ;;
  2545                           
  2546                           	psect	text28
  2547  0031D4                     __ptext28:
  2548                           	callstack 0
  2549  0031D4                     _Init_hardware:
  2550                           	callstack 118
  2551  0031D4  92BF               	bcf	191,1,c	;volatile
  2552  0031D6  84BF               	bsf	191,2,c	;volatile
  2553  0031D8  86C0               	bsf	192,3,c	;volatile
  2554  0031DA                     
  2555                           ;main.c: 61:     DELAY_milliseconds(200);
  2556  0031DA  0E00               	movlw	0
  2557  0031DC  0105               	movlb	5	; () banked
  2558  0031DE  6F83               	movwf	(DELAY_milliseconds@milliseconds+1)& (0+255),b
  2559  0031E0  0EC8               	movlw	200
  2560  0031E2  6F82               	movwf	DELAY_milliseconds@milliseconds& (0+255),b
  2561  0031E4  EC46  F019         	call	_DELAY_milliseconds	;wreg free
  2562  0031E8  92BF               	bcf	191,1,c	;volatile
  2563  0031EA  94BF               	bcf	191,2,c	;volatile
  2564  0031EC  96C0               	bcf	192,3,c	;volatile
  2565  0031EE                     
  2566                           ;main.c: 65:     DELAY_milliseconds(200);
  2567  0031EE  0E00               	movlw	0
  2568  0031F0  0105               	movlb	5	; () banked
  2569  0031F2  6F83               	movwf	(DELAY_milliseconds@milliseconds+1)& (0+255),b
  2570  0031F4  0EC8               	movlw	200
  2571  0031F6  6F82               	movwf	DELAY_milliseconds@milliseconds& (0+255),b
  2572  0031F8  EC46  F019         	call	_DELAY_milliseconds	;wreg free
  2573  0031FC  82BF               	bsf	191,1,c	;volatile
  2574  0031FE  94BF               	bcf	191,2,c	;volatile
  2575  003200  86C0               	bsf	192,3,c	;volatile
  2576  003202                     
  2577                           ;main.c: 69:     DELAY_milliseconds(200);
  2578  003202  0E00               	movlw	0
  2579  003204  0105               	movlb	5	; () banked
  2580  003206  6F83               	movwf	(DELAY_milliseconds@milliseconds+1)& (0+255),b
  2581  003208  0EC8               	movlw	200
  2582  00320A  6F82               	movwf	DELAY_milliseconds@milliseconds& (0+255),b
  2583  00320C  EC46  F019         	call	_DELAY_milliseconds	;wreg free
  2584  003210  92BF               	bcf	191,1,c	;volatile
  2585  003212  94BF               	bcf	191,2,c	;volatile
  2586  003214  96C0               	bcf	192,3,c	;volatile
  2587  003216  0012               	return		;funcret
  2588  003218                     __end_of_Init_hardware:
  2589                           	callstack 0
  2590                           
  2591 ;; *************** function _DELAY_milliseconds *****************
  2592 ;; Defined at:
  2593 ;;		line 38 in file "mcc_generated_files/delay.c"
  2594 ;; Parameters:    Size  Location     Type
  2595 ;;  milliseconds    2    0[BANK5 ] unsigned short 
  2596 ;; Auto vars:     Size  Location     Type
  2597 ;;		None
  2598 ;; Return value:  Size  Location     Type
  2599 ;;                  1    wreg      void 
  2600 ;; Registers used:
  2601 ;;		wreg, status,2, status,0
  2602 ;; Tracked objects:
  2603 ;;		On entry : 0/0
  2604 ;;		On exit  : 0/0
  2605 ;;		Unchanged: 0/0
  2606 ;; Data sizes:     COMRAM   BANK5   BANK6   BANK7   BANK8   BANK9  BANK10  BANK11  BANK12  BANK13  BANK14  BANK15  BANK1
      +6  BANK17  BANK18  BANK19  BANK20  BANK21  BANK22  BANK23  BANK24  BANK25  BANK26  BANK27  BANK28  BANK29  BANK30  BANK3
      +1  BANK32  BANK33  BANK34  BANK35  BANK36  BANK37
  2607 ;;      Params:         0       2       0       0       0       0       0       0       0       0       0       0       
      +0       0       0       0       0       0       0       0       0       0       0       0       0       0       0       
      +0       0       0       0       0       0       0
  2608 ;;      Locals:         0       0       0       0       0       0       0       0       0       0       0       0       
      +0       0       0       0       0       0       0       0       0       0       0       0       0       0       0       
      +0       0       0       0       0       0       0
  2609 ;;      Temps:          0       1       0       0       0       0       0       0       0       0       0       0       
      +0       0       0       0       0       0       0       0       0       0       0       0       0       0       0       
      +0       0       0       0       0       0       0
  2610 ;;      Totals:         0       3       0       0       0       0       0       0       0       0       0       0       
      +0       0       0       0       0       0       0       0       0       0       0       0       0       0       0       
      +0       0       0       0       0       0       0
  2611 ;;Total ram usage:        3 bytes
  2612 ;; Hardware stack levels used:    1
  2613 ;; Hardware stack levels required when called:    8
  2614 ;; This function calls:
  2615 ;;		Nothing
  2616 ;; This function is called by:
  2617 ;;		_Init_hardware
  2618 ;; This function uses a non-reentrant model
  2619 ;;
  2620                           
  2621                           	psect	text29
  2622  00328C                     __ptext29:
  2623                           	callstack 0
  2624  00328C                     _DELAY_milliseconds:
  2625                           	callstack 118
  2626  00328C                     
  2627                           ;mcc_generated_files/delay.c: 39:     while(milliseconds--){
  2628  00328C  EF51  F019         	goto	l3031
  2629  003290                     l3029:
  2630                           
  2631                           ; BSR set to: 5
  2632                           ;mcc_generated_files/delay.c: 40:         _delay((unsigned long)((1)*(10000000/4000.0)))
      +                          ;
  2633  003290  0E04               	movlw	4
  2634  003292  0105               	movlb	5	; () banked
  2635  003294  6F84               	movwf	??_DELAY_milliseconds& (0+255),b
  2636  003296  0E3D               	movlw	61
  2637  003298                     u2307:
  2638  003298  2EE8               	decfsz	wreg,f,c
  2639  00329A  D7FE               	bra	u2307
  2640  00329C  2F84               	decfsz	??_DELAY_milliseconds& (0+255),f,b
  2641  00329E  D7FC               	bra	u2307
  2642  0032A0  D000               	nop2	
  2643  0032A2                     l3031:
  2644                           
  2645                           ;mcc_generated_files/delay.c: 39:     while(milliseconds--){
  2646  0032A2  0105               	movlb	5	; () banked
  2647  0032A4  0782               	decf	DELAY_milliseconds@milliseconds& (0+255),f,b
  2648  0032A6  A0D8               	btfss	status,0,c
  2649  0032A8  0783               	decf	(DELAY_milliseconds@milliseconds+1)& (0+255),f,b
  2650  0032AA  2982               	incf	DELAY_milliseconds@milliseconds& (0+255),w,b
  2651  0032AC  E106               	bnz	u1921
  2652  0032AE  2983               	incf	(DELAY_milliseconds@milliseconds+1)& (0+255),w,b
  2653  0032B0  A4D8               	btfss	status,2,c
  2654  0032B2  EF5D  F019         	goto	u1921
  2655  0032B6  EF5F  F019         	goto	u1920
  2656  0032BA                     u1921:
  2657  0032BA  EF48  F019         	goto	l3029
  2658  0032BE                     u1920:
  2659  0032BE                     
  2660                           ; BSR set to: 5
  2661  0032BE  0012               	return		;funcret
  2662  0032C0                     __end_of_DELAY_milliseconds:
  2663                           	callstack 0
  2664                           
  2665 ;; *************** function _INTERRUPT_InterruptManager *****************
  2666 ;; Defined at:
  2667 ;;		line 58 in file "mcc_generated_files/interrupt_manager.c"
  2668 ;; Parameters:    Size  Location     Type
  2669 ;;		None
  2670 ;; Auto vars:     Size  Location     Type
  2671 ;;		None
  2672 ;; Return value:  Size  Location     Type
  2673 ;;                  1    wreg      void 
  2674 ;; Registers used:
  2675 ;;		wreg, fsr2l, fsr2h, status,2, status,0, pclath, tosl, tblptrl, tblptrh, tblptru, prodl, prodh, cstack
  2676 ;; Tracked objects:
  2677 ;;		On entry : 0/0
  2678 ;;		On exit  : 0/0
  2679 ;;		Unchanged: 0/0
  2680 ;; Data sizes:     COMRAM   BANK5   BANK6   BANK7   BANK8   BANK9  BANK10  BANK11  BANK12  BANK13  BANK14  BANK15  BANK1
      +6  BANK17  BANK18  BANK19  BANK20  BANK21  BANK22  BANK23  BANK24  BANK25  BANK26  BANK27  BANK28  BANK29  BANK30  BANK3
      +1  BANK32  BANK33  BANK34  BANK35  BANK36  BANK37
  2681 ;;      Params:         0       0       0       0       0       0       0       0       0       0       0       0       
      +0       0       0       0       0       0       0       0       0       0       0       0       0       0       0       
      +0       0       0       0       0       0       0
  2682 ;;      Locals:         0       0       0       0       0       0       0       0       0       0       0       0       
      +0       0       0       0       0       0       0       0       0       0       0       0       0       0       0       
      +0       0       0       0       0       0       0
  2683 ;;      Temps:          4       0       0       0       0       0       0       0       0       0       0       0       
      +0       0       0       0       0       0       0       0       0       0       0       0       0       0       0       
      +0       0       0       0       0       0       0
  2684 ;;      Totals:         4       0       0       0       0       0       0       0       0       0       0       0       
      +0       0       0       0       0       0       0       0       0       0       0       0       0       0       0       
      +0       0       0       0       0       0       0
  2685 ;;Total ram usage:        4 bytes
  2686 ;; Hardware stack levels used:    1
  2687 ;; Hardware stack levels required when called:    7
  2688 ;; This function calls:
  2689 ;;		_CAN1_ISR
  2690 ;;		_CAN1_RXI_ISR
  2691 ;;		_TMR0_ISR
  2692 ;;		_TMR1_ISR
  2693 ;; This function is called by:
  2694 ;;		Interrupt level 2
  2695 ;; This function uses a non-reentrant model
  2696 ;;
  2697                           
  2698                           	psect	text30
  2699  002CF4                     __ptext30:
  2700                           	callstack 0
  2701  002CF4                     _INTERRUPT_InterruptManager:
  2702                           	callstack 116
  2703                           
  2704                           ; BSR set to: 5
  2705                           ;incstack = 0
  2706  002CF4  0061 F3D8  F538    	movff	tblptrl,??_INTERRUPT_InterruptManager
  2707  002CFA  0061 F3DC  F539    	movff	tblptrh,??_INTERRUPT_InterruptManager+1
  2708  002D00  0061 F3E0  F53A    	movff	tblptru,??_INTERRUPT_InterruptManager+2
  2709  002D06  0061 F3D4  F53B    	movff	tablat,??_INTERRUPT_InterruptManager+3
  2710  002D0C                     
  2711                           ;mcc_generated_files/interrupt_manager.c: 60:     __nop();
  2712  002D0C  F000               	nop	
  2713                           
  2714                           ;mcc_generated_files/interrupt_manager.c: 61:     __nop();
  2715  002D0E  F000               	nop	
  2716                           
  2717                           ;mcc_generated_files/interrupt_manager.c: 63:     if(PIE0bits.CANIE == 1 && PIR0bits.CAN
      +                          IF == 1)
  2718  002D10  AC9E               	btfss	158,6,c	;volatile
  2719  002D12  EF8D  F016         	goto	i2u222_41
  2720  002D16  EF8F  F016         	goto	i2u222_40
  2721  002D1A                     i2u222_41:
  2722  002D1A  EF9A  F016         	goto	i2l501
  2723  002D1E                     i2u222_40:
  2724  002D1E  ACAE               	btfss	174,6,c	;volatile
  2725  002D20  EF94  F016         	goto	i2u223_41
  2726  002D24  EF96  F016         	goto	i2u223_40
  2727  002D28                     i2u223_41:
  2728  002D28  EF9A  F016         	goto	i2l501
  2729  002D2C                     i2u223_40:
  2730  002D2C                     
  2731                           ;mcc_generated_files/interrupt_manager.c: 64:     {;mcc_generated_files/interrupt_manage
      +                          r.c: 65:         CAN1_ISR();
  2732  002D2C  EC27  F014         	call	_CAN1_ISR	;wreg free
  2733                           
  2734                           ;mcc_generated_files/interrupt_manager.c: 66:     }
  2735  002D30  EFD0  F016         	goto	i2l509
  2736  002D34                     i2l501:
  2737  002D34  A8A2               	btfss	162,4,c	;volatile
  2738  002D36  EF9F  F016         	goto	i2u224_41
  2739  002D3A  EFA1  F016         	goto	i2u224_40
  2740  002D3E                     i2u224_41:
  2741  002D3E  EFAC  F016         	goto	i2l503
  2742  002D42                     i2u224_40:
  2743  002D42  A8B2               	btfss	178,4,c	;volatile
  2744  002D44  EFA6  F016         	goto	i2u225_41
  2745  002D48  EFA8  F016         	goto	i2u225_40
  2746  002D4C                     i2u225_41:
  2747  002D4C  EFAC  F016         	goto	i2l503
  2748  002D50                     i2u225_40:
  2749  002D50                     
  2750                           ;mcc_generated_files/interrupt_manager.c: 68:     {;mcc_generated_files/interrupt_manage
      +                          r.c: 69:         CAN1_RXI_ISR();
  2751  002D50  ECD1  F019         	call	_CAN1_RXI_ISR	;wreg free
  2752                           
  2753                           ;mcc_generated_files/interrupt_manager.c: 70:     }
  2754  002D54  EFD0  F016         	goto	i2l509
  2755  002D58                     i2l503:
  2756  002D58  AEA1               	btfss	161,7,c	;volatile
  2757  002D5A  EFB1  F016         	goto	i2u226_41
  2758  002D5E  EFB3  F016         	goto	i2u226_40
  2759  002D62                     i2u226_41:
  2760  002D62  EFBE  F016         	goto	i2l505
  2761  002D66                     i2u226_40:
  2762  002D66  AEB1               	btfss	177,7,c	;volatile
  2763  002D68  EFB8  F016         	goto	i2u227_41
  2764  002D6C  EFBA  F016         	goto	i2u227_40
  2765  002D70                     i2u227_41:
  2766  002D70  EFBE  F016         	goto	i2l505
  2767  002D74                     i2u227_40:
  2768  002D74                     
  2769                           ;mcc_generated_files/interrupt_manager.c: 72:     {;mcc_generated_files/interrupt_manage
      +                          r.c: 73:         TMR0_ISR();
  2770  002D74  ECC3  F017         	call	_TMR0_ISR	;wreg free
  2771                           
  2772                           ;mcc_generated_files/interrupt_manager.c: 74:     }
  2773  002D78  EFD0  F016         	goto	i2l509
  2774  002D7C                     i2l505:
  2775  002D7C  A8A1               	btfss	161,4,c	;volatile
  2776  002D7E  EFC3  F016         	goto	i2u228_41
  2777  002D82  EFC5  F016         	goto	i2u228_40
  2778  002D86                     i2u228_41:
  2779  002D86  EFD0  F016         	goto	i2l504
  2780  002D8A                     i2u228_40:
  2781  002D8A  A8B1               	btfss	177,4,c	;volatile
  2782  002D8C  EFCA  F016         	goto	i2u229_41
  2783  002D90  EFCC  F016         	goto	i2u229_40
  2784  002D94                     i2u229_41:
  2785  002D94  EFD0  F016         	goto	i2l504
  2786  002D98                     i2u229_40:
  2787  002D98                     
  2788                           ;mcc_generated_files/interrupt_manager.c: 76:     {;mcc_generated_files/interrupt_manage
      +                          r.c: 77:         TMR1_ISR();
  2789  002D98  EC0C  F019         	call	_TMR1_ISR	;wreg free
  2790                           
  2791                           ;mcc_generated_files/interrupt_manager.c: 78:     }
  2792  002D9C  EFD0  F016         	goto	i2l509
  2793  002DA0                     i2l504:
  2794  002DA0                     i2l509:
  2795  002DA0  0061  F4EC  F4F5   	movff	??_INTERRUPT_InterruptManager+3,tablat
  2796  002DA6  0061  F4E8  F4F8   	movff	??_INTERRUPT_InterruptManager+2,tblptru
  2797  002DAC  0061  F4E4  F4F7   	movff	??_INTERRUPT_InterruptManager+1,tblptrh
  2798  002DB2  0061  F4E0  F4F6   	movff	??_INTERRUPT_InterruptManager,tblptrl
  2799  002DB8  0011               	retfie		f
  2800  002DBA                     __end_of_INTERRUPT_InterruptManager:
  2801                           	callstack 0
  2802                           
  2803 ;; *************** function _TMR1_ISR *****************
  2804 ;; Defined at:
  2805 ;;		line 164 in file "mcc_generated_files/tmr1.c"
  2806 ;; Parameters:    Size  Location     Type
  2807 ;;		None
  2808 ;; Auto vars:     Size  Location     Type
  2809 ;;		None
  2810 ;; Return value:  Size  Location     Type
  2811 ;;                  1    wreg      void 
  2812 ;; Registers used:
  2813 ;;		wreg, status,2, status,0, pclath, tosl, cstack
  2814 ;; Tracked objects:
  2815 ;;		On entry : 0/0
  2816 ;;		On exit  : 0/0
  2817 ;;		Unchanged: 0/0
  2818 ;; Data sizes:     COMRAM   BANK5   BANK6   BANK7   BANK8   BANK9  BANK10  BANK11  BANK12  BANK13  BANK14  BANK15  BANK1
      +6  BANK17  BANK18  BANK19  BANK20  BANK21  BANK22  BANK23  BANK24  BANK25  BANK26  BANK27  BANK28  BANK29  BANK30  BANK3
      +1  BANK32  BANK33  BANK34  BANK35  BANK36  BANK37
  2819 ;;      Params:         0       0       0       0       0       0       0       0       0       0       0       0       
      +0       0       0       0       0       0       0       0       0       0       0       0       0       0       0       
      +0       0       0       0       0       0       0
  2820 ;;      Locals:         0       0       0       0       0       0       0       0       0       0       0       0       
      +0       0       0       0       0       0       0       0       0       0       0       0       0       0       0       
      +0       0       0       0       0       0       0
  2821 ;;      Temps:          0       0       0       0       0       0       0       0       0       0       0       0       
      +0       0       0       0       0       0       0       0       0       0       0       0       0       0       0       
      +0       0       0       0       0       0       0
  2822 ;;      Totals:         0       0       0       0       0       0       0       0       0       0       0       0       
      +0       0       0       0       0       0       0       0       0       0       0       0       0       0       0       
      +0       0       0       0       0       0       0
  2823 ;;Total ram usage:        0 bytes
  2824 ;; Hardware stack levels used:    1
  2825 ;; Hardware stack levels required when called:    2
  2826 ;; This function calls:
  2827 ;;		_LEDS
  2828 ;;		_TMR1_CallBack
  2829 ;;		_TMR1_WriteTimer
  2830 ;; This function is called by:
  2831 ;;		_INTERRUPT_InterruptManager
  2832 ;; This function uses a non-reentrant model
  2833 ;;
  2834                           
  2835                           	psect	text31
  2836  003218                     __ptext31:
  2837                           	callstack 0
  2838  003218                     _TMR1_ISR:
  2839                           	callstack 120
  2840  003218                     
  2841                           ;mcc_generated_files/tmr1.c: 166:     static volatile unsigned int CountCallBack = 0;;mc
      +                          c_generated_files/tmr1.c: 169:     PIR3bits.TMR1IF = 0;
  2842  003218  98B1               	bcf	177,4,c	;volatile
  2843  00321A                     
  2844                           ;mcc_generated_files/tmr1.c: 170:     TMR1_WriteTimer(timer1ReloadVal);
  2845  00321A  C55D  F501         	movff	_timer1ReloadVal,TMR1_WriteTimer@timerVal	;volatile
  2846  00321E  C55E  F502         	movff	_timer1ReloadVal+1,TMR1_WriteTimer@timerVal+1	;volatile
  2847  003222  EC77  F019         	call	_TMR1_WriteTimer	;wreg free
  2848  003226                     
  2849                           ;mcc_generated_files/tmr1.c: 173:     if (++CountCallBack >= 5)
  2850  003226  4A46               	infsnz	TMR1_ISR@CountCallBack^(0+1280),f,c	;volatile
  2851  003228  2A47               	incf	(TMR1_ISR@CountCallBack+1)^(0+1280),f,c	;volatile
  2852  00322A  5047               	movf	(TMR1_ISR@CountCallBack+1)^(0+1280),w,c	;volatile
  2853  00322C  E109               	bnz	i2u211_40
  2854  00322E  0E05               	movlw	5
  2855  003230  5C46               	subwf	TMR1_ISR@CountCallBack^(0+1280),w,c	;volatile
  2856  003232  A0D8               	btfss	status,0,c
  2857  003234  EF1E  F019         	goto	i2u211_41
  2858  003238  EF20  F019         	goto	i2u211_40
  2859  00323C                     i2u211_41:
  2860  00323C  EF28  F019         	goto	i2l459
  2861  003240                     i2u211_40:
  2862  003240                     
  2863                           ;mcc_generated_files/tmr1.c: 174:     {;mcc_generated_files/tmr1.c: 175:         LEDS();
  2864  003240  ECDD  F016         	call	_LEDS	;wreg free
  2865  003244                     
  2866                           ;mcc_generated_files/tmr1.c: 177:         TMR1_CallBack();
  2867  003244  EC8E  F019         	call	_TMR1_CallBack	;wreg free
  2868  003248                     
  2869                           ;mcc_generated_files/tmr1.c: 180:         CountCallBack = 0;
  2870  003248  0E00               	movlw	0
  2871  00324A  6E47               	movwf	(TMR1_ISR@CountCallBack+1)^(0+1280),c	;volatile
  2872  00324C  0E00               	movlw	0
  2873  00324E  6E46               	movwf	TMR1_ISR@CountCallBack^(0+1280),c	;volatile
  2874  003250                     i2l459:
  2875  003250  0012               	return		;funcret
  2876  003252                     __end_of_TMR1_ISR:
  2877                           	callstack 0
  2878                           
  2879 ;; *************** function _TMR1_WriteTimer *****************
  2880 ;; Defined at:
  2881 ;;		line 127 in file "mcc_generated_files/tmr1.c"
  2882 ;; Parameters:    Size  Location     Type
  2883 ;;  timerVal        2    0[COMRAM] unsigned short 
  2884 ;; Auto vars:     Size  Location     Type
  2885 ;;		None
  2886 ;; Return value:  Size  Location     Type
  2887 ;;                  1    wreg      void 
  2888 ;; Registers used:
  2889 ;;		wreg, status,2
  2890 ;; Tracked objects:
  2891 ;;		On entry : 0/0
  2892 ;;		On exit  : 0/0
  2893 ;;		Unchanged: 0/0
  2894 ;; Data sizes:     COMRAM   BANK5   BANK6   BANK7   BANK8   BANK9  BANK10  BANK11  BANK12  BANK13  BANK14  BANK15  BANK1
      +6  BANK17  BANK18  BANK19  BANK20  BANK21  BANK22  BANK23  BANK24  BANK25  BANK26  BANK27  BANK28  BANK29  BANK30  BANK3
      +1  BANK32  BANK33  BANK34  BANK35  BANK36  BANK37
  2895 ;;      Params:         2       0       0       0       0       0       0       0       0       0       0       0       
      +0       0       0       0       0       0       0       0       0       0       0       0       0       0       0       
      +0       0       0       0       0       0       0
  2896 ;;      Locals:         0       0       0       0       0       0       0       0       0       0       0       0       
      +0       0       0       0       0       0       0       0       0       0       0       0       0       0       0       
      +0       0       0       0       0       0       0
  2897 ;;      Temps:          0       0       0       0       0       0       0       0       0       0       0       0       
      +0       0       0       0       0       0       0       0       0       0       0       0       0       0       0       
      +0       0       0       0       0       0       0
  2898 ;;      Totals:         2       0       0       0       0       0       0       0       0       0       0       0       
      +0       0       0       0       0       0       0       0       0       0       0       0       0       0       0       
      +0       0       0       0       0       0       0
  2899 ;;Total ram usage:        2 bytes
  2900 ;; Hardware stack levels used:    1
  2901 ;; This function calls:
  2902 ;;		Nothing
  2903 ;; This function is called by:
  2904 ;;		_TMR1_ISR
  2905 ;;		_TMR1_Reload
  2906 ;; This function uses a non-reentrant model
  2907 ;;
  2908                           
  2909                           	psect	text32
  2910  0032EE                     __ptext32:
  2911                           	callstack 0
  2912  0032EE                     _TMR1_WriteTimer:
  2913                           	callstack 121
  2914  0032EE                     
  2915                           ;mcc_generated_files/tmr1.c: 127: void TMR1_WriteTimer(uint16_t timerVal);mcc_generated_
      +                          files/tmr1.c: 128: {;mcc_generated_files/tmr1.c: 129:     if (T1CONbits.NOT_SYNC == 1)
  2916  0032EE  0103               	movlb	3	; () banked
  2917  0032F0  A51E               	btfss	30,2,b	;volatile
  2918  0032F2  EF7D  F019         	goto	i2u183_41
  2919  0032F6  EF7F  F019         	goto	i2u183_40
  2920  0032FA                     i2u183_41:
  2921  0032FA  EF88  F019         	goto	i2l2991
  2922  0032FE                     i2u183_40:
  2923  0032FE                     
  2924                           ; BSR set to: 3
  2925                           ;mcc_generated_files/tmr1.c: 130:     {;mcc_generated_files/tmr1.c: 132:         T1CONbi
      +                          ts.TMR1ON = 0;
  2926  0032FE  911E               	bcf	30,0,b	;volatile
  2927  003300                     
  2928                           ; BSR set to: 3
  2929                           ;mcc_generated_files/tmr1.c: 135:         TMR1H = (uint8_t)(timerVal >> 8);
  2930  003300  5002               	movf	(TMR1_WriteTimer@timerVal+1)^(0+1280),w,c
  2931  003302  6F1D               	movwf	29,b	;volatile
  2932  003304                     
  2933                           ; BSR set to: 3
  2934                           ;mcc_generated_files/tmr1.c: 136:         TMR1L = (uint8_t)timerVal;
  2935  003304  0061  F404  F31C   	movff	TMR1_WriteTimer@timerVal,796	;volatile
  2936  00330A                     
  2937                           ; BSR set to: 3
  2938                           ;mcc_generated_files/tmr1.c: 139:         T1CONbits.TMR1ON =1;
  2939  00330A  811E               	bsf	30,0,b	;volatile
  2940                           
  2941                           ;mcc_generated_files/tmr1.c: 140:     }
  2942  00330C  EF8D  F019         	goto	i2l444
  2943  003310                     i2l2991:
  2944                           
  2945                           ; BSR set to: 3
  2946                           ;mcc_generated_files/tmr1.c: 142:     {;mcc_generated_files/tmr1.c: 144:         TMR1H =
      +                           (uint8_t)(timerVal >> 8);
  2947  003310  5002               	movf	(TMR1_WriteTimer@timerVal+1)^(0+1280),w,c
  2948  003312  6F1D               	movwf	29,b	;volatile
  2949  003314                     
  2950                           ; BSR set to: 3
  2951                           ;mcc_generated_files/tmr1.c: 145:         TMR1L = (uint8_t)timerVal;
  2952  003314  0061  F404  F31C   	movff	TMR1_WriteTimer@timerVal,796	;volatile
  2953  00331A                     i2l444:
  2954                           
  2955                           ; BSR set to: 3
  2956  00331A  0012               	return		;funcret
  2957  00331C                     __end_of_TMR1_WriteTimer:
  2958                           	callstack 0
  2959                           
  2960 ;; *************** function _TMR1_CallBack *****************
  2961 ;; Defined at:
  2962 ;;		line 186 in file "mcc_generated_files/tmr1.c"
  2963 ;; Parameters:    Size  Location     Type
  2964 ;;		None
  2965 ;; Auto vars:     Size  Location     Type
  2966 ;;		None
  2967 ;; Return value:  Size  Location     Type
  2968 ;;                  1    wreg      void 
  2969 ;; Registers used:
  2970 ;;		wreg, status,2, status,0, pclath, tosl, cstack
  2971 ;; Tracked objects:
  2972 ;;		On entry : 0/0
  2973 ;;		On exit  : 0/0
  2974 ;;		Unchanged: 0/0
  2975 ;; Data sizes:     COMRAM   BANK5   BANK6   BANK7   BANK8   BANK9  BANK10  BANK11  BANK12  BANK13  BANK14  BANK15  BANK1
      +6  BANK17  BANK18  BANK19  BANK20  BANK21  BANK22  BANK23  BANK24  BANK25  BANK26  BANK27  BANK28  BANK29  BANK30  BANK3
      +1  BANK32  BANK33  BANK34  BANK35  BANK36  BANK37
  2976 ;;      Params:         0       0       0       0       0       0       0       0       0       0       0       0       
      +0       0       0       0       0       0       0       0       0       0       0       0       0       0       0       
      +0       0       0       0       0       0       0
  2977 ;;      Locals:         0       0       0       0       0       0       0       0       0       0       0       0       
      +0       0       0       0       0       0       0       0       0       0       0       0       0       0       0       
      +0       0       0       0       0       0       0
  2978 ;;      Temps:          0       0       0       0       0       0       0       0       0       0       0       0       
      +0       0       0       0       0       0       0       0       0       0       0       0       0       0       0       
      +0       0       0       0       0       0       0
  2979 ;;      Totals:         0       0       0       0       0       0       0       0       0       0       0       0       
      +0       0       0       0       0       0       0       0       0       0       0       0       0       0       0       
      +0       0       0       0       0       0       0
  2980 ;;Total ram usage:        0 bytes
  2981 ;; Hardware stack levels used:    1
  2982 ;; Hardware stack levels required when called:    1
  2983 ;; This function calls:
  2984 ;;		Absolute function
  2985 ;;		_TMR1_DefaultInterruptHandler
  2986 ;; This function is called by:
  2987 ;;		_TMR1_ISR
  2988 ;; This function uses a non-reentrant model
  2989 ;;
  2990                           
  2991                           	psect	text33
  2992  00331C                     __ptext33:
  2993                           	callstack 0
  2994  00331C                     _TMR1_CallBack:
  2995                           	callstack 120
  2996  00331C                     
  2997                           ;mcc_generated_files/tmr1.c: 189:     if(TMR1_InterruptHandler)
  2998  00331C  0105               	movlb	5	; () banked
  2999  00331E  5180               	movf	_TMR1_InterruptHandler& (0+255),w,b
  3000  003320  1181               	iorwf	(_TMR1_InterruptHandler+1)& (0+255),w,b
  3001  003322  B4D8               	btfsc	status,2,c
  3002  003324  EF96  F019         	goto	i2u184_41
  3003  003328  EF98  F019         	goto	i2u184_40
  3004  00332C                     i2u184_41:
  3005  00332C  EFA4  F019         	goto	i2l463
  3006  003330                     i2u184_40:
  3007  003330                     
  3008                           ; BSR set to: 5
  3009                           ;mcc_generated_files/tmr1.c: 190:     {;mcc_generated_files/tmr1.c: 191:         TMR1_In
      +                          terruptHandler();
  3010  003330  D802               	call	i2u185_48
  3011  003332  EFA4  F019         	goto	i2u185_49
  3012  003336                     i2u185_48:
  3013  003336  0005               	push	
  3014  003338  6EFA               	movwf	pclath,c
  3015  00333A  5180               	movf	_TMR1_InterruptHandler& (0+255),w,b
  3016  00333C  6EFD               	movwf	tosl,c
  3017  00333E  5181               	movf	(_TMR1_InterruptHandler+1)& (0+255),w,b
  3018  003340  6EFE               	movwf	tosh,c
  3019  003342  6AFF               	clrf	tosu,c
  3020  003344  50FA               	movf	pclath,w,c
  3021  003346  0012               	return		;indir
  3022  003348                     i2u185_49:
  3023  003348                     i2l463:
  3024  003348  0012               	return		;funcret
  3025  00334A                     __end_of_TMR1_CallBack:
  3026                           	callstack 0
  3027                           
  3028 ;; *************** function _TMR1_DefaultInterruptHandler *****************
  3029 ;; Defined at:
  3030 ;;		line 199 in file "mcc_generated_files/tmr1.c"
  3031 ;; Parameters:    Size  Location     Type
  3032 ;;		None
  3033 ;; Auto vars:     Size  Location     Type
  3034 ;;		None
  3035 ;; Return value:  Size  Location     Type
  3036 ;;                  1    wreg      void 
  3037 ;; Registers used:
  3038 ;;		None
  3039 ;; Tracked objects:
  3040 ;;		On entry : 0/0
  3041 ;;		On exit  : 0/0
  3042 ;;		Unchanged: 0/0
  3043 ;; Data sizes:     COMRAM   BANK5   BANK6   BANK7   BANK8   BANK9  BANK10  BANK11  BANK12  BANK13  BANK14  BANK15  BANK1
      +6  BANK17  BANK18  BANK19  BANK20  BANK21  BANK22  BANK23  BANK24  BANK25  BANK26  BANK27  BANK28  BANK29  BANK30  BANK3
      +1  BANK32  BANK33  BANK34  BANK35  BANK36  BANK37
  3044 ;;      Params:         0       0       0       0       0       0       0       0       0       0       0       0       
      +0       0       0       0       0       0       0       0       0       0       0       0       0       0       0       
      +0       0       0       0       0       0       0
  3045 ;;      Locals:         0       0       0       0       0       0       0       0       0       0       0       0       
      +0       0       0       0       0       0       0       0       0       0       0       0       0       0       0       
      +0       0       0       0       0       0       0
  3046 ;;      Temps:          0       0       0       0       0       0       0       0       0       0       0       0       
      +0       0       0       0       0       0       0       0       0       0       0       0       0       0       0       
      +0       0       0       0       0       0       0
  3047 ;;      Totals:         0       0       0       0       0       0       0       0       0       0       0       0       
      +0       0       0       0       0       0       0       0       0       0       0       0       0       0       0       
      +0       0       0       0       0       0       0
  3048 ;;Total ram usage:        0 bytes
  3049 ;; Hardware stack levels used:    1
  3050 ;; This function calls:
  3051 ;;		Nothing
  3052 ;; This function is called by:
  3053 ;;		_TMR1_Initialize
  3054 ;;		_TMR1_CallBack
  3055 ;; This function uses a non-reentrant model
  3056 ;;
  3057                           
  3058                           	psect	text34
  3059  00356A                     __ptext34:
  3060                           	callstack 0
  3061  00356A                     _TMR1_DefaultInterruptHandler:
  3062                           	callstack 120
  3063  00356A  0012               	return		;funcret
  3064  00356C                     __end_of_TMR1_DefaultInterruptHandler:
  3065                           	callstack 0
  3066                           
  3067 ;; *************** function _TMR0_ISR *****************
  3068 ;; Defined at:
  3069 ;;		line 124 in file "mcc_generated_files/tmr0.c"
  3070 ;; Parameters:    Size  Location     Type
  3071 ;;		None
  3072 ;; Auto vars:     Size  Location     Type
  3073 ;;		None
  3074 ;; Return value:  Size  Location     Type
  3075 ;;                  1    wreg      void 
  3076 ;; Registers used:
  3077 ;;		wreg, status,2, status,0, pclath, tosl, cstack
  3078 ;; Tracked objects:
  3079 ;;		On entry : 0/0
  3080 ;;		On exit  : 0/0
  3081 ;;		Unchanged: 0/0
  3082 ;; Data sizes:     COMRAM   BANK5   BANK6   BANK7   BANK8   BANK9  BANK10  BANK11  BANK12  BANK13  BANK14  BANK15  BANK1
      +6  BANK17  BANK18  BANK19  BANK20  BANK21  BANK22  BANK23  BANK24  BANK25  BANK26  BANK27  BANK28  BANK29  BANK30  BANK3
      +1  BANK32  BANK33  BANK34  BANK35  BANK36  BANK37
  3083 ;;      Params:         0       0       0       0       0       0       0       0       0       0       0       0       
      +0       0       0       0       0       0       0       0       0       0       0       0       0       0       0       
      +0       0       0       0       0       0       0
  3084 ;;      Locals:         0       0       0       0       0       0       0       0       0       0       0       0       
      +0       0       0       0       0       0       0       0       0       0       0       0       0       0       0       
      +0       0       0       0       0       0       0
  3085 ;;      Temps:          0       0       0       0       0       0       0       0       0       0       0       0       
      +0       0       0       0       0       0       0       0       0       0       0       0       0       0       0       
      +0       0       0       0       0       0       0
  3086 ;;      Totals:         0       0       0       0       0       0       0       0       0       0       0       0       
      +0       0       0       0       0       0       0       0       0       0       0       0       0       0       0       
      +0       0       0       0       0       0       0
  3087 ;;Total ram usage:        0 bytes
  3088 ;; Hardware stack levels used:    1
  3089 ;; Hardware stack levels required when called:    2
  3090 ;; This function calls:
  3091 ;;		_SPEAKER
  3092 ;;		_TEMPORIZATION_1s
  3093 ;;		_TMR0_CallBack
  3094 ;; This function is called by:
  3095 ;;		_INTERRUPT_InterruptManager
  3096 ;; This function uses a non-reentrant model
  3097 ;;
  3098                           
  3099                           	psect	text35
  3100  002F86                     __ptext35:
  3101                           	callstack 0
  3102  002F86                     _TMR0_ISR:
  3103                           	callstack 120
  3104  002F86                     
  3105                           ;mcc_generated_files/tmr0.c: 126:     static volatile uint16_t CountCallBack = 0;;mcc_ge
      +                          nerated_files/tmr0.c: 129:     PIR3bits.TMR0IF = 0;
  3106  002F86  9EB1               	bcf	177,7,c	;volatile
  3107  002F88                     
  3108                           ;mcc_generated_files/tmr0.c: 131:     if (++CountCallBack >= 36)
  3109  002F88  4A3C               	infsnz	TMR0_ISR@CountCallBack^(0+1280),f,c	;volatile
  3110  002F8A  2A3D               	incf	(TMR0_ISR@CountCallBack+1)^(0+1280),f,c	;volatile
  3111  002F8C  503D               	movf	(TMR0_ISR@CountCallBack+1)^(0+1280),w,c	;volatile
  3112  002F8E  E109               	bnz	i2u212_40
  3113  002F90  0E24               	movlw	36
  3114  002F92  5C3C               	subwf	TMR0_ISR@CountCallBack^(0+1280),w,c	;volatile
  3115  002F94  A0D8               	btfss	status,0,c
  3116  002F96  EFCF  F017         	goto	i2u212_41
  3117  002F9A  EFD1  F017         	goto	i2u212_40
  3118  002F9E                     i2u212_41:
  3119  002F9E  EFD9  F017         	goto	i2l3119
  3120  002FA2                     i2u212_40:
  3121  002FA2                     
  3122                           ;mcc_generated_files/tmr0.c: 132:     {;mcc_generated_files/tmr0.c: 135:         TEMPORI
      +                          ZATION_1s();
  3123  002FA2  ECB0  F015         	call	_TEMPORIZATION_1s	;wreg free
  3124  002FA6                     
  3125                           ;mcc_generated_files/tmr0.c: 138:         TMR0_CallBack();
  3126  002FA6  ECA5  F019         	call	_TMR0_CallBack	;wreg free
  3127  002FAA                     
  3128                           ;mcc_generated_files/tmr0.c: 141:         CountCallBack = 0;
  3129  002FAA  0E00               	movlw	0
  3130  002FAC  6E3D               	movwf	(TMR0_ISR@CountCallBack+1)^(0+1280),c	;volatile
  3131  002FAE  0E00               	movlw	0
  3132  002FB0  6E3C               	movwf	TMR0_ISR@CountCallBack^(0+1280),c	;volatile
  3133  002FB2                     i2l3119:
  3134                           
  3135                           ;mcc_generated_files/tmr0.c: 147:     if (ucFlagEmergencySpeaker == 1)
  3136  002FB2  044E               	decf	_ucFlagEmergencySpeaker^(0+1280),w,c
  3137  002FB4  A4D8               	btfss	status,2,c
  3138  002FB6  EFDF  F017         	goto	i2u213_41
  3139  002FBA  EFE1  F017         	goto	i2u213_40
  3140  002FBE                     i2u213_41:
  3141  002FBE  EFF1  F017         	goto	i2l583
  3142  002FC2                     i2u213_40:
  3143  002FC2                     
  3144                           ;mcc_generated_files/tmr0.c: 148:     {;mcc_generated_files/tmr0.c: 149:         if ( ++
      +                          ucSpeakerCount >= 36)
  3145  002FC2  2A4D               	incf	_ucSpeakerCount^(0+1280),f,c
  3146  002FC4  0E23               	movlw	35
  3147  002FC6  644D               	cpfsgt	_ucSpeakerCount^(0+1280),c
  3148  002FC8  EFE8  F017         	goto	i2u214_41
  3149  002FCC  EFEA  F017         	goto	i2u214_40
  3150  002FD0                     i2u214_41:
  3151  002FD0  EFEF  F017         	goto	i2l3127
  3152  002FD4                     i2u214_40:
  3153  002FD4                     
  3154                           ;mcc_generated_files/tmr0.c: 150:         {;mcc_generated_files/tmr0.c: 151:            
      +                           ucFlagEmergencySpeaker = 0;
  3155  002FD4  0E00               	movlw	0
  3156  002FD6  6E4E               	movwf	_ucFlagEmergencySpeaker^(0+1280),c
  3157                           
  3158                           ;mcc_generated_files/tmr0.c: 152:             ucSpeakerCount = 0;
  3159  002FD8  0E00               	movlw	0
  3160  002FDA  6E4D               	movwf	_ucSpeakerCount^(0+1280),c
  3161  002FDC  96C0               	bcf	192,3,c	;volatile
  3162  002FDE                     i2l3127:
  3163                           
  3164                           ;mcc_generated_files/tmr0.c: 155:         SPEAKER();
  3165  002FDE  EC29  F019         	call	_SPEAKER	;wreg free
  3166  002FE2                     i2l583:
  3167  002FE2  0012               	return		;funcret
  3168  002FE4                     __end_of_TMR0_ISR:
  3169                           	callstack 0
  3170                           
  3171 ;; *************** function _TMR0_CallBack *****************
  3172 ;; Defined at:
  3173 ;;		line 159 in file "mcc_generated_files/tmr0.c"
  3174 ;; Parameters:    Size  Location     Type
  3175 ;;		None
  3176 ;; Auto vars:     Size  Location     Type
  3177 ;;		None
  3178 ;; Return value:  Size  Location     Type
  3179 ;;                  1    wreg      void 
  3180 ;; Registers used:
  3181 ;;		wreg, status,2, status,0, pclath, tosl, cstack
  3182 ;; Tracked objects:
  3183 ;;		On entry : 0/0
  3184 ;;		On exit  : 0/0
  3185 ;;		Unchanged: 0/0
  3186 ;; Data sizes:     COMRAM   BANK5   BANK6   BANK7   BANK8   BANK9  BANK10  BANK11  BANK12  BANK13  BANK14  BANK15  BANK1
      +6  BANK17  BANK18  BANK19  BANK20  BANK21  BANK22  BANK23  BANK24  BANK25  BANK26  BANK27  BANK28  BANK29  BANK30  BANK3
      +1  BANK32  BANK33  BANK34  BANK35  BANK36  BANK37
  3187 ;;      Params:         0       0       0       0       0       0       0       0       0       0       0       0       
      +0       0       0       0       0       0       0       0       0       0       0       0       0       0       0       
      +0       0       0       0       0       0       0
  3188 ;;      Locals:         0       0       0       0       0       0       0       0       0       0       0       0       
      +0       0       0       0       0       0       0       0       0       0       0       0       0       0       0       
      +0       0       0       0       0       0       0
  3189 ;;      Temps:          0       0       0       0       0       0       0       0       0       0       0       0       
      +0       0       0       0       0       0       0       0       0       0       0       0       0       0       0       
      +0       0       0       0       0       0       0
  3190 ;;      Totals:         0       0       0       0       0       0       0       0       0       0       0       0       
      +0       0       0       0       0       0       0       0       0       0       0       0       0       0       0       
      +0       0       0       0       0       0       0
  3191 ;;Total ram usage:        0 bytes
  3192 ;; Hardware stack levels used:    1
  3193 ;; Hardware stack levels required when called:    1
  3194 ;; This function calls:
  3195 ;;		Absolute function
  3196 ;;		_TMR0_DefaultInterruptHandler
  3197 ;; This function is called by:
  3198 ;;		_TMR0_ISR
  3199 ;; This function uses a non-reentrant model
  3200 ;;
  3201                           
  3202                           	psect	text36
  3203  00334A                     __ptext36:
  3204                           	callstack 0
  3205  00334A                     _TMR0_CallBack:
  3206                           	callstack 120
  3207  00334A                     
  3208                           ;mcc_generated_files/tmr0.c: 163:     if(TMR0_InterruptHandler)
  3209  00334A  0105               	movlb	5	; () banked
  3210  00334C  517E               	movf	_TMR0_InterruptHandler& (0+255),w,b
  3211  00334E  117F               	iorwf	(_TMR0_InterruptHandler+1)& (0+255),w,b
  3212  003350  B4D8               	btfsc	status,2,c
  3213  003352  EFAD  F019         	goto	i2u190_41
  3214  003356  EFAF  F019         	goto	i2u190_40
  3215  00335A                     i2u190_41:
  3216  00335A  EFBB  F019         	goto	i2l587
  3217  00335E                     i2u190_40:
  3218  00335E                     
  3219                           ; BSR set to: 5
  3220                           ;mcc_generated_files/tmr0.c: 164:     {;mcc_generated_files/tmr0.c: 165:         TMR0_In
      +                          terruptHandler();
  3221  00335E  D802               	call	i2u191_48
  3222  003360  EFBB  F019         	goto	i2u191_49
  3223  003364                     i2u191_48:
  3224  003364  0005               	push	
  3225  003366  6EFA               	movwf	pclath,c
  3226  003368  517E               	movf	_TMR0_InterruptHandler& (0+255),w,b
  3227  00336A  6EFD               	movwf	tosl,c
  3228  00336C  517F               	movf	(_TMR0_InterruptHandler+1)& (0+255),w,b
  3229  00336E  6EFE               	movwf	tosh,c
  3230  003370  6AFF               	clrf	tosu,c
  3231  003372  50FA               	movf	pclath,w,c
  3232  003374  0012               	return		;indir
  3233  003376                     i2u191_49:
  3234  003376                     i2l587:
  3235  003376  0012               	return		;funcret
  3236  003378                     __end_of_TMR0_CallBack:
  3237                           	callstack 0
  3238                           
  3239 ;; *************** function _TMR0_DefaultInterruptHandler *****************
  3240 ;; Defined at:
  3241 ;;		line 173 in file "mcc_generated_files/tmr0.c"
  3242 ;; Parameters:    Size  Location     Type
  3243 ;;		None
  3244 ;; Auto vars:     Size  Location     Type
  3245 ;;		None
  3246 ;; Return value:  Size  Location     Type
  3247 ;;                  1    wreg      void 
  3248 ;; Registers used:
  3249 ;;		None
  3250 ;; Tracked objects:
  3251 ;;		On entry : 0/0
  3252 ;;		On exit  : 0/0
  3253 ;;		Unchanged: 0/0
  3254 ;; Data sizes:     COMRAM   BANK5   BANK6   BANK7   BANK8   BANK9  BANK10  BANK11  BANK12  BANK13  BANK14  BANK15  BANK1
      +6  BANK17  BANK18  BANK19  BANK20  BANK21  BANK22  BANK23  BANK24  BANK25  BANK26  BANK27  BANK28  BANK29  BANK30  BANK3
      +1  BANK32  BANK33  BANK34  BANK35  BANK36  BANK37
  3255 ;;      Params:         0       0       0       0       0       0       0       0       0       0       0       0       
      +0       0       0       0       0       0       0       0       0       0       0       0       0       0       0       
      +0       0       0       0       0       0       0
  3256 ;;      Locals:         0       0       0       0       0       0       0       0       0       0       0       0       
      +0       0       0       0       0       0       0       0       0       0       0       0       0       0       0       
      +0       0       0       0       0       0       0
  3257 ;;      Temps:          0       0       0       0       0       0       0       0       0       0       0       0       
      +0       0       0       0       0       0       0       0       0       0       0       0       0       0       0       
      +0       0       0       0       0       0       0
  3258 ;;      Totals:         0       0       0       0       0       0       0       0       0       0       0       0       
      +0       0       0       0       0       0       0       0       0       0       0       0       0       0       0       
      +0       0       0       0       0       0       0
  3259 ;;Total ram usage:        0 bytes
  3260 ;; Hardware stack levels used:    1
  3261 ;; This function calls:
  3262 ;;		Nothing
  3263 ;; This function is called by:
  3264 ;;		_TMR0_Initialize
  3265 ;;		_TMR0_CallBack
  3266 ;; This function uses a non-reentrant model
  3267 ;;
  3268                           
  3269                           	psect	text37
  3270  00356C                     __ptext37:
  3271                           	callstack 0
  3272  00356C                     _TMR0_DefaultInterruptHandler:
  3273                           	callstack 120
  3274  00356C  0012               	return		;funcret
  3275  00356E                     __end_of_TMR0_DefaultInterruptHandler:
  3276                           	callstack 0
  3277                           
  3278 ;; *************** function _TEMPORIZATION_1s *****************
  3279 ;; Defined at:
  3280 ;;		line 20 in file "TEMPORIZATIONS.c"
  3281 ;; Parameters:    Size  Location     Type
  3282 ;;		None
  3283 ;; Auto vars:     Size  Location     Type
  3284 ;;		None
  3285 ;; Return value:  Size  Location     Type
  3286 ;;                  1    wreg      void 
  3287 ;; Registers used:
  3288 ;;		wreg, status,2, status,0, cstack
  3289 ;; Tracked objects:
  3290 ;;		On entry : 0/0
  3291 ;;		On exit  : 0/0
  3292 ;;		Unchanged: 0/0
  3293 ;; Data sizes:     COMRAM   BANK5   BANK6   BANK7   BANK8   BANK9  BANK10  BANK11  BANK12  BANK13  BANK14  BANK15  BANK1
      +6  BANK17  BANK18  BANK19  BANK20  BANK21  BANK22  BANK23  BANK24  BANK25  BANK26  BANK27  BANK28  BANK29  BANK30  BANK3
      +1  BANK32  BANK33  BANK34  BANK35  BANK36  BANK37
  3294 ;;      Params:         0       0       0       0       0       0       0       0       0       0       0       0       
      +0       0       0       0       0       0       0       0       0       0       0       0       0       0       0       
      +0       0       0       0       0       0       0
  3295 ;;      Locals:         0       0       0       0       0       0       0       0       0       0       0       0       
      +0       0       0       0       0       0       0       0       0       0       0       0       0       0       0       
      +0       0       0       0       0       0       0
  3296 ;;      Temps:          2       0       0       0       0       0       0       0       0       0       0       0       
      +0       0       0       0       0       0       0       0       0       0       0       0       0       0       0       
      +0       0       0       0       0       0       0
  3297 ;;      Totals:         2       0       0       0       0       0       0       0       0       0       0       0       
      +0       0       0       0       0       0       0       0       0       0       0       0       0       0       0       
      +0       0       0       0       0       0       0
  3298 ;;Total ram usage:        2 bytes
  3299 ;; Hardware stack levels used:    1
  3300 ;; Hardware stack levels required when called:    1
  3301 ;; This function calls:
  3302 ;;		_TEMPORIZATION_15mins
  3303 ;;		_TEMPORIZATION_1mins
  3304 ;;		_TEMPORIZATION_30mins
  3305 ;;		_TEMPORIZATION_30s
  3306 ;; This function is called by:
  3307 ;;		_TMR0_ISR
  3308 ;; This function uses a non-reentrant model
  3309 ;;
  3310                           
  3311                           	psect	text38
  3312  002B60                     __ptext38:
  3313                           	callstack 0
  3314  002B60                     _TEMPORIZATION_1s:
  3315                           	callstack 120
  3316  002B60                     
  3317                           ;TEMPORIZATIONS.c: 22:     if (uiCount30min++ > 1800)
  3318  002B60  5044               	movf	_uiCount30min^(0+1280),w,c
  3319  002B62  6E01               	movwf	??_TEMPORIZATION_1s^(0+1280),c
  3320  002B64  5045               	movf	(_uiCount30min+1)^(0+1280),w,c
  3321  002B66  6E02               	movwf	(??_TEMPORIZATION_1s+1)^(0+1280),c
  3322  002B68  4A44               	infsnz	_uiCount30min^(0+1280),f,c
  3323  002B6A  2A45               	incf	(_uiCount30min+1)^(0+1280),f,c
  3324  002B6C  0E09               	movlw	9
  3325  002B6E  5C01               	subwf	??_TEMPORIZATION_1s^(0+1280),w,c
  3326  002B70  0E07               	movlw	7
  3327  002B72  5802               	subwfb	(??_TEMPORIZATION_1s+1)^(0+1280),w,c
  3328  002B74  A0D8               	btfss	status,0,c
  3329  002B76  EFBF  F015         	goto	i2u186_41
  3330  002B7A  EFC1  F015         	goto	i2u186_40
  3331  002B7E                     i2u186_41:
  3332  002B7E  EFC9  F015         	goto	i2l3005
  3333  002B82                     i2u186_40:
  3334  002B82                     
  3335                           ;TEMPORIZATIONS.c: 23:     {;TEMPORIZATIONS.c: 24:         TEMPORIZATION_30mins();
  3336  002B82  ECB8  F01A         	call	_TEMPORIZATION_30mins	;wreg free
  3337  002B86                     
  3338                           ;TEMPORIZATIONS.c: 25:         uiCount30min = 0;
  3339  002B86  0E00               	movlw	0
  3340  002B88  6E45               	movwf	(_uiCount30min+1)^(0+1280),c
  3341  002B8A  0E00               	movlw	0
  3342  002B8C  6E44               	movwf	_uiCount30min^(0+1280),c
  3343                           
  3344                           ;TEMPORIZATIONS.c: 26:     }
  3345  002B8E  EF14  F016         	goto	i2l887
  3346  002B92                     i2l3005:
  3347  002B92  5042               	movf	_uiCount15min^(0+1280),w,c
  3348  002B94  6E01               	movwf	??_TEMPORIZATION_1s^(0+1280),c
  3349  002B96  5043               	movf	(_uiCount15min+1)^(0+1280),w,c
  3350  002B98  6E02               	movwf	(??_TEMPORIZATION_1s+1)^(0+1280),c
  3351  002B9A  4A42               	infsnz	_uiCount15min^(0+1280),f,c
  3352  002B9C  2A43               	incf	(_uiCount15min+1)^(0+1280),f,c
  3353  002B9E  0E85               	movlw	133
  3354  002BA0  5C01               	subwf	??_TEMPORIZATION_1s^(0+1280),w,c
  3355  002BA2  0E03               	movlw	3
  3356  002BA4  5802               	subwfb	(??_TEMPORIZATION_1s+1)^(0+1280),w,c
  3357  002BA6  A0D8               	btfss	status,0,c
  3358  002BA8  EFD8  F015         	goto	i2u187_41
  3359  002BAC  EFDA  F015         	goto	i2u187_40
  3360  002BB0                     i2u187_41:
  3361  002BB0  EFE2  F015         	goto	i2l3011
  3362  002BB4                     i2u187_40:
  3363  002BB4                     
  3364                           ;TEMPORIZATIONS.c: 28:     {;TEMPORIZATIONS.c: 29:         TEMPORIZATION_15mins();
  3365  002BB4  ECBA  F01A         	call	_TEMPORIZATION_15mins	;wreg free
  3366  002BB8                     
  3367                           ;TEMPORIZATIONS.c: 30:         uiCount15min = 0;
  3368  002BB8  0E00               	movlw	0
  3369  002BBA  6E43               	movwf	(_uiCount15min+1)^(0+1280),c
  3370  002BBC  0E00               	movlw	0
  3371  002BBE  6E42               	movwf	_uiCount15min^(0+1280),c
  3372                           
  3373                           ;TEMPORIZATIONS.c: 31:     }
  3374  002BC0  EF14  F016         	goto	i2l887
  3375  002BC4                     i2l3011:
  3376  002BC4  5040               	movf	_uiCount1min^(0+1280),w,c
  3377  002BC6  6E01               	movwf	??_TEMPORIZATION_1s^(0+1280),c
  3378  002BC8  5041               	movf	(_uiCount1min+1)^(0+1280),w,c
  3379  002BCA  6E02               	movwf	(??_TEMPORIZATION_1s+1)^(0+1280),c
  3380  002BCC  4A40               	infsnz	_uiCount1min^(0+1280),f,c
  3381  002BCE  2A41               	incf	(_uiCount1min+1)^(0+1280),f,c
  3382  002BD0  5002               	movf	(??_TEMPORIZATION_1s+1)^(0+1280),w,c
  3383  002BD2  E109               	bnz	i2u188_40
  3384  002BD4  0E3D               	movlw	61
  3385  002BD6  5C01               	subwf	??_TEMPORIZATION_1s^(0+1280),w,c
  3386  002BD8  A0D8               	btfss	status,0,c
  3387  002BDA  EFF1  F015         	goto	i2u188_41
  3388  002BDE  EFF3  F015         	goto	i2u188_40
  3389  002BE2                     i2u188_41:
  3390  002BE2  EFFB  F015         	goto	i2l3017
  3391  002BE6                     i2u188_40:
  3392  002BE6                     
  3393                           ;TEMPORIZATIONS.c: 33:     {;TEMPORIZATIONS.c: 34:         TEMPORIZATION_1mins();
  3394  002BE6  ECB9  F01A         	call	_TEMPORIZATION_1mins	;wreg free
  3395  002BEA                     
  3396                           ;TEMPORIZATIONS.c: 35:         uiCount1min = 0;
  3397  002BEA  0E00               	movlw	0
  3398  002BEC  6E41               	movwf	(_uiCount1min+1)^(0+1280),c
  3399  002BEE  0E00               	movlw	0
  3400  002BF0  6E40               	movwf	_uiCount1min^(0+1280),c
  3401                           
  3402                           ;TEMPORIZATIONS.c: 36:     }
  3403  002BF2  EF14  F016         	goto	i2l887
  3404  002BF6                     i2l3017:
  3405  002BF6  503E               	movf	_uiCount30s^(0+1280),w,c
  3406  002BF8  6E01               	movwf	??_TEMPORIZATION_1s^(0+1280),c
  3407  002BFA  503F               	movf	(_uiCount30s+1)^(0+1280),w,c
  3408  002BFC  6E02               	movwf	(??_TEMPORIZATION_1s+1)^(0+1280),c
  3409  002BFE  4A3E               	infsnz	_uiCount30s^(0+1280),f,c
  3410  002C00  2A3F               	incf	(_uiCount30s+1)^(0+1280),f,c
  3411  002C02  5002               	movf	(??_TEMPORIZATION_1s+1)^(0+1280),w,c
  3412  002C04  E109               	bnz	i2u189_40
  3413  002C06  0E02               	movlw	2
  3414  002C08  5C01               	subwf	??_TEMPORIZATION_1s^(0+1280),w,c
  3415  002C0A  A0D8               	btfss	status,0,c
  3416  002C0C  EF0A  F016         	goto	i2u189_41
  3417  002C10  EF0C  F016         	goto	i2u189_40
  3418  002C14                     i2u189_41:
  3419  002C14  EF14  F016         	goto	i2l883
  3420  002C18                     i2u189_40:
  3421  002C18                     
  3422                           ;TEMPORIZATIONS.c: 38:     {;TEMPORIZATIONS.c: 39:         TEMPORIZATION_30s();
  3423  002C18  ECB7  F01A         	call	_TEMPORIZATION_30s	;wreg free
  3424  002C1C                     
  3425                           ;TEMPORIZATIONS.c: 40:         uiCount30s = 0;
  3426  002C1C  0E00               	movlw	0
  3427  002C1E  6E3F               	movwf	(_uiCount30s+1)^(0+1280),c
  3428  002C20  0E00               	movlw	0
  3429  002C22  6E3E               	movwf	_uiCount30s^(0+1280),c
  3430  002C24  EF14  F016         	goto	i2l887
  3431  002C28                     i2l883:
  3432  002C28                     i2l887:
  3433  002C28  0012               	return		;funcret
  3434  002C2A                     __end_of_TEMPORIZATION_1s:
  3435                           	callstack 0
  3436                           
  3437 ;; *************** function _TEMPORIZATION_30s *****************
  3438 ;; Defined at:
  3439 ;;		line 71 in file "TEMPORIZATIONS.c"
  3440 ;; Parameters:    Size  Location     Type
  3441 ;;		None
  3442 ;; Auto vars:     Size  Location     Type
  3443 ;;		None
  3444 ;; Return value:  Size  Location     Type
  3445 ;;                  1    wreg      void 
  3446 ;; Registers used:
  3447 ;;		None
  3448 ;; Tracked objects:
  3449 ;;		On entry : 0/0
  3450 ;;		On exit  : 0/0
  3451 ;;		Unchanged: 0/0
  3452 ;; Data sizes:     COMRAM   BANK5   BANK6   BANK7   BANK8   BANK9  BANK10  BANK11  BANK12  BANK13  BANK14  BANK15  BANK1
      +6  BANK17  BANK18  BANK19  BANK20  BANK21  BANK22  BANK23  BANK24  BANK25  BANK26  BANK27  BANK28  BANK29  BANK30  BANK3
      +1  BANK32  BANK33  BANK34  BANK35  BANK36  BANK37
  3453 ;;      Params:         0       0       0       0       0       0       0       0       0       0       0       0       
      +0       0       0       0       0       0       0       0       0       0       0       0       0       0       0       
      +0       0       0       0       0       0       0
  3454 ;;      Locals:         0       0       0       0       0       0       0       0       0       0       0       0       
      +0       0       0       0       0       0       0       0       0       0       0       0       0       0       0       
      +0       0       0       0       0       0       0
  3455 ;;      Temps:          0       0       0       0       0       0       0       0       0       0       0       0       
      +0       0       0       0       0       0       0       0       0       0       0       0       0       0       0       
      +0       0       0       0       0       0       0
  3456 ;;      Totals:         0       0       0       0       0       0       0       0       0       0       0       0       
      +0       0       0       0       0       0       0       0       0       0       0       0       0       0       0       
      +0       0       0       0       0       0       0
  3457 ;;Total ram usage:        0 bytes
  3458 ;; Hardware stack levels used:    1
  3459 ;; This function calls:
  3460 ;;		Nothing
  3461 ;; This function is called by:
  3462 ;;		_TEMPORIZATION_1s
  3463 ;; This function uses a non-reentrant model
  3464 ;;
  3465                           
  3466                           	psect	text39
  3467  00356E                     __ptext39:
  3468                           	callstack 0
  3469  00356E                     _TEMPORIZATION_30s:
  3470                           	callstack 120
  3471  00356E  0012               	return		;funcret
  3472  003570                     __end_of_TEMPORIZATION_30s:
  3473                           	callstack 0
  3474                           
  3475 ;; *************** function _TEMPORIZATION_30mins *****************
  3476 ;; Defined at:
  3477 ;;		line 55 in file "TEMPORIZATIONS.c"
  3478 ;; Parameters:    Size  Location     Type
  3479 ;;		None
  3480 ;; Auto vars:     Size  Location     Type
  3481 ;;		None
  3482 ;; Return value:  Size  Location     Type
  3483 ;;                  1    wreg      void 
  3484 ;; Registers used:
  3485 ;;		None
  3486 ;; Tracked objects:
  3487 ;;		On entry : 0/0
  3488 ;;		On exit  : 0/0
  3489 ;;		Unchanged: 0/0
  3490 ;; Data sizes:     COMRAM   BANK5   BANK6   BANK7   BANK8   BANK9  BANK10  BANK11  BANK12  BANK13  BANK14  BANK15  BANK1
      +6  BANK17  BANK18  BANK19  BANK20  BANK21  BANK22  BANK23  BANK24  BANK25  BANK26  BANK27  BANK28  BANK29  BANK30  BANK3
      +1  BANK32  BANK33  BANK34  BANK35  BANK36  BANK37
  3491 ;;      Params:         0       0       0       0       0       0       0       0       0       0       0       0       
      +0       0       0       0       0       0       0       0       0       0       0       0       0       0       0       
      +0       0       0       0       0       0       0
  3492 ;;      Locals:         0       0       0       0       0       0       0       0       0       0       0       0       
      +0       0       0       0       0       0       0       0       0       0       0       0       0       0       0       
      +0       0       0       0       0       0       0
  3493 ;;      Temps:          0       0       0       0       0       0       0       0       0       0       0       0       
      +0       0       0       0       0       0       0       0       0       0       0       0       0       0       0       
      +0       0       0       0       0       0       0
  3494 ;;      Totals:         0       0       0       0       0       0       0       0       0       0       0       0       
      +0       0       0       0       0       0       0       0       0       0       0       0       0       0       0       
      +0       0       0       0       0       0       0
  3495 ;;Total ram usage:        0 bytes
  3496 ;; Hardware stack levels used:    1
  3497 ;; This function calls:
  3498 ;;		Nothing
  3499 ;; This function is called by:
  3500 ;;		_TEMPORIZATION_1s
  3501 ;; This function uses a non-reentrant model
  3502 ;;
  3503                           
  3504                           	psect	text40
  3505  003570                     __ptext40:
  3506                           	callstack 0
  3507  003570                     _TEMPORIZATION_30mins:
  3508                           	callstack 120
  3509  003570  0012               	return		;funcret
  3510  003572                     __end_of_TEMPORIZATION_30mins:
  3511                           	callstack 0
  3512                           
  3513 ;; *************** function _TEMPORIZATION_1mins *****************
  3514 ;; Defined at:
  3515 ;;		line 66 in file "TEMPORIZATIONS.c"
  3516 ;; Parameters:    Size  Location     Type
  3517 ;;		None
  3518 ;; Auto vars:     Size  Location     Type
  3519 ;;		None
  3520 ;; Return value:  Size  Location     Type
  3521 ;;                  1    wreg      void 
  3522 ;; Registers used:
  3523 ;;		None
  3524 ;; Tracked objects:
  3525 ;;		On entry : 0/0
  3526 ;;		On exit  : 0/0
  3527 ;;		Unchanged: 0/0
  3528 ;; Data sizes:     COMRAM   BANK5   BANK6   BANK7   BANK8   BANK9  BANK10  BANK11  BANK12  BANK13  BANK14  BANK15  BANK1
      +6  BANK17  BANK18  BANK19  BANK20  BANK21  BANK22  BANK23  BANK24  BANK25  BANK26  BANK27  BANK28  BANK29  BANK30  BANK3
      +1  BANK32  BANK33  BANK34  BANK35  BANK36  BANK37
  3529 ;;      Params:         0       0       0       0       0       0       0       0       0       0       0       0       
      +0       0       0       0       0       0       0       0       0       0       0       0       0       0       0       
      +0       0       0       0       0       0       0
  3530 ;;      Locals:         0       0       0       0       0       0       0       0       0       0       0       0       
      +0       0       0       0       0       0       0       0       0       0       0       0       0       0       0       
      +0       0       0       0       0       0       0
  3531 ;;      Temps:          0       0       0       0       0       0       0       0       0       0       0       0       
      +0       0       0       0       0       0       0       0       0       0       0       0       0       0       0       
      +0       0       0       0       0       0       0
  3532 ;;      Totals:         0       0       0       0       0       0       0       0       0       0       0       0       
      +0       0       0       0       0       0       0       0       0       0       0       0       0       0       0       
      +0       0       0       0       0       0       0
  3533 ;;Total ram usage:        0 bytes
  3534 ;; Hardware stack levels used:    1
  3535 ;; This function calls:
  3536 ;;		Nothing
  3537 ;; This function is called by:
  3538 ;;		_TEMPORIZATION_1s
  3539 ;; This function uses a non-reentrant model
  3540 ;;
  3541                           
  3542                           	psect	text41
  3543  003572                     __ptext41:
  3544                           	callstack 0
  3545  003572                     _TEMPORIZATION_1mins:
  3546                           	callstack 120
  3547  003572  0012               	return		;funcret
  3548  003574                     __end_of_TEMPORIZATION_1mins:
  3549                           	callstack 0
  3550                           
  3551 ;; *************** function _TEMPORIZATION_15mins *****************
  3552 ;; Defined at:
  3553 ;;		line 60 in file "TEMPORIZATIONS.c"
  3554 ;; Parameters:    Size  Location     Type
  3555 ;;		None
  3556 ;; Auto vars:     Size  Location     Type
  3557 ;;		None
  3558 ;; Return value:  Size  Location     Type
  3559 ;;                  1    wreg      void 
  3560 ;; Registers used:
  3561 ;;		None
  3562 ;; Tracked objects:
  3563 ;;		On entry : 0/0
  3564 ;;		On exit  : 0/0
  3565 ;;		Unchanged: 0/0
  3566 ;; Data sizes:     COMRAM   BANK5   BANK6   BANK7   BANK8   BANK9  BANK10  BANK11  BANK12  BANK13  BANK14  BANK15  BANK1
      +6  BANK17  BANK18  BANK19  BANK20  BANK21  BANK22  BANK23  BANK24  BANK25  BANK26  BANK27  BANK28  BANK29  BANK30  BANK3
      +1  BANK32  BANK33  BANK34  BANK35  BANK36  BANK37
  3567 ;;      Params:         0       0       0       0       0       0       0       0       0       0       0       0       
      +0       0       0       0       0       0       0       0       0       0       0       0       0       0       0       
      +0       0       0       0       0       0       0
  3568 ;;      Locals:         0       0       0       0       0       0       0       0       0       0       0       0       
      +0       0       0       0       0       0       0       0       0       0       0       0       0       0       0       
      +0       0       0       0       0       0       0
  3569 ;;      Temps:          0       0       0       0       0       0       0       0       0       0       0       0       
      +0       0       0       0       0       0       0       0       0       0       0       0       0       0       0       
      +0       0       0       0       0       0       0
  3570 ;;      Totals:         0       0       0       0       0       0       0       0       0       0       0       0       
      +0       0       0       0       0       0       0       0       0       0       0       0       0       0       0       
      +0       0       0       0       0       0       0
  3571 ;;Total ram usage:        0 bytes
  3572 ;; Hardware stack levels used:    1
  3573 ;; This function calls:
  3574 ;;		Nothing
  3575 ;; This function is called by:
  3576 ;;		_TEMPORIZATION_1s
  3577 ;; This function uses a non-reentrant model
  3578 ;;
  3579                           
  3580                           	psect	text42
  3581  003574                     __ptext42:
  3582                           	callstack 0
  3583  003574                     _TEMPORIZATION_15mins:
  3584                           	callstack 120
  3585  003574  0012               	return		;funcret
  3586  003576                     __end_of_TEMPORIZATION_15mins:
  3587                           	callstack 0
  3588                           
  3589 ;; *************** function _CAN1_RXI_ISR *****************
  3590 ;; Defined at:
  3591 ;;		line 738 in file "mcc_generated_files/can1.c"
  3592 ;; Parameters:    Size  Location     Type
  3593 ;;		None
  3594 ;; Auto vars:     Size  Location     Type
  3595 ;;		None
  3596 ;; Return value:  Size  Location     Type
  3597 ;;                  1    wreg      void 
  3598 ;; Registers used:
  3599 ;;		wreg, fsr2l, fsr2h, status,2, status,0, pclath, tosl, tblptrl, tblptrh, tblptru, prodl, prodh, cstack
  3600 ;; Tracked objects:
  3601 ;;		On entry : 0/0
  3602 ;;		On exit  : 0/0
  3603 ;;		Unchanged: 0/0
  3604 ;; Data sizes:     COMRAM   BANK5   BANK6   BANK7   BANK8   BANK9  BANK10  BANK11  BANK12  BANK13  BANK14  BANK15  BANK1
      +6  BANK17  BANK18  BANK19  BANK20  BANK21  BANK22  BANK23  BANK24  BANK25  BANK26  BANK27  BANK28  BANK29  BANK30  BANK3
      +1  BANK32  BANK33  BANK34  BANK35  BANK36  BANK37
  3605 ;;      Params:         0       0       0       0       0       0       0       0       0       0       0       0       
      +0       0       0       0       0       0       0       0       0       0       0       0       0       0       0       
      +0       0       0       0       0       0       0
  3606 ;;      Locals:         0       0       0       0       0       0       0       0       0       0       0       0       
      +0       0       0       0       0       0       0       0       0       0       0       0       0       0       0       
      +0       0       0       0       0       0       0
  3607 ;;      Temps:          0       0       0       0       0       0       0       0       0       0       0       0       
      +0       0       0       0       0       0       0       0       0       0       0       0       0       0       0       
      +0       0       0       0       0       0       0
  3608 ;;      Totals:         0       0       0       0       0       0       0       0       0       0       0       0       
      +0       0       0       0       0       0       0       0       0       0       0       0       0       0       0       
      +0       0       0       0       0       0       0
  3609 ;;Total ram usage:        0 bytes
  3610 ;; Hardware stack levels used:    1
  3611 ;; Hardware stack levels required when called:    6
  3612 ;; This function calls:
  3613 ;;		Absolute function
  3614 ;;		_DefaultFIFO1NotEmptyHandler
  3615 ;; This function is called by:
  3616 ;;		_INTERRUPT_InterruptManager
  3617 ;; This function uses a non-reentrant model
  3618 ;;
  3619                           
  3620                           	psect	text43
  3621  0033A2                     __ptext43:
  3622                           	callstack 0
  3623  0033A2                     _CAN1_RXI_ISR:
  3624                           	callstack 116
  3625  0033A2                     
  3626                           ;mcc_generated_files/can1.c: 740:     if (1 == C1FIFOSTA1Lbits.TFNRFNIF)
  3627  0033A2  0101               	movlb	1	; () banked
  3628  0033A4  A160               	btfss	96,0,b	;volatile
  3629  0033A6  EFD7  F019         	goto	i2u209_41
  3630  0033AA  EFD9  F019         	goto	i2u209_40
  3631  0033AE                     i2u209_41:
  3632  0033AE  EFE5  F019         	goto	i2l340
  3633  0033B2                     i2u209_40:
  3634  0033B2                     
  3635                           ; BSR set to: 1
  3636                           ;mcc_generated_files/can1.c: 741:     {;mcc_generated_files/can1.c: 742:         CAN1_FI
      +                          FO1NotEmptyHandler();
  3637  0033B2  D802               	call	i2u210_48
  3638  0033B4  EFE5  F019         	goto	i2u210_49
  3639  0033B8                     i2u210_48:
  3640  0033B8  0005               	push	
  3641  0033BA  6EFA               	movwf	pclath,c
  3642  0033BC  5048               	movf	_CAN1_FIFO1NotEmptyHandler^(0+1280),w,c
  3643  0033BE  6EFD               	movwf	tosl,c
  3644  0033C0  5049               	movf	(_CAN1_FIFO1NotEmptyHandler+1)^(0+1280),w,c
  3645  0033C2  6EFE               	movwf	tosh,c
  3646  0033C4  6AFF               	clrf	tosu,c
  3647  0033C6  50FA               	movf	pclath,w,c
  3648  0033C8  0012               	return		;indir
  3649  0033CA                     i2u210_49:
  3650  0033CA                     i2l340:
  3651  0033CA  0012               	return		;funcret
  3652  0033CC                     __end_of_CAN1_RXI_ISR:
  3653                           	callstack 0
  3654                           
  3655 ;; *************** function _DefaultFIFO1NotEmptyHandler *****************
  3656 ;; Defined at:
  3657 ;;		line 119 in file "mcc_generated_files/can1.c"
  3658 ;; Parameters:    Size  Location     Type
  3659 ;;		None
  3660 ;; Auto vars:     Size  Location     Type
  3661 ;;		None
  3662 ;; Return value:  Size  Location     Type
  3663 ;;                  1    wreg      void 
  3664 ;; Registers used:
  3665 ;;		wreg, fsr2l, fsr2h, status,2, status,0, tblptrl, tblptrh, tblptru, prodl, prodh, cstack
  3666 ;; Tracked objects:
  3667 ;;		On entry : 0/0
  3668 ;;		On exit  : 0/0
  3669 ;;		Unchanged: 0/0
  3670 ;; Data sizes:     COMRAM   BANK5   BANK6   BANK7   BANK8   BANK9  BANK10  BANK11  BANK12  BANK13  BANK14  BANK15  BANK1
      +6  BANK17  BANK18  BANK19  BANK20  BANK21  BANK22  BANK23  BANK24  BANK25  BANK26  BANK27  BANK28  BANK29  BANK30  BANK3
      +1  BANK32  BANK33  BANK34  BANK35  BANK36  BANK37
  3671 ;;      Params:         0       0       0       0       0       0       0       0       0       0       0       0       
      +0       0       0       0       0       0       0       0       0       0       0       0       0       0       0       
      +0       0       0       0       0       0       0
  3672 ;;      Locals:         0       0       0       0       0       0       0       0       0       0       0       0       
      +0       0       0       0       0       0       0       0       0       0       0       0       0       0       0       
      +0       0       0       0       0       0       0
  3673 ;;      Temps:          0       0       0       0       0       0       0       0       0       0       0       0       
      +0       0       0       0       0       0       0       0       0       0       0       0       0       0       0       
      +0       0       0       0       0       0       0
  3674 ;;      Totals:         0       0       0       0       0       0       0       0       0       0       0       0       
      +0       0       0       0       0       0       0       0       0       0       0       0       0       0       0       
      +0       0       0       0       0       0       0
  3675 ;;Total ram usage:        0 bytes
  3676 ;; Hardware stack levels used:    1
  3677 ;; Hardware stack levels required when called:    5
  3678 ;; This function calls:
  3679 ;;		_CANReadMessage
  3680 ;; This function is called by:
  3681 ;;		_CAN1_RX_FIFO_Configuration
  3682 ;;		_CAN1_RXI_ISR
  3683 ;; This function uses a non-reentrant model
  3684 ;;
  3685                           
  3686                           	psect	text44
  3687  00355E                     __ptext44:
  3688                           	callstack 0
  3689  00355E                     _DefaultFIFO1NotEmptyHandler:
  3690                           	callstack 116
  3691  00355E                     
  3692                           ;mcc_generated_files/can1.c: 121:     CANReadMessage();
  3693  00355E  EC48  F015         	call	_CANReadMessage	;wreg free
  3694  003562  0012               	return		;funcret
  3695  003564                     __end_of_DefaultFIFO1NotEmptyHandler:
  3696                           	callstack 0
  3697                           
  3698 ;; *************** function _CANReadMessage *****************
  3699 ;; Defined at:
  3700 ;;		line 68 in file "MESSAGES.c"
  3701 ;; Parameters:    Size  Location     Type
  3702 ;;		None
  3703 ;; Auto vars:     Size  Location     Type
  3704 ;;  id              4   50[COMRAM] unsigned long 
  3705 ;;  data1           1   54[COMRAM] unsigned char 
  3706 ;;  data8           1    0        unsigned char 
  3707 ;;  data7           1    0        unsigned char 
  3708 ;;  data6           1    0        unsigned char 
  3709 ;;  data5           1    0        unsigned char 
  3710 ;;  data4           1    0        unsigned char 
  3711 ;;  data3           1    0        unsigned char 
  3712 ;;  data2           1    0        unsigned char 
  3713 ;;  dlc             1    0        unsigned char 
  3714 ;;  idType          1    0        unsigned char 
  3715 ;; Return value:  Size  Location     Type
  3716 ;;                  1    wreg      void 
  3717 ;; Registers used:
  3718 ;;		wreg, fsr2l, fsr2h, status,2, status,0, tblptrl, tblptrh, tblptru, prodl, prodh, cstack
  3719 ;; Tracked objects:
  3720 ;;		On entry : 0/0
  3721 ;;		On exit  : 0/0
  3722 ;;		Unchanged: 0/0
  3723 ;; Data sizes:     COMRAM   BANK5   BANK6   BANK7   BANK8   BANK9  BANK10  BANK11  BANK12  BANK13  BANK14  BANK15  BANK1
      +6  BANK17  BANK18  BANK19  BANK20  BANK21  BANK22  BANK23  BANK24  BANK25  BANK26  BANK27  BANK28  BANK29  BANK30  BANK3
      +1  BANK32  BANK33  BANK34  BANK35  BANK36  BANK37
  3724 ;;      Params:         0       0       0       0       0       0       0       0       0       0       0       0       
      +0       0       0       0       0       0       0       0       0       0       0       0       0       0       0       
      +0       0       0       0       0       0       0
  3725 ;;      Locals:        14       0       0       0       0       0       0       0       0       0       0       0       
      +0       0       0       0       0       0       0       0       0       0       0       0       0       0       0       
      +0       0       0       0       0       0       0
  3726 ;;      Temps:          4       0       0       0       0       0       0       0       0       0       0       0       
      +0       0       0       0       0       0       0       0       0       0       0       0       0       0       0       
      +0       0       0       0       0       0       0
  3727 ;;      Totals:        18       0       0       0       0       0       0       0       0       0       0       0       
      +0       0       0       0       0       0       0       0       0       0       0       0       0       0       0       
      +0       0       0       0       0       0       0
  3728 ;;Total ram usage:       18 bytes
  3729 ;; Hardware stack levels used:    1
  3730 ;; Hardware stack levels required when called:    4
  3731 ;; This function calls:
  3732 ;;		_CAN1_Receive
  3733 ;;		_CAN1_ReceivedMessageCountGet
  3734 ;;		_LEDS
  3735 ;;		_SPEAKER
  3736 ;; This function is called by:
  3737 ;;		_DefaultFIFO1NotEmptyHandler
  3738 ;; This function uses a non-reentrant model
  3739 ;;
  3740                           
  3741                           	psect	text45
  3742  002A90                     __ptext45:
  3743                           	callstack 0
  3744  002A90                     _CANReadMessage:
  3745                           	callstack 116
  3746  002A90                     
  3747                           ;MESSAGES.c: 70:     uint32_t id;;MESSAGES.c: 71:     unsigned char idType;;MESSAGES.c: 
      +                          72:     unsigned char dlc;;MESSAGES.c: 73:     unsigned char data1;;MESSAGES.c: 74:     
      +                          unsigned char data2;;MESSAGES.c: 75:     unsigned char data3;;MESSAGES.c: 76:     unsign
      +                          ed char data4;;MESSAGES.c: 77:     unsigned char data5;;MESSAGES.c: 78:     unsigned cha
      +                          r data6;;MESSAGES.c: 79:     unsigned char data7;;MESSAGES.c: 80:     unsigned char data
      +                          8;;MESSAGES.c: 82:     __nop();
  3748  002A90  F000               	nop	
  3749  002A92                     
  3750                           ;MESSAGES.c: 84:     if(CAN1_ReceivedMessageCountGet() > 0)
  3751  002A92  EC15  F016         	call	_CAN1_ReceivedMessageCountGet	;wreg free
  3752  002A96  0900               	iorlw	0
  3753  002A98  B4D8               	btfsc	status,2,c
  3754  002A9A  EF51  F015         	goto	i2u144_41
  3755  002A9E  EF53  F015         	goto	i2u144_40
  3756  002AA2                     i2u144_41:
  3757  002AA2  EFAF  F015         	goto	i2l830
  3758  002AA6                     i2u144_40:
  3759  002AA6                     
  3760                           ;MESSAGES.c: 85:     {;MESSAGES.c: 86:         if(1 == CAN1_Receive(&msgReceipt))
  3761  002AA6  0E4F               	movlw	low _msgReceipt
  3762  002AA8  6E22               	movwf	CAN1_Receive@rxCanMsg^(0+1280),c
  3763  002AAA  0E05               	movlw	high _msgReceipt
  3764  002AAC  6E23               	movwf	(CAN1_Receive@rxCanMsg+1)^(0+1280),c
  3765  002AAE  EC79  F018         	call	_CAN1_Receive	;wreg free
  3766  002AB2  06E8               	decf	wreg,f,c
  3767  002AB4  A4D8               	btfss	status,2,c
  3768  002AB6  EF5F  F015         	goto	i2u145_41
  3769  002ABA  EF61  F015         	goto	i2u145_40
  3770  002ABE                     i2u145_41:
  3771  002ABE  EFAF  F015         	goto	i2l830
  3772  002AC2                     i2u145_40:
  3773  002AC2                     
  3774                           ;MESSAGES.c: 87:         {;MESSAGES.c: 88:             __nop();
  3775  002AC2  F000               	nop	
  3776                           
  3777                           ;MESSAGES.c: 89:             id = msgReceipt.msgId;
  3778  002AC4  C54F  F533         	movff	_msgReceipt,CANReadMessage@id
  3779  002AC8  C550  F534         	movff	_msgReceipt+1,CANReadMessage@id+1
  3780  002ACC  C551  F535         	movff	_msgReceipt+2,CANReadMessage@id+2
  3781  002AD0  C552  F536         	movff	_msgReceipt+3,CANReadMessage@id+3
  3782  002AD4                     
  3783                           ;MESSAGES.c: 92:             data1 = msgReceipt.data[0];
  3784  002AD4  0061  F550  F4D9   	movff	_msgReceipt+5,fsr2l
  3785  002ADA  0061  F554  F4DA   	movff	_msgReceipt+6,fsr2h
  3786  002AE0  50DF               	movf	indf2,w,c
  3787  002AE2  6E37               	movwf	CANReadMessage@data1^(0+1280),c
  3788  002AE4                     
  3789                           ;MESSAGES.c: 101:             switch (id)
  3790  002AE4  EF8B  F015         	goto	i2l2697
  3791  002AE8                     i2l826:
  3792                           
  3793                           ;MESSAGES.c: 104:                     ucASState_prev = ucASState;
  3794  002AE8  C54C  F54B         	movff	_ucASState,_ucASState_prev
  3795  002AEC                     
  3796                           ;MESSAGES.c: 105:                     ucASState = ( data1 & 0x07 );
  3797  002AEC  5037               	movf	CANReadMessage@data1^(0+1280),w,c
  3798  002AEE  0B07               	andlw	7
  3799  002AF0  6E4C               	movwf	_ucASState^(0+1280),c
  3800                           
  3801                           ;MESSAGES.c: 106:                     if (ucASState_prev != ucASState)
  3802  002AF2  504C               	movf	_ucASState^(0+1280),w,c
  3803  002AF4  184B               	xorwf	_ucASState_prev^(0+1280),w,c
  3804  002AF6  B4D8               	btfsc	status,2,c
  3805  002AF8  EF80  F015         	goto	i2u146_41
  3806  002AFC  EF82  F015         	goto	i2u146_40
  3807  002B00                     i2u146_41:
  3808  002B00  EFAF  F015         	goto	i2l824
  3809  002B04                     i2u146_40:
  3810  002B04                     
  3811                           ;MESSAGES.c: 107:                     {;MESSAGES.c: 108:                         LEDS();
  3812  002B04  ECDD  F016         	call	_LEDS	;wreg free
  3813                           
  3814                           ;MESSAGES.c: 109:                         SPEAKER();
  3815  002B08  EC29  F019         	call	_SPEAKER	;wreg free
  3816  002B0C  EFAF  F015         	goto	i2l830
  3817  002B10                     i2l829:
  3818                           
  3819                           ;MESSAGES.c: 113:                     __nop();
  3820  002B10  F000               	nop	
  3821                           
  3822                           ;MESSAGES.c: 114:                     break;
  3823  002B12  EFAF  F015         	goto	i2l830
  3824  002B16                     i2l2697:
  3825  002B16  C533  F526         	movff	CANReadMessage@id,??_CANReadMessage
  3826  002B1A  C534  F527         	movff	CANReadMessage@id+1,??_CANReadMessage+1
  3827  002B1E  C535  F528         	movff	CANReadMessage@id+2,??_CANReadMessage+2
  3828  002B22  C536  F529         	movff	CANReadMessage@id+3,??_CANReadMessage+3
  3829                           
  3830                           ; Switch on 2 bytes has been partitioned into a top level switch of size 1, and 2 sub-sw
      +                          itches
  3831                           ; Switch size 1, requested type "simple"
  3832                           ; Number of cases is 1, Range of values is 0 to 0
  3833                           ; switch strategies available:
  3834                           ; Name         Instructions Cycles
  3835                           ; simple_byte            4     3 (average)
  3836                           ;	Chosen strategy is simple_byte
  3837  002B26  5029               	movf	(??_CANReadMessage+3)^(0+1280),w,c
  3838  002B28  0A00               	xorlw	0	; case 0
  3839  002B2A  B4D8               	btfsc	status,2,c
  3840  002B2C  EFA8  F015         	goto	i2l3321
  3841  002B30  EF88  F015         	goto	i2l829
  3842  002B34                     i2l3319:
  3843                           
  3844                           ; Switch on 2 bytes has been partitioned into a top level switch of size 1, and 1 sub-sw
      +                          itches
  3845                           ; Switch size 1, requested type "simple"
  3846                           ; Number of cases is 1, Range of values is 5 to 5
  3847                           ; switch strategies available:
  3848                           ; Name         Instructions Cycles
  3849                           ; simple_byte            4     3 (average)
  3850                           ;	Chosen strategy is simple_byte
  3851  002B34  5027               	movf	(??_CANReadMessage+1)^(0+1280),w,c
  3852  002B36  0A05               	xorlw	5	; case 5
  3853  002B38  B4D8               	btfsc	status,2,c
  3854  002B3A  EFA1  F015         	goto	i2l3323
  3855  002B3E  EF88  F015         	goto	i2l829
  3856  002B42                     i2l3323:
  3857                           
  3858                           ; Switch size 1, requested type "simple"
  3859                           ; Number of cases is 1, Range of values is 2 to 2
  3860                           ; switch strategies available:
  3861                           ; Name         Instructions Cycles
  3862                           ; simple_byte            4     3 (average)
  3863                           ;	Chosen strategy is simple_byte
  3864  002B42  5026               	movf	??_CANReadMessage^(0+1280),w,c
  3865  002B44  0A02               	xorlw	2	; case 2
  3866  002B46  B4D8               	btfsc	status,2,c
  3867  002B48  EF74  F015         	goto	i2l826
  3868  002B4C  EF88  F015         	goto	i2l829
  3869  002B50                     i2l3321:
  3870                           
  3871                           ; Switch size 1, requested type "simple"
  3872                           ; Number of cases is 1, Range of values is 0 to 0
  3873                           ; switch strategies available:
  3874                           ; Name         Instructions Cycles
  3875                           ; simple_byte            4     3 (average)
  3876                           ;	Chosen strategy is simple_byte
  3877  002B50  5028               	movf	(??_CANReadMessage+2)^(0+1280),w,c
  3878  002B52  0A00               	xorlw	0	; case 0
  3879  002B54  B4D8               	btfsc	status,2,c
  3880  002B56  EF9A  F015         	goto	i2l3319
  3881  002B5A  EF88  F015         	goto	i2l829
  3882  002B5E                     i2l824:
  3883  002B5E                     i2l830:
  3884  002B5E  0012               	return		;funcret
  3885  002B60                     __end_of_CANReadMessage:
  3886                           	callstack 0
  3887                           
  3888 ;; *************** function _SPEAKER *****************
  3889 ;; Defined at:
  3890 ;;		line 15 in file "SPEAKER.c"
  3891 ;; Parameters:    Size  Location     Type
  3892 ;;		None
  3893 ;; Auto vars:     Size  Location     Type
  3894 ;;		None
  3895 ;; Return value:  Size  Location     Type
  3896 ;;                  1    wreg      void 
  3897 ;; Registers used:
  3898 ;;		wreg, status,2, status,0
  3899 ;; Tracked objects:
  3900 ;;		On entry : 0/0
  3901 ;;		On exit  : 0/0
  3902 ;;		Unchanged: 0/0
  3903 ;; Data sizes:     COMRAM   BANK5   BANK6   BANK7   BANK8   BANK9  BANK10  BANK11  BANK12  BANK13  BANK14  BANK15  BANK1
      +6  BANK17  BANK18  BANK19  BANK20  BANK21  BANK22  BANK23  BANK24  BANK25  BANK26  BANK27  BANK28  BANK29  BANK30  BANK3
      +1  BANK32  BANK33  BANK34  BANK35  BANK36  BANK37
  3904 ;;      Params:         0       0       0       0       0       0       0       0       0       0       0       0       
      +0       0       0       0       0       0       0       0       0       0       0       0       0       0       0       
      +0       0       0       0       0       0       0
  3905 ;;      Locals:         0       0       0       0       0       0       0       0       0       0       0       0       
      +0       0       0       0       0       0       0       0       0       0       0       0       0       0       0       
      +0       0       0       0       0       0       0
  3906 ;;      Temps:          1       0       0       0       0       0       0       0       0       0       0       0       
      +0       0       0       0       0       0       0       0       0       0       0       0       0       0       0       
      +0       0       0       0       0       0       0
  3907 ;;      Totals:         1       0       0       0       0       0       0       0       0       0       0       0       
      +0       0       0       0       0       0       0       0       0       0       0       0       0       0       0       
      +0       0       0       0       0       0       0
  3908 ;;Total ram usage:        1 bytes
  3909 ;; Hardware stack levels used:    1
  3910 ;; This function calls:
  3911 ;;		Nothing
  3912 ;; This function is called by:
  3913 ;;		_TMR0_ISR
  3914 ;;		_CANReadMessage
  3915 ;; This function uses a non-reentrant model
  3916 ;;
  3917                           
  3918                           	psect	text46
  3919  003252                     __ptext46:
  3920                           	callstack 0
  3921  003252                     _SPEAKER:
  3922                           	callstack 121
  3923  003252                     
  3924                           ;SPEAKER.c: 17:     if (ucASState == 4 )
  3925  003252  0E04               	movlw	4
  3926  003254  184C               	xorwf	_ucASState^(0+1280),w,c
  3927  003256  A4D8               	btfss	status,2,c
  3928  003258  EF30  F019         	goto	i2u142_41
  3929  00325C  EF32  F019         	goto	i2u142_40
  3930  003260                     i2u142_41:
  3931  003260  EF45  F019         	goto	i2l737
  3932  003264                     i2u142_40:
  3933  003264  B6C0               	btfsc	192,3,c	;volatile
  3934  003266  EF37  F019         	goto	i2u143_41
  3935  00326A  EF3A  F019         	goto	i2u143_40
  3936  00326E                     i2u143_41:
  3937  00326E  0E01               	movlw	1
  3938  003270  EF3B  F019         	goto	i2u143_46
  3939  003274                     i2u143_40:
  3940  003274  0E00               	movlw	0
  3941  003276                     i2u143_46:
  3942  003276  0AFF               	xorlw	255
  3943  003278  6E01               	movwf	??_SPEAKER^(0+1280),c
  3944  00327A  4601               	rlncf	??_SPEAKER^(0+1280),f,c
  3945  00327C  4601               	rlncf	??_SPEAKER^(0+1280),f,c
  3946  00327E  4601               	rlncf	??_SPEAKER^(0+1280),f,c
  3947  003280  50C0               	movf	192,w,c	;volatile
  3948  003282  1801               	xorwf	??_SPEAKER^(0+1280),w,c
  3949  003284  0BF7               	andlw	-9
  3950  003286  1801               	xorwf	??_SPEAKER^(0+1280),w,c
  3951  003288  6EC0               	movwf	192,c	;volatile
  3952  00328A                     i2l737:
  3953  00328A  0012               	return		;funcret
  3954  00328C                     __end_of_SPEAKER:
  3955                           	callstack 0
  3956                           
  3957 ;; *************** function _LEDS *****************
  3958 ;; Defined at:
  3959 ;;		line 12 in file "LEDS.c"
  3960 ;; Parameters:    Size  Location     Type
  3961 ;;		None
  3962 ;; Auto vars:     Size  Location     Type
  3963 ;;		None
  3964 ;; Return value:  Size  Location     Type
  3965 ;;                  1    wreg      void 
  3966 ;; Registers used:
  3967 ;;		wreg, status,2, status,0
  3968 ;; Tracked objects:
  3969 ;;		On entry : 0/0
  3970 ;;		On exit  : 0/0
  3971 ;;		Unchanged: 0/0
  3972 ;; Data sizes:     COMRAM   BANK5   BANK6   BANK7   BANK8   BANK9  BANK10  BANK11  BANK12  BANK13  BANK14  BANK15  BANK1
      +6  BANK17  BANK18  BANK19  BANK20  BANK21  BANK22  BANK23  BANK24  BANK25  BANK26  BANK27  BANK28  BANK29  BANK30  BANK3
      +1  BANK32  BANK33  BANK34  BANK35  BANK36  BANK37
  3973 ;;      Params:         0       0       0       0       0       0       0       0       0       0       0       0       
      +0       0       0       0       0       0       0       0       0       0       0       0       0       0       0       
      +0       0       0       0       0       0       0
  3974 ;;      Locals:         0       0       0       0       0       0       0       0       0       0       0       0       
      +0       0       0       0       0       0       0       0       0       0       0       0       0       0       0       
      +0       0       0       0       0       0       0
  3975 ;;      Temps:          2       0       0       0       0       0       0       0       0       0       0       0       
      +0       0       0       0       0       0       0       0       0       0       0       0       0       0       0       
      +0       0       0       0       0       0       0
  3976 ;;      Totals:         2       0       0       0       0       0       0       0       0       0       0       0       
      +0       0       0       0       0       0       0       0       0       0       0       0       0       0       0       
      +0       0       0       0       0       0       0
  3977 ;;Total ram usage:        2 bytes
  3978 ;; Hardware stack levels used:    1
  3979 ;; This function calls:
  3980 ;;		Nothing
  3981 ;; This function is called by:
  3982 ;;		_TMR1_ISR
  3983 ;;		_CANReadMessage
  3984 ;; This function uses a non-reentrant model
  3985 ;;
  3986                           
  3987                           	psect	text47
  3988  002DBA                     __ptext47:
  3989                           	callstack 0
  3990  002DBA                     _LEDS:
  3991                           	callstack 121
  3992  002DBA                     
  3993                           ;LEDS.c: 14:     switch (ucASState)
  3994  002DBA  EF18  F017         	goto	i2l2653
  3995  002DBE                     i2l746:
  3996  002DBE  92BF               	bcf	191,1,c	;volatile
  3997  002DC0  94BF               	bcf	191,2,c	;volatile
  3998  002DC2  EF39  F017         	goto	i2l776
  3999  002DC6                     i2l752:
  4000  002DC6  94BF               	bcf	191,2,c	;volatile
  4001  002DC8  82BF               	bsf	191,1,c	;volatile
  4002  002DCA  EF39  F017         	goto	i2l776
  4003  002DCE                     i2l757:
  4004  002DCE  94BF               	bcf	191,2,c	;volatile
  4005  002DD0  B2BF               	btfsc	191,1,c	;volatile
  4006  002DD2  EFED  F016         	goto	i2u140_41
  4007  002DD6  EFF0  F016         	goto	i2u140_40
  4008  002DDA                     i2u140_41:
  4009  002DDA  0E01               	movlw	1
  4010  002DDC  EFF1  F016         	goto	i2u140_46
  4011  002DE0                     i2u140_40:
  4012  002DE0  0E00               	movlw	0
  4013  002DE2                     i2u140_46:
  4014  002DE2  0AFF               	xorlw	255
  4015  002DE4  6E01               	movwf	??_LEDS^(0+1280),c
  4016  002DE6  4601               	rlncf	??_LEDS^(0+1280),f,c
  4017  002DE8  50BF               	movf	191,w,c	;volatile
  4018  002DEA  1801               	xorwf	??_LEDS^(0+1280),w,c
  4019  002DEC  0BFD               	andlw	-3
  4020  002DEE  1801               	xorwf	??_LEDS^(0+1280),w,c
  4021  002DF0  6EBF               	movwf	191,c	;volatile
  4022  002DF2  EF39  F017         	goto	i2l776
  4023  002DF6                     i2l762:
  4024  002DF6  92BF               	bcf	191,1,c	;volatile
  4025  002DF8  B4BF               	btfsc	191,2,c	;volatile
  4026  002DFA  EF01  F017         	goto	i2u141_41
  4027  002DFE  EF04  F017         	goto	i2u141_40
  4028  002E02                     i2u141_41:
  4029  002E02  0E01               	movlw	1
  4030  002E04  EF05  F017         	goto	i2u141_46
  4031  002E08                     i2u141_40:
  4032  002E08  0E00               	movlw	0
  4033  002E0A                     i2u141_46:
  4034  002E0A  0AFF               	xorlw	255
  4035  002E0C  6E01               	movwf	??_LEDS^(0+1280),c
  4036  002E0E  4601               	rlncf	??_LEDS^(0+1280),f,c
  4037  002E10  4601               	rlncf	??_LEDS^(0+1280),f,c
  4038  002E12  50BF               	movf	191,w,c	;volatile
  4039  002E14  1801               	xorwf	??_LEDS^(0+1280),w,c
  4040  002E16  0BFB               	andlw	-5
  4041  002E18  1801               	xorwf	??_LEDS^(0+1280),w,c
  4042  002E1A  6EBF               	movwf	191,c	;volatile
  4043  002E1C  EF39  F017         	goto	i2l776
  4044  002E20                     i2l767:
  4045  002E20  92BF               	bcf	191,1,c	;volatile
  4046  002E22  84BF               	bsf	191,2,c	;volatile
  4047  002E24  EF39  F017         	goto	i2l776
  4048  002E28                     i2l772:
  4049  002E28  92BF               	bcf	191,1,c	;volatile
  4050  002E2A  94BF               	bcf	191,2,c	;volatile
  4051  002E2C  EF39  F017         	goto	i2l776
  4052  002E30                     i2l2653:
  4053  002E30  504C               	movf	_ucASState^(0+1280),w,c
  4054  002E32  6E01               	movwf	??_LEDS^(0+1280),c
  4055  002E34  6A02               	clrf	(??_LEDS+1)^(0+1280),c
  4056                           
  4057                           ; Switch on 2 bytes has been partitioned into a top level switch of size 1, and 1 sub-sw
      +                          itches
  4058                           ; Switch size 1, requested type "simple"
  4059                           ; Number of cases is 1, Range of values is 0 to 0
  4060                           ; switch strategies available:
  4061                           ; Name         Instructions Cycles
  4062                           ; simple_byte            4     3 (average)
  4063                           ;	Chosen strategy is simple_byte
  4064  002E36  5002               	movf	(??_LEDS+1)^(0+1280),w,c
  4065  002E38  0A00               	xorlw	0	; case 0
  4066  002E3A  B4D8               	btfsc	status,2,c
  4067  002E3C  EF22  F017         	goto	i2l3325
  4068  002E40  EF14  F017         	goto	i2l772
  4069  002E44                     i2l3325:
  4070                           
  4071                           ; Switch size 1, requested type "simple"
  4072                           ; Number of cases is 5, Range of values is 1 to 5
  4073                           ; switch strategies available:
  4074                           ; Name         Instructions Cycles
  4075                           ; simple_byte           16     9 (average)
  4076                           ;	Chosen strategy is simple_byte
  4077  002E44  5001               	movf	??_LEDS^(0+1280),w,c
  4078  002E46  0A01               	xorlw	1	; case 1
  4079  002E48  B4D8               	btfsc	status,2,c
  4080  002E4A  EFDF  F016         	goto	i2l746
  4081  002E4E  0A03               	xorlw	3	; case 2
  4082  002E50  B4D8               	btfsc	status,2,c
  4083  002E52  EFE3  F016         	goto	i2l752
  4084  002E56  0A01               	xorlw	1	; case 3
  4085  002E58  B4D8               	btfsc	status,2,c
  4086  002E5A  EFE7  F016         	goto	i2l757
  4087  002E5E  0A07               	xorlw	7	; case 4
  4088  002E60  B4D8               	btfsc	status,2,c
  4089  002E62  EFFB  F016         	goto	i2l762
  4090  002E66  0A01               	xorlw	1	; case 5
  4091  002E68  B4D8               	btfsc	status,2,c
  4092  002E6A  EF10  F017         	goto	i2l767
  4093  002E6E  EF14  F017         	goto	i2l772
  4094  002E72                     i2l776:
  4095  002E72  0012               	return		;funcret
  4096  002E74                     __end_of_LEDS:
  4097                           	callstack 0
  4098                           
  4099 ;; *************** function _CAN1_ReceivedMessageCountGet *****************
  4100 ;; Defined at:
  4101 ;;		line 444 in file "mcc_generated_files/can1.c"
  4102 ;; Parameters:    Size  Location     Type
  4103 ;;		None
  4104 ;; Auto vars:     Size  Location     Type
  4105 ;;  fifoHead        1    8[COMRAM] unsigned char 
  4106 ;;  fifoTail        1    7[COMRAM] unsigned char 
  4107 ;;  fifoDepth       1    6[COMRAM] unsigned char 
  4108 ;;  numOfMsg        1    3[COMRAM] unsigned char 
  4109 ;;  channel         1    5[COMRAM] enum E22386
  4110 ;;  rxMsgStatus     1    4[COMRAM] enum E22534
  4111 ;;  index           1    9[COMRAM] unsigned char 
  4112 ;;  totalMsgObj     1    2[COMRAM] unsigned char 
  4113 ;; Return value:  Size  Location     Type
  4114 ;;                  1    wreg      unsigned char 
  4115 ;; Registers used:
  4116 ;;		wreg, fsr2l, fsr2h, status,2, status,0, prodl, prodh, cstack
  4117 ;; Tracked objects:
  4118 ;;		On entry : 0/0
  4119 ;;		On exit  : 0/0
  4120 ;;		Unchanged: 0/0
  4121 ;; Data sizes:     COMRAM   BANK5   BANK6   BANK7   BANK8   BANK9  BANK10  BANK11  BANK12  BANK13  BANK14  BANK15  BANK1
      +6  BANK17  BANK18  BANK19  BANK20  BANK21  BANK22  BANK23  BANK24  BANK25  BANK26  BANK27  BANK28  BANK29  BANK30  BANK3
      +1  BANK32  BANK33  BANK34  BANK35  BANK36  BANK37
  4122 ;;      Params:         0       0       0       0       0       0       0       0       0       0       0       0       
      +0       0       0       0       0       0       0       0       0       0       0       0       0       0       0       
      +0       0       0       0       0       0       0
  4123 ;;      Locals:         8       0       0       0       0       0       0       0       0       0       0       0       
      +0       0       0       0       0       0       0       0       0       0       0       0       0       0       0       
      +0       0       0       0       0       0       0
  4124 ;;      Temps:          0       0       0       0       0       0       0       0       0       0       0       0       
      +0       0       0       0       0       0       0       0       0       0       0       0       0       0       0       
      +0       0       0       0       0       0       0
  4125 ;;      Totals:         8       0       0       0       0       0       0       0       0       0       0       0       
      +0       0       0       0       0       0       0       0       0       0       0       0       0       0       0       
      +0       0       0       0       0       0       0
  4126 ;;Total ram usage:        8 bytes
  4127 ;; Hardware stack levels used:    1
  4128 ;; Hardware stack levels required when called:    1
  4129 ;; This function calls:
  4130 ;;		_GetRxFifoDepth
  4131 ;;		_GetRxFifoStatus
  4132 ;; This function is called by:
  4133 ;;		_CANReadMessage
  4134 ;; This function uses a non-reentrant model
  4135 ;;
  4136                           
  4137                           	psect	text48
  4138  002C2A                     __ptext48:
  4139                           	callstack 0
  4140  002C2A                     _CAN1_ReceivedMessageCountGet:
  4141                           	callstack 118
  4142  002C2A                     
  4143                           ;mcc_generated_files/can1.c: 446:     uint8_t index, totalMsgObj = 0;
  4144  002C2A  0E00               	movlw	0
  4145  002C2C  6E03               	movwf	CAN1_ReceivedMessageCountGet@totalMsgObj^(0+1280),c
  4146                           
  4147                           ;mcc_generated_files/can1.c: 448:     for (index = 0; index < (1U); index++)
  4148  002C2E  0E00               	movlw	0
  4149  002C30  6E0A               	movwf	CAN1_ReceivedMessageCountGet@index^(0+1280),c
  4150  002C32                     i2l2609:
  4151                           
  4152                           ;mcc_generated_files/can1.c: 449:     {;mcc_generated_files/can1.c: 450:         CAN1_RX
      +                          _FIFO_CHANNELS channel = rxFifos[index].channel;
  4153  002C32  500A               	movf	CAN1_ReceivedMessageCountGet@index^(0+1280),w,c
  4154  002C34  0D02               	mullw	2
  4155  002C36  0E86               	movlw	low _rxFifos
  4156  002C38  24F3               	addwf	243,w,c
  4157  002C3A  6ED9               	movwf	fsr2l,c
  4158  002C3C  0E05               	movlw	high _rxFifos
  4159  002C3E  20F4               	addwfc	prodh,w,c
  4160  002C40  6EDA               	movwf	fsr2h,c
  4161  002C42  50DF               	movf	indf2,w,c
  4162  002C44  6E06               	movwf	CAN1_ReceivedMessageCountGet@channel^(0+1280),c
  4163  002C46                     
  4164                           ;mcc_generated_files/can1.c: 451:         CAN_RX_FIFO_STATUS rxMsgStatus = GetRxFifoStat
      +                          us(channel);
  4165  002C46  5006               	movf	CAN1_ReceivedMessageCountGet@channel^(0+1280),w,c
  4166  002C48  EC4A  F01A         	call	_GetRxFifoStatus
  4167  002C4C  6E05               	movwf	CAN1_ReceivedMessageCountGet@rxMsgStatus^(0+1280),c
  4168  002C4E                     
  4169                           ;mcc_generated_files/can1.c: 453:         if (CAN_RX_MSG_AVAILABLE == (rxMsgStatus & CAN
      +                          _RX_MSG_AVAILABLE))
  4170  002C4E  A005               	btfss	CAN1_ReceivedMessageCountGet@rxMsgStatus^(0+1280),0,c
  4171  002C50  EF2C  F016         	goto	i2u135_41
  4172  002C54  EF2E  F016         	goto	i2u135_40
  4173  002C58                     i2u135_41:
  4174  002C58  EF6F  F016         	goto	i2l2633
  4175  002C5C                     i2u135_40:
  4176  002C5C                     
  4177                           ;mcc_generated_files/can1.c: 454:         {;mcc_generated_files/can1.c: 455:            
      +                           uint8_t numOfMsg, fifoDepth = GetRxFifoDepth(channel);
  4178  002C5C  5006               	movf	CAN1_ReceivedMessageCountGet@channel^(0+1280),w,c
  4179  002C5E  EC2F  F01A         	call	_GetRxFifoDepth
  4180  002C62  6E07               	movwf	CAN1_ReceivedMessageCountGet@fifoDepth^(0+1280),c
  4181  002C64                     
  4182                           ;mcc_generated_files/can1.c: 457:             if (CAN_RX_MSG_OVERFLOW == (rxMsgStatus & 
      +                          CAN_RX_MSG_OVERFLOW))
  4183  002C64  A605               	btfss	CAN1_ReceivedMessageCountGet@rxMsgStatus^(0+1280),3,c
  4184  002C66  EF37  F016         	goto	i2u136_41
  4185  002C6A  EF39  F016         	goto	i2u136_40
  4186  002C6E                     i2u136_41:
  4187  002C6E  EF3D  F016         	goto	i2l2621
  4188  002C72                     i2u136_40:
  4189  002C72                     i2l2619:
  4190                           
  4191                           ;mcc_generated_files/can1.c: 458:             {;mcc_generated_files/can1.c: 459:        
      +                                   numOfMsg = fifoDepth;
  4192  002C72  C507  F504         	movff	CAN1_ReceivedMessageCountGet@fifoDepth,CAN1_ReceivedMessageCountGet@numOfMsg
  4193                           
  4194                           ;mcc_generated_files/can1.c: 460:             }
  4195  002C76  EF6D  F016         	goto	i2l2631
  4196  002C7A                     i2l2621:
  4197                           
  4198                           ;mcc_generated_files/can1.c: 462:             {;mcc_generated_files/can1.c: 463:        
      +                                   uint8_t fifoTail = FIFO[channel].STAH & 0x1F;
  4199  002C7A  5006               	movf	CAN1_ReceivedMessageCountGet@channel^(0+1280),w,c
  4200  002C7C  0D0C               	mullw	12
  4201  002C7E  0E55               	movlw	85
  4202  002C80  24F3               	addwf	243,w,c
  4203  002C82  6ED9               	movwf	fsr2l,c
  4204  002C84  0E01               	movlw	1
  4205  002C86  20F4               	addwfc	prodh,w,c
  4206  002C88  6EDA               	movwf	fsr2h,c
  4207  002C8A  50DF               	movf	indf2,w,c
  4208  002C8C  0B1F               	andlw	31
  4209  002C8E  6E08               	movwf	CAN1_ReceivedMessageCountGet@fifoTail^(0+1280),c
  4210                           
  4211                           ;mcc_generated_files/can1.c: 464:                 uint8_t fifoHead = rxFifos[index].fifo
      +                          Head;
  4212  002C90  500A               	movf	CAN1_ReceivedMessageCountGet@index^(0+1280),w,c
  4213  002C92  0D02               	mullw	2
  4214  002C94  0E87               	movlw	low (_rxFifos+1)
  4215  002C96  24F3               	addwf	243,w,c
  4216  002C98  6ED9               	movwf	fsr2l,c
  4217  002C9A  0E05               	movlw	high (_rxFifos+1)
  4218  002C9C  20F4               	addwfc	prodh,w,c
  4219  002C9E  6EDA               	movwf	fsr2h,c
  4220  002CA0  50DF               	movf	indf2,w,c
  4221  002CA2  6E09               	movwf	CAN1_ReceivedMessageCountGet@fifoHead^(0+1280),c
  4222  002CA4                     
  4223                           ;mcc_generated_files/can1.c: 466:                 if (fifoTail < fifoHead)
  4224  002CA4  5009               	movf	CAN1_ReceivedMessageCountGet@fifoHead^(0+1280),w,c
  4225  002CA6  5C08               	subwf	CAN1_ReceivedMessageCountGet@fifoTail^(0+1280),w,c
  4226  002CA8  B0D8               	btfsc	status,0,c
  4227  002CAA  EF59  F016         	goto	i2u137_41
  4228  002CAE  EF5B  F016         	goto	i2u137_40
  4229  002CB2                     i2u137_41:
  4230  002CB2  EF61  F016         	goto	i2l2627
  4231  002CB6                     i2u137_40:
  4232  002CB6                     
  4233                           ;mcc_generated_files/can1.c: 467:                 {;mcc_generated_files/can1.c: 468:    
      +                                           numOfMsg = ((fifoTail + fifoDepth) - fifoHead);
  4234  002CB6  5009               	movf	CAN1_ReceivedMessageCountGet@fifoHead^(0+1280),w,c
  4235  002CB8  5C08               	subwf	CAN1_ReceivedMessageCountGet@fifoTail^(0+1280),w,c
  4236  002CBA  2407               	addwf	CAN1_ReceivedMessageCountGet@fifoDepth^(0+1280),w,c
  4237  002CBC  6E04               	movwf	CAN1_ReceivedMessageCountGet@numOfMsg^(0+1280),c
  4238                           
  4239                           ;mcc_generated_files/can1.c: 469:                 }
  4240  002CBE  EF6D  F016         	goto	i2l2631
  4241  002CC2                     i2l2627:
  4242  002CC2  5008               	movf	CAN1_ReceivedMessageCountGet@fifoTail^(0+1280),w,c
  4243  002CC4  5C09               	subwf	CAN1_ReceivedMessageCountGet@fifoHead^(0+1280),w,c
  4244  002CC6  B0D8               	btfsc	status,0,c
  4245  002CC8  EF68  F016         	goto	i2u138_41
  4246  002CCC  EF6A  F016         	goto	i2u138_40
  4247  002CD0                     i2u138_41:
  4248  002CD0  EF39  F016         	goto	i2l2619
  4249  002CD4                     i2u138_40:
  4250  002CD4                     
  4251                           ;mcc_generated_files/can1.c: 471:                 {;mcc_generated_files/can1.c: 472:    
      +                                           numOfMsg = fifoTail - fifoHead;
  4252  002CD4  5009               	movf	CAN1_ReceivedMessageCountGet@fifoHead^(0+1280),w,c
  4253  002CD6  5C08               	subwf	CAN1_ReceivedMessageCountGet@fifoTail^(0+1280),w,c
  4254  002CD8  6E04               	movwf	CAN1_ReceivedMessageCountGet@numOfMsg^(0+1280),c
  4255  002CDA                     i2l2631:
  4256                           
  4257                           ;mcc_generated_files/can1.c: 480:             totalMsgObj += numOfMsg;
  4258  002CDA  5004               	movf	CAN1_ReceivedMessageCountGet@numOfMsg^(0+1280),w,c
  4259  002CDC  2603               	addwf	CAN1_ReceivedMessageCountGet@totalMsgObj^(0+1280),f,c
  4260  002CDE                     i2l2633:
  4261                           
  4262                           ;mcc_generated_files/can1.c: 482:     }
  4263  002CDE  2A0A               	incf	CAN1_ReceivedMessageCountGet@index^(0+1280),f,c
  4264  002CE0  500A               	movf	CAN1_ReceivedMessageCountGet@index^(0+1280),w,c
  4265  002CE2  B4D8               	btfsc	status,2,c
  4266  002CE4  EF76  F016         	goto	i2u139_41
  4267  002CE8  EF78  F016         	goto	i2u139_40
  4268  002CEC                     i2u139_41:
  4269  002CEC  EF19  F016         	goto	i2l2609
  4270  002CF0                     i2u139_40:
  4271  002CF0                     
  4272                           ;mcc_generated_files/can1.c: 484:     return totalMsgObj;
  4273  002CF0  5003               	movf	CAN1_ReceivedMessageCountGet@totalMsgObj^(0+1280),w,c
  4274  002CF2  0012               	return		;funcret
  4275  002CF4                     __end_of_CAN1_ReceivedMessageCountGet:
  4276                           	callstack 0
  4277                           
  4278 ;; *************** function _CAN1_Receive *****************
  4279 ;; Defined at:
  4280 ;;		line 409 in file "mcc_generated_files/can1.c"
  4281 ;; Parameters:    Size  Location     Type
  4282 ;;  rxCanMsg        2   33[COMRAM] PTR struct .
  4283 ;;		 -> msgReceipt(7), 
  4284 ;; Auto vars:     Size  Location     Type
  4285 ;;  index           1   36[COMRAM] unsigned char 
  4286 ;;  status          1   35[COMRAM] _Bool 
  4287 ;; Return value:  Size  Location     Type
  4288 ;;                  1    wreg      _Bool 
  4289 ;; Registers used:
  4290 ;;		wreg, fsr2l, fsr2h, status,2, status,0, tblptrl, tblptrh, tblptru, prodl, prodh, cstack
  4291 ;; Tracked objects:
  4292 ;;		On entry : 0/0
  4293 ;;		On exit  : 0/0
  4294 ;;		Unchanged: 0/0
  4295 ;; Data sizes:     COMRAM   BANK5   BANK6   BANK7   BANK8   BANK9  BANK10  BANK11  BANK12  BANK13  BANK14  BANK15  BANK1
      +6  BANK17  BANK18  BANK19  BANK20  BANK21  BANK22  BANK23  BANK24  BANK25  BANK26  BANK27  BANK28  BANK29  BANK30  BANK3
      +1  BANK32  BANK33  BANK34  BANK35  BANK36  BANK37
  4296 ;;      Params:         2       0       0       0       0       0       0       0       0       0       0       0       
      +0       0       0       0       0       0       0       0       0       0       0       0       0       0       0       
      +0       0       0       0       0       0       0
  4297 ;;      Locals:         2       0       0       0       0       0       0       0       0       0       0       0       
      +0       0       0       0       0       0       0       0       0       0       0       0       0       0       0       
      +0       0       0       0       0       0       0
  4298 ;;      Temps:          0       0       0       0       0       0       0       0       0       0       0       0       
      +0       0       0       0       0       0       0       0       0       0       0       0       0       0       0       
      +0       0       0       0       0       0       0
  4299 ;;      Totals:         4       0       0       0       0       0       0       0       0       0       0       0       
      +0       0       0       0       0       0       0       0       0       0       0       0       0       0       0       
      +0       0       0       0       0       0       0
  4300 ;;Total ram usage:        4 bytes
  4301 ;; Hardware stack levels used:    1
  4302 ;; Hardware stack levels required when called:    3
  4303 ;; This function calls:
  4304 ;;		_Receive
  4305 ;; This function is called by:
  4306 ;;		_CANReadMessage
  4307 ;; This function uses a non-reentrant model
  4308 ;;
  4309                           
  4310                           	psect	text49
  4311  0030F2                     __ptext49:
  4312                           	callstack 0
  4313  0030F2                     _CAN1_Receive:
  4314                           	callstack 116
  4315  0030F2                     
  4316                           ;mcc_generated_files/can1.c: 414:     for (index = 0; index < (1U); index++)
  4317  0030F2  0E00               	movlw	0
  4318  0030F4  6E25               	movwf	CAN1_Receive@index^(0+1280),c
  4319  0030F6                     i2l2591:
  4320                           
  4321                           ;mcc_generated_files/can1.c: 415:     {;mcc_generated_files/can1.c: 416:         status 
      +                          = Receive(index, rxFifos[index].channel, rxCanMsg);
  4322  0030F6  5025               	movf	CAN1_Receive@index^(0+1280),w,c
  4323  0030F8  0D02               	mullw	2
  4324  0030FA  0E86               	movlw	low _rxFifos
  4325  0030FC  24F3               	addwf	243,w,c
  4326  0030FE  6ED9               	movwf	fsr2l,c
  4327  003100  0E05               	movlw	high _rxFifos
  4328  003102  20F4               	addwfc	prodh,w,c
  4329  003104  6EDA               	movwf	fsr2h,c
  4330  003106  50DF               	movf	indf2,w,c
  4331  003108  6E18               	movwf	Receive@channel^(0+1280),c
  4332  00310A  C522  F519         	movff	CAN1_Receive@rxCanMsg,Receive@rxCanMsg
  4333  00310E  C523  F51A         	movff	CAN1_Receive@rxCanMsg+1,Receive@rxCanMsg+1
  4334  003112  5025               	movf	CAN1_Receive@index^(0+1280),w,c
  4335  003114  ECD2  F014         	call	_Receive
  4336  003118  6E24               	movwf	CAN1_Receive@status^(0+1280),c
  4337  00311A                     
  4338                           ;mcc_generated_files/can1.c: 418:         if (status)
  4339  00311A  5024               	movf	CAN1_Receive@status^(0+1280),w,c
  4340  00311C  B4D8               	btfsc	status,2,c
  4341  00311E  EF93  F018         	goto	i2u133_41
  4342  003122  EF95  F018         	goto	i2u133_40
  4343  003126                     i2u133_41:
  4344  003126  EF97  F018         	goto	i2l2597
  4345  00312A                     i2u133_40:
  4346  00312A  EFA0  F018         	goto	i2l2601
  4347  00312E                     i2l2597:
  4348                           
  4349                           ;mcc_generated_files/can1.c: 422:     }
  4350  00312E  2A25               	incf	CAN1_Receive@index^(0+1280),f,c
  4351  003130  5025               	movf	CAN1_Receive@index^(0+1280),w,c
  4352  003132  B4D8               	btfsc	status,2,c
  4353  003134  EF9E  F018         	goto	i2u134_41
  4354  003138  EFA0  F018         	goto	i2u134_40
  4355  00313C                     i2u134_41:
  4356  00313C  EF7B  F018         	goto	i2l2591
  4357  003140                     i2u134_40:
  4358  003140                     i2l2601:
  4359                           
  4360                           ;mcc_generated_files/can1.c: 424:     return status;
  4361  003140  5024               	movf	CAN1_Receive@status^(0+1280),w,c
  4362  003142  0012               	return		;funcret
  4363  003144                     __end_of_CAN1_Receive:
  4364                           	callstack 0
  4365                           
  4366 ;; *************** function _Receive *****************
  4367 ;; Defined at:
  4368 ;;		line 377 in file "mcc_generated_files/can1.c"
  4369 ;; Parameters:    Size  Location     Type
  4370 ;;  index           1    wreg     unsigned char 
  4371 ;;  channel         1   23[COMRAM] enum E22386
  4372 ;;  rxCanMsg        2   24[COMRAM] PTR struct .
  4373 ;;		 -> msgReceipt(7), 
  4374 ;; Auto vars:     Size  Location     Type
  4375 ;;  index           1   32[COMRAM] unsigned char 
  4376 ;;  rxFifoObj       2   29[COMRAM] PTR unsigned char 
  4377 ;;		 -> RAM(9727), 
  4378 ;;  rxMsgStatus     1   31[COMRAM] enum E22534
  4379 ;;  status          1   28[COMRAM] _Bool 
  4380 ;; Return value:  Size  Location     Type
  4381 ;;                  1    wreg      _Bool 
  4382 ;; Registers used:
  4383 ;;		wreg, fsr2l, fsr2h, status,2, status,0, tblptrl, tblptrh, tblptru, prodl, prodh, cstack
  4384 ;; Tracked objects:
  4385 ;;		On entry : 0/0
  4386 ;;		On exit  : 0/0
  4387 ;;		Unchanged: 0/0
  4388 ;; Data sizes:     COMRAM   BANK5   BANK6   BANK7   BANK8   BANK9  BANK10  BANK11  BANK12  BANK13  BANK14  BANK15  BANK1
      +6  BANK17  BANK18  BANK19  BANK20  BANK21  BANK22  BANK23  BANK24  BANK25  BANK26  BANK27  BANK28  BANK29  BANK30  BANK3
      +1  BANK32  BANK33  BANK34  BANK35  BANK36  BANK37
  4389 ;;      Params:         3       0       0       0       0       0       0       0       0       0       0       0       
      +0       0       0       0       0       0       0       0       0       0       0       0       0       0       0       
      +0       0       0       0       0       0       0
  4390 ;;      Locals:         5       0       0       0       0       0       0       0       0       0       0       0       
      +0       0       0       0       0       0       0       0       0       0       0       0       0       0       0       
      +0       0       0       0       0       0       0
  4391 ;;      Temps:          2       0       0       0       0       0       0       0       0       0       0       0       
      +0       0       0       0       0       0       0       0       0       0       0       0       0       0       0       
      +0       0       0       0       0       0       0
  4392 ;;      Totals:        10       0       0       0       0       0       0       0       0       0       0       0       
      +0       0       0       0       0       0       0       0       0       0       0       0       0       0       0       
      +0       0       0       0       0       0       0
  4393 ;;Total ram usage:       10 bytes
  4394 ;; Hardware stack levels used:    1
  4395 ;; Hardware stack levels required when called:    2
  4396 ;; This function calls:
  4397 ;;		_GetRxFifoDepth
  4398 ;;		_GetRxFifoStatus
  4399 ;;		_ReadMessageFromFifo
  4400 ;; This function is called by:
  4401 ;;		_CAN1_Receive
  4402 ;;		_CAN1_ReceiveFrom
  4403 ;; This function uses a non-reentrant model
  4404 ;;
  4405                           
  4406                           	psect	text50
  4407  0029A4                     __ptext50:
  4408                           	callstack 0
  4409  0029A4                     _Receive:
  4410                           	callstack 116
  4411                           
  4412                           ;incstack = 0
  4413                           ;Receive@index stored from wreg
  4414  0029A4  6E21               	movwf	Receive@index^(0+1280),c
  4415  0029A6                     
  4416                           ;mcc_generated_files/can1.c: 377: static _Bool Receive(uint8_t index, CAN1_RX_FIFO_CHANN
      +                          ELS channel, CAN_MSG_OBJ *rxCanMsg);mcc_generated_files/can1.c: 378: {;mcc_generated_fil
      +                          es/can1.c: 379:     _Bool status = 0;
  4417  0029A6  0E00               	movlw	0
  4418  0029A8  6E1D               	movwf	Receive@status^(0+1280),c
  4419  0029AA                     
  4420                           ;mcc_generated_files/can1.c: 380:     CAN_RX_FIFO_STATUS rxMsgStatus = GetRxFifoStatus(c
      +                          hannel);
  4421  0029AA  5018               	movf	Receive@channel^(0+1280),w,c
  4422  0029AC  EC4A  F01A         	call	_GetRxFifoStatus
  4423  0029B0  6E20               	movwf	Receive@rxMsgStatus^(0+1280),c
  4424  0029B2                     
  4425                           ;mcc_generated_files/can1.c: 382:     if (CAN_RX_MSG_AVAILABLE == (rxMsgStatus & CAN_RX_
      +                          MSG_AVAILABLE))
  4426  0029B2  A020               	btfss	Receive@rxMsgStatus^(0+1280),0,c
  4427  0029B4  EFDE  F014         	goto	i2u129_41
  4428  0029B8  EFE0  F014         	goto	i2u129_40
  4429  0029BC                     i2u129_41:
  4430  0029BC  EF46  F015         	goto	i2l2563
  4431  0029C0                     i2u129_40:
  4432  0029C0                     
  4433                           ;mcc_generated_files/can1.c: 383:     {;mcc_generated_files/can1.c: 384:         uint8_t
      +                           *rxFifoObj = (uint8_t *) FIFO[channel].UA;
  4434  0029C0  5018               	movf	Receive@channel^(0+1280),w,c
  4435  0029C2  0D0C               	mullw	12
  4436  0029C4  0E58               	movlw	88
  4437  0029C6  24F3               	addwf	243,w,c
  4438  0029C8  6ED9               	movwf	fsr2l,c
  4439  0029CA  0E01               	movlw	1
  4440  0029CC  20F4               	addwfc	prodh,w,c
  4441  0029CE  6EDA               	movwf	fsr2h,c
  4442  0029D0  0061 F378  F51E    	movff	postinc2,Receive@rxFifoObj
  4443  0029D6  0061 F374  F51F    	movff	postdec2,Receive@rxFifoObj+1
  4444  0029DC                     
  4445                           ;mcc_generated_files/can1.c: 386:         if (rxFifoObj != ((void*)0))
  4446  0029DC  501E               	movf	Receive@rxFifoObj^(0+1280),w,c
  4447  0029DE  101F               	iorwf	(Receive@rxFifoObj+1)^(0+1280),w,c
  4448  0029E0  B4D8               	btfsc	status,2,c
  4449  0029E2  EFF5  F014         	goto	i2u130_41
  4450  0029E6  EFF7  F014         	goto	i2u130_40
  4451  0029EA                     i2u130_41:
  4452  0029EA  EF46  F015         	goto	i2l2563
  4453  0029EE                     i2u130_40:
  4454  0029EE                     
  4455                           ;mcc_generated_files/can1.c: 387:         {;mcc_generated_files/can1.c: 388:            
      +                           ReadMessageFromFifo(rxFifoObj, rxCanMsg);
  4456  0029EE  C51E  F50C         	movff	Receive@rxFifoObj,ReadMessageFromFifo@rxFifoObj
  4457  0029F2  C51F  F50D         	movff	Receive@rxFifoObj+1,ReadMessageFromFifo@rxFifoObj+1
  4458  0029F6  C519  F50E         	movff	Receive@rxCanMsg,ReadMessageFromFifo@rxCanMsg
  4459  0029FA  C51A  F50F         	movff	Receive@rxCanMsg+1,ReadMessageFromFifo@rxCanMsg+1
  4460  0029FE  EC07  F013         	call	_ReadMessageFromFifo	;wreg free
  4461  002A02                     
  4462                           ;mcc_generated_files/can1.c: 389:             FIFO[channel].CONH |= 0x1;
  4463  002A02  5018               	movf	Receive@channel^(0+1280),w,c
  4464  002A04  0D0C               	mullw	12
  4465  002A06  0E51               	movlw	81
  4466  002A08  24F3               	addwf	243,w,c
  4467  002A0A  6ED9               	movwf	fsr2l,c
  4468  002A0C  0E01               	movlw	1
  4469  002A0E  20F4               	addwfc	prodh,w,c
  4470  002A10  6EDA               	movwf	fsr2h,c
  4471  002A12  0E00               	movlw	0
  4472  002A14  80DB               	bsf	plusw2,0,c
  4473  002A16                     
  4474                           ;mcc_generated_files/can1.c: 391:             rxFifos[index].fifoHead += 1;
  4475  002A16  5021               	movf	Receive@index^(0+1280),w,c
  4476  002A18  0D02               	mullw	2
  4477  002A1A  0E87               	movlw	low (_rxFifos+1)
  4478  002A1C  24F3               	addwf	243,w,c
  4479  002A1E  6ED9               	movwf	fsr2l,c
  4480  002A20  0E05               	movlw	high (_rxFifos+1)
  4481  002A22  20F4               	addwfc	prodh,w,c
  4482  002A24  6EDA               	movwf	fsr2h,c
  4483  002A26  2ADF               	incf	indf2,f,c
  4484  002A28                     
  4485                           ;mcc_generated_files/can1.c: 392:             if (rxFifos[index].fifoHead >= GetRxFifoDe
      +                          pth(channel))
  4486  002A28  5018               	movf	Receive@channel^(0+1280),w,c
  4487  002A2A  EC2F  F01A         	call	_GetRxFifoDepth
  4488  002A2E  6E1B               	movwf	??_Receive^(0+1280),c
  4489  002A30  5021               	movf	Receive@index^(0+1280),w,c
  4490  002A32  0D02               	mullw	2
  4491  002A34  0E87               	movlw	low (_rxFifos+1)
  4492  002A36  24F3               	addwf	243,w,c
  4493  002A38  6ED9               	movwf	fsr2l,c
  4494  002A3A  0E05               	movlw	high (_rxFifos+1)
  4495  002A3C  20F4               	addwfc	prodh,w,c
  4496  002A3E  6EDA               	movwf	fsr2h,c
  4497  002A40  501B               	movf	??_Receive^(0+1280),w,c
  4498  002A42  5CDE               	subwf	postinc2,w,c
  4499  002A44  A0D8               	btfss	status,0,c
  4500  002A46  EF27  F015         	goto	i2u131_41
  4501  002A4A  EF29  F015         	goto	i2u131_40
  4502  002A4E                     i2u131_41:
  4503  002A4E  EF33  F015         	goto	i2l2557
  4504  002A52                     i2u131_40:
  4505  002A52                     
  4506                           ;mcc_generated_files/can1.c: 393:             {;mcc_generated_files/can1.c: 394:        
      +                                   rxFifos[index].fifoHead = 0;
  4507  002A52  5021               	movf	Receive@index^(0+1280),w,c
  4508  002A54  0D02               	mullw	2
  4509  002A56  0E87               	movlw	low (_rxFifos+1)
  4510  002A58  24F3               	addwf	243,w,c
  4511  002A5A  6ED9               	movwf	fsr2l,c
  4512  002A5C  0E05               	movlw	high (_rxFifos+1)
  4513  002A5E  20F4               	addwfc	prodh,w,c
  4514  002A60  6EDA               	movwf	fsr2h,c
  4515  002A62  0E00               	movlw	0
  4516  002A64  6EDF               	movwf	indf2,c
  4517  002A66                     i2l2557:
  4518                           
  4519                           ;mcc_generated_files/can1.c: 397:             if (CAN_RX_MSG_OVERFLOW == (rxMsgStatus & 
      +                          CAN_RX_MSG_OVERFLOW))
  4520  002A66  A620               	btfss	Receive@rxMsgStatus^(0+1280),3,c
  4521  002A68  EF38  F015         	goto	i2u132_41
  4522  002A6C  EF3A  F015         	goto	i2u132_40
  4523  002A70                     i2u132_41:
  4524  002A70  EF44  F015         	goto	i2l2561
  4525  002A74                     i2u132_40:
  4526  002A74                     
  4527                           ;mcc_generated_files/can1.c: 398:             {;mcc_generated_files/can1.c: 399:        
      +                                   FIFO[channel].STAL &= ~0x8;
  4528  002A74  5018               	movf	Receive@channel^(0+1280),w,c
  4529  002A76  0D0C               	mullw	12
  4530  002A78  0E54               	movlw	84
  4531  002A7A  24F3               	addwf	243,w,c
  4532  002A7C  6ED9               	movwf	fsr2l,c
  4533  002A7E  0E01               	movlw	1
  4534  002A80  20F4               	addwfc	prodh,w,c
  4535  002A82  6EDA               	movwf	fsr2h,c
  4536  002A84  0EF7               	movlw	247
  4537  002A86  16DF               	andwf	indf2,f,c
  4538  002A88                     i2l2561:
  4539                           
  4540                           ;mcc_generated_files/can1.c: 402:             status = 1;
  4541  002A88  0E01               	movlw	1
  4542  002A8A  6E1D               	movwf	Receive@status^(0+1280),c
  4543  002A8C                     i2l2563:
  4544                           
  4545                           ;mcc_generated_files/can1.c: 406:     return status;
  4546  002A8C  501D               	movf	Receive@status^(0+1280),w,c
  4547  002A8E  0012               	return		;funcret
  4548  002A90                     __end_of_Receive:
  4549                           	callstack 0
  4550                           
  4551 ;; *************** function _ReadMessageFromFifo *****************
  4552 ;; Defined at:
  4553 ;;		line 343 in file "mcc_generated_files/can1.c"
  4554 ;; Parameters:    Size  Location     Type
  4555 ;;  rxFifoObj       2   11[COMRAM] PTR unsigned char 
  4556 ;;		 -> RAM(9727), 
  4557 ;;  rxCanMsg        2   13[COMRAM] PTR struct .
  4558 ;;		 -> msgReceipt(7), 
  4559 ;; Auto vars:     Size  Location     Type
  4560 ;;  msgId           4   18[COMRAM] unsigned long 
  4561 ;;  status          1   22[COMRAM] unsigned char 
  4562 ;;  payloadOffse    1    0        const unsigned char 
  4563 ;; Return value:  Size  Location     Type
  4564 ;;                  1    wreg      void 
  4565 ;; Registers used:
  4566 ;;		wreg, fsr2l, fsr2h, status,2, status,0, tblptrl, tblptrh, tblptru, cstack
  4567 ;; Tracked objects:
  4568 ;;		On entry : 0/0
  4569 ;;		On exit  : 0/0
  4570 ;;		Unchanged: 0/0
  4571 ;; Data sizes:     COMRAM   BANK5   BANK6   BANK7   BANK8   BANK9  BANK10  BANK11  BANK12  BANK13  BANK14  BANK15  BANK1
      +6  BANK17  BANK18  BANK19  BANK20  BANK21  BANK22  BANK23  BANK24  BANK25  BANK26  BANK27  BANK28  BANK29  BANK30  BANK3
      +1  BANK32  BANK33  BANK34  BANK35  BANK36  BANK37
  4572 ;;      Params:         4       0       0       0       0       0       0       0       0       0       0       0       
      +0       0       0       0       0       0       0       0       0       0       0       0       0       0       0       
      +0       0       0       0       0       0       0
  4573 ;;      Locals:         6       0       0       0       0       0       0       0       0       0       0       0       
      +0       0       0       0       0       0       0       0       0       0       0       0       0       0       0       
      +0       0       0       0       0       0       0
  4574 ;;      Temps:          2       0       0       0       0       0       0       0       0       0       0       0       
      +0       0       0       0       0       0       0       0       0       0       0       0       0       0       0       
      +0       0       0       0       0       0       0
  4575 ;;      Totals:        12       0       0       0       0       0       0       0       0       0       0       0       
      +0       0       0       0       0       0       0       0       0       0       0       0       0       0       0       
      +0       0       0       0       0       0       0
  4576 ;;Total ram usage:       12 bytes
  4577 ;; Hardware stack levels used:    1
  4578 ;; Hardware stack levels required when called:    1
  4579 ;; This function calls:
  4580 ;;		_memcpy
  4581 ;; This function is called by:
  4582 ;;		_Receive
  4583 ;; This function uses a non-reentrant model
  4584 ;;
  4585                           
  4586                           	psect	text51
  4587  00260E                     __ptext51:
  4588                           	callstack 0
  4589  00260E                     _ReadMessageFromFifo:
  4590                           	callstack 116
  4591  00260E                     
  4592                           ;mcc_generated_files/can1.c: 343: static void ReadMessageFromFifo(uint8_t *rxFifoObj, CA
      +                          N_MSG_OBJ *rxCanMsg);mcc_generated_files/can1.c: 344: {;mcc_generated_files/can1.c: 345:
      +                               uint32_t msgId;;mcc_generated_files/can1.c: 346:     uint8_t status = rxFifoObj[4];
  4593  00260E  EE20 F004          	lfsr	2,4
  4594  002612  500C               	movf	ReadMessageFromFifo@rxFifoObj^(0+1280),w,c
  4595  002614  26D9               	addwf	fsr2l,f,c
  4596  002616  500D               	movf	(ReadMessageFromFifo@rxFifoObj+1)^(0+1280),w,c
  4597  002618  22DA               	addwfc	fsr2h,f,c
  4598  00261A  50DF               	movf	indf2,w,c
  4599  00261C  6E17               	movwf	ReadMessageFromFifo@status^(0+1280),c
  4600  00261E                     
  4601                           ;mcc_generated_files/can1.c: 353:     rxCanMsg->field.dlc = status;
  4602  00261E  C517  F510         	movff	ReadMessageFromFifo@status,??_ReadMessageFromFifo
  4603  002622  EE20 F004          	lfsr	2,4
  4604  002626  500E               	movf	ReadMessageFromFifo@rxCanMsg^(0+1280),w,c
  4605  002628  26D9               	addwf	fsr2l,f,c
  4606  00262A  500F               	movf	(ReadMessageFromFifo@rxCanMsg+1)^(0+1280),w,c
  4607  00262C  22DA               	addwfc	fsr2h,f,c
  4608  00262E  4610               	rlncf	??_ReadMessageFromFifo^(0+1280),f,c
  4609  002630  4610               	rlncf	??_ReadMessageFromFifo^(0+1280),f,c
  4610  002632  50DF               	movf	479,w,c
  4611  002634  1810               	xorwf	??_ReadMessageFromFifo^(0+1280),w,c
  4612  002636  0BC3               	andlw	-61
  4613  002638  1810               	xorwf	??_ReadMessageFromFifo^(0+1280),w,c
  4614  00263A  6EDF               	movwf	479,c
  4615  00263C                     
  4616                           ;mcc_generated_files/can1.c: 354:     rxCanMsg->field.idType = (status & (1UL << (4U))) 
      +                          ? CAN_FRAME_EXT : CAN_FRAME_STD;
  4617  00263C  B817               	btfsc	ReadMessageFromFifo@status^(0+1280),4,c
  4618  00263E  EF23  F013         	goto	i2u118_41
  4619  002642  EF27  F013         	goto	i2u118_40
  4620  002646                     i2u118_41:
  4621  002646  6A10               	clrf	??_ReadMessageFromFifo^(0+1280),c
  4622  002648  2A10               	incf	??_ReadMessageFromFifo^(0+1280),f,c
  4623  00264A  EF28  F013         	goto	i2u119_48
  4624  00264E                     i2u118_40:
  4625  00264E  6A10               	clrf	??_ReadMessageFromFifo^(0+1280),c
  4626  002650                     i2u119_48:
  4627  002650  EE20 F004          	lfsr	2,4
  4628  002654  500E               	movf	ReadMessageFromFifo@rxCanMsg^(0+1280),w,c
  4629  002656  26D9               	addwf	fsr2l,f,c
  4630  002658  500F               	movf	(ReadMessageFromFifo@rxCanMsg+1)^(0+1280),w,c
  4631  00265A  22DA               	addwfc	fsr2h,f,c
  4632  00265C  50DF               	movf	479,w,c
  4633  00265E  1810               	xorwf	??_ReadMessageFromFifo^(0+1280),w,c
  4634  002660  0BFE               	andlw	-2
  4635  002662  1810               	xorwf	??_ReadMessageFromFifo^(0+1280),w,c
  4636  002664  6EDF               	movwf	479,c
  4637  002666                     
  4638                           ;mcc_generated_files/can1.c: 355:     rxCanMsg->field.frameType = (status & (1UL << (5U)
      +                          )) ? CAN_FRAME_RTR : CAN_FRAME_DATA;
  4639  002666  BA17               	btfsc	ReadMessageFromFifo@status^(0+1280),5,c
  4640  002668  EF38  F013         	goto	i2u120_41
  4641  00266C  EF3C  F013         	goto	i2u120_40
  4642  002670                     i2u120_41:
  4643  002670  6A10               	clrf	??_ReadMessageFromFifo^(0+1280),c
  4644  002672  2A10               	incf	??_ReadMessageFromFifo^(0+1280),f,c
  4645  002674  EF3D  F013         	goto	i2u121_48
  4646  002678                     i2u120_40:
  4647  002678  6A10               	clrf	??_ReadMessageFromFifo^(0+1280),c
  4648  00267A                     i2u121_48:
  4649  00267A  EE20 F004          	lfsr	2,4
  4650  00267E  500E               	movf	ReadMessageFromFifo@rxCanMsg^(0+1280),w,c
  4651  002680  26D9               	addwf	fsr2l,f,c
  4652  002682  500F               	movf	(ReadMessageFromFifo@rxCanMsg+1)^(0+1280),w,c
  4653  002684  22DA               	addwfc	fsr2h,f,c
  4654  002686  4610               	rlncf	??_ReadMessageFromFifo^(0+1280),f,c
  4655  002688  50DF               	movf	479,w,c
  4656  00268A  1810               	xorwf	??_ReadMessageFromFifo^(0+1280),w,c
  4657  00268C  0BFD               	andlw	-3
  4658  00268E  1810               	xorwf	??_ReadMessageFromFifo^(0+1280),w,c
  4659  002690  6EDF               	movwf	479,c
  4660  002692                     
  4661                           ;mcc_generated_files/can1.c: 356:     rxCanMsg->field.brs = (status & (1UL << (6U))) ? C
      +                          AN_BRS_MODE : CAN_NON_BRS_MODE;
  4662  002692  BC17               	btfsc	ReadMessageFromFifo@status^(0+1280),6,c
  4663  002694  EF4E  F013         	goto	i2u122_41
  4664  002698  EF52  F013         	goto	i2u122_40
  4665  00269C                     i2u122_41:
  4666  00269C  6A10               	clrf	??_ReadMessageFromFifo^(0+1280),c
  4667  00269E  2A10               	incf	??_ReadMessageFromFifo^(0+1280),f,c
  4668  0026A0  EF53  F013         	goto	i2u123_48
  4669  0026A4                     i2u122_40:
  4670  0026A4  6A10               	clrf	??_ReadMessageFromFifo^(0+1280),c
  4671  0026A6                     i2u123_48:
  4672  0026A6  EE20 F004          	lfsr	2,4
  4673  0026AA  500E               	movf	ReadMessageFromFifo@rxCanMsg^(0+1280),w,c
  4674  0026AC  26D9               	addwf	fsr2l,f,c
  4675  0026AE  500F               	movf	(ReadMessageFromFifo@rxCanMsg+1)^(0+1280),w,c
  4676  0026B0  22DA               	addwfc	fsr2h,f,c
  4677  0026B2  3210               	rrcf	??_ReadMessageFromFifo^(0+1280),f,c
  4678  0026B4  3210               	rrcf	??_ReadMessageFromFifo^(0+1280),f,c
  4679  0026B6  50DF               	movf	479,w,c
  4680  0026B8  1810               	xorwf	??_ReadMessageFromFifo^(0+1280),w,c
  4681  0026BA  0B7F               	andlw	-129
  4682  0026BC  1810               	xorwf	??_ReadMessageFromFifo^(0+1280),w,c
  4683  0026BE  6EDF               	movwf	479,c
  4684  0026C0                     
  4685                           ;mcc_generated_files/can1.c: 357:     rxCanMsg->field.formatType = (status & (1UL << (7U
      +                          ))) ? CAN_FRAME_EXT : CAN_FRAME_STD;
  4686  0026C0  BE17               	btfsc	ReadMessageFromFifo@status^(0+1280),7,c
  4687  0026C2  EF65  F013         	goto	i2u124_41
  4688  0026C6  EF69  F013         	goto	i2u124_40
  4689  0026CA                     i2u124_41:
  4690  0026CA  6A10               	clrf	??_ReadMessageFromFifo^(0+1280),c
  4691  0026CC  2A10               	incf	??_ReadMessageFromFifo^(0+1280),f,c
  4692  0026CE  EF6A  F013         	goto	i2u125_48
  4693  0026D2                     i2u124_40:
  4694  0026D2  6A10               	clrf	??_ReadMessageFromFifo^(0+1280),c
  4695  0026D4                     i2u125_48:
  4696  0026D4  EE20 F004          	lfsr	2,4
  4697  0026D8  500E               	movf	ReadMessageFromFifo@rxCanMsg^(0+1280),w,c
  4698  0026DA  26D9               	addwf	fsr2l,f,c
  4699  0026DC  500F               	movf	(ReadMessageFromFifo@rxCanMsg+1)^(0+1280),w,c
  4700  0026DE  22DA               	addwfc	fsr2h,f,c
  4701  0026E0  3A10               	swapf	??_ReadMessageFromFifo^(0+1280),f,c
  4702  0026E2  4610               	rlncf	??_ReadMessageFromFifo^(0+1280),f,c
  4703  0026E4  4610               	rlncf	??_ReadMessageFromFifo^(0+1280),f,c
  4704  0026E6  50DF               	movf	479,w,c
  4705  0026E8  1810               	xorwf	??_ReadMessageFromFifo^(0+1280),w,c
  4706  0026EA  0BBF               	andlw	-65
  4707  0026EC  1810               	xorwf	??_ReadMessageFromFifo^(0+1280),w,c
  4708  0026EE  6EDF               	movwf	479,c
  4709  0026F0                     
  4710                           ;mcc_generated_files/can1.c: 359:     msgId = rxFifoObj[1] & (0x07U);
  4711  0026F0  EE20 F001          	lfsr	2,1
  4712  0026F4  500C               	movf	ReadMessageFromFifo@rxFifoObj^(0+1280),w,c
  4713  0026F6  26D9               	addwf	fsr2l,f,c
  4714  0026F8  500D               	movf	(ReadMessageFromFifo@rxFifoObj+1)^(0+1280),w,c
  4715  0026FA  22DA               	addwfc	fsr2h,f,c
  4716  0026FC  50DF               	movf	indf2,w,c
  4717  0026FE  6E10               	movwf	??_ReadMessageFromFifo^(0+1280),c
  4718  002700  0E07               	movlw	7
  4719  002702  1610               	andwf	??_ReadMessageFromFifo^(0+1280),f,c
  4720  002704  5010               	movf	??_ReadMessageFromFifo^(0+1280),w,c
  4721  002706  6E13               	movwf	ReadMessageFromFifo@msgId^(0+1280),c
  4722  002708  6A14               	clrf	(ReadMessageFromFifo@msgId+1)^(0+1280),c
  4723  00270A  6A15               	clrf	(ReadMessageFromFifo@msgId+2)^(0+1280),c
  4724  00270C  6A16               	clrf	(ReadMessageFromFifo@msgId+3)^(0+1280),c
  4725  00270E                     
  4726                           ;mcc_generated_files/can1.c: 360:     msgId <<= (8U);
  4727  00270E  C515  F516         	movff	ReadMessageFromFifo@msgId+2,ReadMessageFromFifo@msgId+3
  4728  002712  C514  F515         	movff	ReadMessageFromFifo@msgId+1,ReadMessageFromFifo@msgId+2
  4729  002716  C513  F514         	movff	ReadMessageFromFifo@msgId,ReadMessageFromFifo@msgId+1
  4730  00271A  6A13               	clrf	ReadMessageFromFifo@msgId^(0+1280),c
  4731  00271C                     
  4732                           ;mcc_generated_files/can1.c: 361:     msgId |= rxFifoObj[0];
  4733  00271C  0061  F430  F4D9   	movff	ReadMessageFromFifo@rxFifoObj,fsr2l
  4734  002722  0061  F434  F4DA   	movff	ReadMessageFromFifo@rxFifoObj+1,fsr2h
  4735  002728  50DF               	movf	indf2,w,c
  4736  00272A  6E10               	movwf	??_ReadMessageFromFifo^(0+1280),c
  4737  00272C  5010               	movf	??_ReadMessageFromFifo^(0+1280),w,c
  4738  00272E  1213               	iorwf	ReadMessageFromFifo@msgId^(0+1280),f,c
  4739  002730                     
  4740                           ;mcc_generated_files/can1.c: 362:     if (CAN_FRAME_EXT == rxCanMsg->field.idType)
  4741  002730  EE20 F004          	lfsr	2,4
  4742  002734  500E               	movf	ReadMessageFromFifo@rxCanMsg^(0+1280),w,c
  4743  002736  26D9               	addwf	fsr2l,f,c
  4744  002738  500F               	movf	(ReadMessageFromFifo@rxCanMsg+1)^(0+1280),w,c
  4745  00273A  22DA               	addwfc	fsr2h,f,c
  4746  00273C  A0DF               	btfss	indf2,0,c
  4747  00273E  EFA3  F013         	goto	i2u126_41
  4748  002742  EFA5  F013         	goto	i2u126_40
  4749  002746                     i2u126_41:
  4750  002746  EFE6  F013         	goto	i2l2531
  4751  00274A                     i2u126_40:
  4752  00274A                     
  4753                           ;mcc_generated_files/can1.c: 363:     {;mcc_generated_files/can1.c: 364:         msgId <
      +                          <= (5U);
  4754  00274A  0E05               	movlw	5
  4755  00274C                     i2u127_45:
  4756  00274C  90D8               	bcf	status,0,c
  4757  00274E  3613               	rlcf	ReadMessageFromFifo@msgId^(0+1280),f,c
  4758  002750  3614               	rlcf	(ReadMessageFromFifo@msgId+1)^(0+1280),f,c
  4759  002752  3615               	rlcf	(ReadMessageFromFifo@msgId+2)^(0+1280),f,c
  4760  002754  3616               	rlcf	(ReadMessageFromFifo@msgId+3)^(0+1280),f,c
  4761  002756  2EE8               	decfsz	wreg,f,c
  4762  002758  EFA6  F013         	goto	i2u127_45
  4763  00275C                     
  4764                           ;mcc_generated_files/can1.c: 365:         msgId |= (rxFifoObj[3] & (0x1FU));
  4765  00275C  EE20 F003          	lfsr	2,3
  4766  002760  500C               	movf	ReadMessageFromFifo@rxFifoObj^(0+1280),w,c
  4767  002762  26D9               	addwf	fsr2l,f,c
  4768  002764  500D               	movf	(ReadMessageFromFifo@rxFifoObj+1)^(0+1280),w,c
  4769  002766  22DA               	addwfc	fsr2h,f,c
  4770  002768  50DF               	movf	indf2,w,c
  4771  00276A  6E10               	movwf	??_ReadMessageFromFifo^(0+1280),c
  4772  00276C  0E1F               	movlw	31
  4773  00276E  1610               	andwf	??_ReadMessageFromFifo^(0+1280),f,c
  4774  002770  5010               	movf	??_ReadMessageFromFifo^(0+1280),w,c
  4775  002772  1213               	iorwf	ReadMessageFromFifo@msgId^(0+1280),f,c
  4776  002774                     
  4777                           ;mcc_generated_files/can1.c: 366:         msgId <<= (8U);
  4778  002774  C515  F516         	movff	ReadMessageFromFifo@msgId+2,ReadMessageFromFifo@msgId+3
  4779  002778  C514  F515         	movff	ReadMessageFromFifo@msgId+1,ReadMessageFromFifo@msgId+2
  4780  00277C  C513  F514         	movff	ReadMessageFromFifo@msgId,ReadMessageFromFifo@msgId+1
  4781  002780  6A13               	clrf	ReadMessageFromFifo@msgId^(0+1280),c
  4782  002782                     
  4783                           ;mcc_generated_files/can1.c: 367:         msgId |= rxFifoObj[2];
  4784  002782  EE20 F002          	lfsr	2,2
  4785  002786  500C               	movf	ReadMessageFromFifo@rxFifoObj^(0+1280),w,c
  4786  002788  26D9               	addwf	fsr2l,f,c
  4787  00278A  500D               	movf	(ReadMessageFromFifo@rxFifoObj+1)^(0+1280),w,c
  4788  00278C  22DA               	addwfc	fsr2h,f,c
  4789  00278E  50DF               	movf	indf2,w,c
  4790  002790  6E10               	movwf	??_ReadMessageFromFifo^(0+1280),c
  4791  002792  5010               	movf	??_ReadMessageFromFifo^(0+1280),w,c
  4792  002794  1213               	iorwf	ReadMessageFromFifo@msgId^(0+1280),f,c
  4793  002796                     
  4794                           ;mcc_generated_files/can1.c: 368:         msgId <<= (5U);
  4795  002796  0E05               	movlw	5
  4796  002798                     i2u128_45:
  4797  002798  90D8               	bcf	status,0,c
  4798  00279A  3613               	rlcf	ReadMessageFromFifo@msgId^(0+1280),f,c
  4799  00279C  3614               	rlcf	(ReadMessageFromFifo@msgId+1)^(0+1280),f,c
  4800  00279E  3615               	rlcf	(ReadMessageFromFifo@msgId+2)^(0+1280),f,c
  4801  0027A0  3616               	rlcf	(ReadMessageFromFifo@msgId+3)^(0+1280),f,c
  4802  0027A2  2EE8               	decfsz	wreg,f,c
  4803  0027A4  EFCC  F013         	goto	i2u128_45
  4804  0027A8                     
  4805                           ;mcc_generated_files/can1.c: 369:         msgId |= (rxFifoObj[1] & (0xF8U)) >> (3U);
  4806  0027A8  EE20 F001          	lfsr	2,1
  4807  0027AC  500C               	movf	ReadMessageFromFifo@rxFifoObj^(0+1280),w,c
  4808  0027AE  26D9               	addwf	fsr2l,f,c
  4809  0027B0  500D               	movf	(ReadMessageFromFifo@rxFifoObj+1)^(0+1280),w,c
  4810  0027B2  22DA               	addwfc	fsr2h,f,c
  4811  0027B4  50DF               	movf	indf2,w,c
  4812  0027B6  6E10               	movwf	??_ReadMessageFromFifo^(0+1280),c
  4813  0027B8  90D8               	bcf	status,0,c
  4814  0027BA  3210               	rrcf	??_ReadMessageFromFifo^(0+1280),f,c
  4815  0027BC  90D8               	bcf	status,0,c
  4816  0027BE  3210               	rrcf	??_ReadMessageFromFifo^(0+1280),f,c
  4817  0027C0  90D8               	bcf	status,0,c
  4818  0027C2  3210               	rrcf	??_ReadMessageFromFifo^(0+1280),f,c
  4819  0027C4  0E1F               	movlw	31
  4820  0027C6  1610               	andwf	??_ReadMessageFromFifo^(0+1280),f,c
  4821  0027C8  5010               	movf	??_ReadMessageFromFifo^(0+1280),w,c
  4822  0027CA  1213               	iorwf	ReadMessageFromFifo@msgId^(0+1280),f,c
  4823  0027CC                     i2l2531:
  4824                           
  4825                           ;mcc_generated_files/can1.c: 371:     rxCanMsg->msgId = msgId;
  4826  0027CC  0061  F438  F4D9   	movff	ReadMessageFromFifo@rxCanMsg,fsr2l
  4827  0027D2  0061  F43C  F4DA   	movff	ReadMessageFromFifo@rxCanMsg+1,fsr2h
  4828  0027D8  0061  F44C  F4DE   	movff	ReadMessageFromFifo@msgId,postinc2
  4829  0027DE  0061  F450  F4DE   	movff	ReadMessageFromFifo@msgId+1,postinc2
  4830  0027E4  0061  F454  F4DE   	movff	ReadMessageFromFifo@msgId+2,postinc2
  4831  0027EA  0061  F458  F4DE   	movff	ReadMessageFromFifo@msgId+3,postinc2
  4832  0027F0                     
  4833                           ;mcc_generated_files/can1.c: 373:     memcpy(rxMsgData, rxFifoObj + payloadOffsetBytes, 
      +                          (DLC_BYTES[(rxCanMsg->field.dlc)]));
  4834  0027F0  0E6E               	movlw	low _rxMsgData
  4835  0027F2  6E01               	movwf	memcpy@d1^(0+1280),c
  4836  0027F4  0E05               	movlw	high _rxMsgData
  4837  0027F6  6E02               	movwf	(memcpy@d1+1)^(0+1280),c
  4838  0027F8  0E08               	movlw	8
  4839  0027FA  240C               	addwf	ReadMessageFromFifo@rxFifoObj^(0+1280),w,c
  4840  0027FC  6E03               	movwf	memcpy@s1^(0+1280),c
  4841  0027FE  0E00               	movlw	0
  4842  002800  200D               	addwfc	(ReadMessageFromFifo@rxFifoObj+1)^(0+1280),w,c
  4843  002802  6E04               	movwf	(memcpy@s1+1)^(0+1280),c
  4844  002804  EE20 F004          	lfsr	2,4
  4845  002808  500E               	movf	ReadMessageFromFifo@rxCanMsg^(0+1280),w,c
  4846  00280A  26D9               	addwf	fsr2l,f,c
  4847  00280C  500F               	movf	(ReadMessageFromFifo@rxCanMsg+1)^(0+1280),w,c
  4848  00280E  22DA               	addwfc	fsr2h,f,c
  4849  002810  30DF               	rrcf	479,w,c
  4850  002812  32E8               	rrcf	wreg,f,c
  4851  002814  0B0F               	andlw	15
  4852  002816  6E10               	movwf	??_ReadMessageFromFifo^(0+1280),c
  4853  002818  6A11               	clrf	(??_ReadMessageFromFifo+1)^(0+1280),c
  4854  00281A  0E01               	movlw	low _DLC_BYTES
  4855  00281C  2410               	addwf	??_ReadMessageFromFifo^(0+1280),w,c
  4856  00281E  6EF6               	movwf	tblptrl,c
  4857  002820  0E26               	movlw	high _DLC_BYTES
  4858  002822  2011               	addwfc	(??_ReadMessageFromFifo+1)^(0+1280),w,c
  4859  002824  6EF7               	movwf	tblptrh,c
  4860  002826                     	if	1	;There are 3 active tblptr bytes
  4861  002826  6AF8               	clrf	tblptru,c
  4862  002828  0E00               	movlw	low (__mediumconst shr (0+16))
  4863  00282A  22F8               	addwfc	tblptru,f,c
  4864  00282C                     	endif
  4865  00282C  0008               	tblrd		*
  4866  00282E  50F5               	movf	tablat,w,c
  4867  002830  6E05               	movwf	memcpy@n^(0+1280),c
  4868  002832  6A06               	clrf	(memcpy@n+1)^(0+1280),c
  4869  002834  EC20  F018         	call	_memcpy	;wreg free
  4870  002838                     
  4871                           ;mcc_generated_files/can1.c: 374:     rxCanMsg->data = rxMsgData;
  4872  002838  EE20 F005          	lfsr	2,5
  4873  00283C  500E               	movf	ReadMessageFromFifo@rxCanMsg^(0+1280),w,c
  4874  00283E  26D9               	addwf	fsr2l,f,c
  4875  002840  500F               	movf	(ReadMessageFromFifo@rxCanMsg+1)^(0+1280),w,c
  4876  002842  22DA               	addwfc	fsr2h,f,c
  4877  002844  0E6E               	movlw	low _rxMsgData
  4878  002846  6EDE               	movwf	postinc2,c
  4879  002848  0E05               	movlw	high _rxMsgData
  4880  00284A  6EDD               	movwf	postdec2,c
  4881  00284C  0012               	return		;funcret
  4882  00284E                     __end_of_ReadMessageFromFifo:
  4883                           	callstack 0
  4884                           
  4885 ;; *************** function _memcpy *****************
  4886 ;; Defined at:
  4887 ;;		line 4 in file "C:\Program Files\Microchip\xc8\v2.30\pic\sources\c99\common\memcpy.c"
  4888 ;; Parameters:    Size  Location     Type
  4889 ;;  d1              2    0[COMRAM] PTR void 
  4890 ;;		 -> RAM(9727), rxMsgData(8), 
  4891 ;;  s1              2    2[COMRAM] PTR const void 
  4892 ;;		 -> CANDATAdata(8), RAM(9727), rxMsgData(8), 
  4893 ;;  n               2    4[COMRAM] unsigned int 
  4894 ;; Auto vars:     Size  Location     Type
  4895 ;;  s               2    8[COMRAM] PTR const unsigned char 
  4896 ;;		 -> CANDATAdata(8), RAM(9727), rxMsgData(8), 
  4897 ;;  d               2    6[COMRAM] PTR unsigned char 
  4898 ;;		 -> RAM(9727), rxMsgData(8), 
  4899 ;;  tmp             1   10[COMRAM] unsigned char 
  4900 ;; Return value:  Size  Location     Type
  4901 ;;                  2    0[COMRAM] PTR void 
  4902 ;; Registers used:
  4903 ;;		wreg, fsr2l, fsr2h, status,2, status,0
  4904 ;; Tracked objects:
  4905 ;;		On entry : 0/0
  4906 ;;		On exit  : 0/0
  4907 ;;		Unchanged: 0/0
  4908 ;; Data sizes:     COMRAM   BANK5   BANK6   BANK7   BANK8   BANK9  BANK10  BANK11  BANK12  BANK13  BANK14  BANK15  BANK1
      +6  BANK17  BANK18  BANK19  BANK20  BANK21  BANK22  BANK23  BANK24  BANK25  BANK26  BANK27  BANK28  BANK29  BANK30  BANK3
      +1  BANK32  BANK33  BANK34  BANK35  BANK36  BANK37
  4909 ;;      Params:         6       0       0       0       0       0       0       0       0       0       0       0       
      +0       0       0       0       0       0       0       0       0       0       0       0       0       0       0       
      +0       0       0       0       0       0       0
  4910 ;;      Locals:         5       0       0       0       0       0       0       0       0       0       0       0       
      +0       0       0       0       0       0       0       0       0       0       0       0       0       0       0       
      +0       0       0       0       0       0       0
  4911 ;;      Temps:          0       0       0       0       0       0       0       0       0       0       0       0       
      +0       0       0       0       0       0       0       0       0       0       0       0       0       0       0       
      +0       0       0       0       0       0       0
  4912 ;;      Totals:        11       0       0       0       0       0       0       0       0       0       0       0       
      +0       0       0       0       0       0       0       0       0       0       0       0       0       0       0       
      +0       0       0       0       0       0       0
  4913 ;;Total ram usage:       11 bytes
  4914 ;; Hardware stack levels used:    1
  4915 ;; This function calls:
  4916 ;;		Nothing
  4917 ;; This function is called by:
  4918 ;;		_ReadMessageFromFifo
  4919 ;;		_WriteMessageToFifo
  4920 ;; This function uses a non-reentrant model
  4921 ;;
  4922                           
  4923                           	psect	text52
  4924  003040                     __ptext52:
  4925                           	callstack 0
  4926  003040                     _memcpy:
  4927                           	callstack 116
  4928  003040  C503  F509         	movff	memcpy@s1,memcpy@s
  4929  003044  C504  F50A         	movff	memcpy@s1+1,memcpy@s+1
  4930  003048  C501  F507         	movff	memcpy@d1,memcpy@d
  4931  00304C  C502  F508         	movff	memcpy@d1+1,memcpy@d+1
  4932  003050  EF3F  F018         	goto	i2l2487
  4933  003054                     i2l2479:
  4934  003054  0061  F424  F4D9   	movff	memcpy@s,fsr2l
  4935  00305A  0061  F428  F4DA   	movff	memcpy@s+1,fsr2h
  4936  003060  50DF               	movf	indf2,w,c
  4937  003062  6E0B               	movwf	memcpy@tmp^(0+1280),c
  4938  003064  4A09               	infsnz	memcpy@s^(0+1280),f,c
  4939  003066  2A0A               	incf	(memcpy@s+1)^(0+1280),f,c
  4940  003068  0061  F41C  F4D9   	movff	memcpy@d,fsr2l
  4941  00306E  0061  F420  F4DA   	movff	memcpy@d+1,fsr2h
  4942  003074  0061  F42C  F4DF   	movff	memcpy@tmp,indf2
  4943  00307A  4A07               	infsnz	memcpy@d^(0+1280),f,c
  4944  00307C  2A08               	incf	(memcpy@d+1)^(0+1280),f,c
  4945  00307E                     i2l2487:
  4946  00307E  0605               	decf	memcpy@n^(0+1280),f,c
  4947  003080  A0D8               	btfss	status,0,c
  4948  003082  0606               	decf	(memcpy@n+1)^(0+1280),f,c
  4949  003084  2805               	incf	memcpy@n^(0+1280),w,c
  4950  003086  E106               	bnz	i2u117_41
  4951  003088  2806               	incf	(memcpy@n+1)^(0+1280),w,c
  4952  00308A  A4D8               	btfss	status,2,c
  4953  00308C  EF4A  F018         	goto	i2u117_41
  4954  003090  EF4C  F018         	goto	i2u117_40
  4955  003094                     i2u117_41:
  4956  003094  EF2A  F018         	goto	i2l2479
  4957  003098                     i2u117_40:
  4958  003098  0012               	return		;funcret
  4959  00309A                     __end_of_memcpy:
  4960                           	callstack 0
  4961                           
  4962 ;; *************** function _GetRxFifoStatus *****************
  4963 ;; Defined at:
  4964 ;;		line 338 in file "mcc_generated_files/can1.c"
  4965 ;; Parameters:    Size  Location     Type
  4966 ;;  validChannel    1    wreg     unsigned char 
  4967 ;; Auto vars:     Size  Location     Type
  4968 ;;  validChannel    1    0[COMRAM] unsigned char 
  4969 ;; Return value:  Size  Location     Type
  4970 ;;                  1    wreg      enum E22534
  4971 ;; Registers used:
  4972 ;;		wreg, fsr2l, fsr2h, status,2, status,0, prodl, prodh
  4973 ;; Tracked objects:
  4974 ;;		On entry : 0/0
  4975 ;;		On exit  : 0/0
  4976 ;;		Unchanged: 0/0
  4977 ;; Data sizes:     COMRAM   BANK5   BANK6   BANK7   BANK8   BANK9  BANK10  BANK11  BANK12  BANK13  BANK14  BANK15  BANK1
      +6  BANK17  BANK18  BANK19  BANK20  BANK21  BANK22  BANK23  BANK24  BANK25  BANK26  BANK27  BANK28  BANK29  BANK30  BANK3
      +1  BANK32  BANK33  BANK34  BANK35  BANK36  BANK37
  4978 ;;      Params:         0       0       0       0       0       0       0       0       0       0       0       0       
      +0       0       0       0       0       0       0       0       0       0       0       0       0       0       0       
      +0       0       0       0       0       0       0
  4979 ;;      Locals:         1       0       0       0       0       0       0       0       0       0       0       0       
      +0       0       0       0       0       0       0       0       0       0       0       0       0       0       0       
      +0       0       0       0       0       0       0
  4980 ;;      Temps:          0       0       0       0       0       0       0       0       0       0       0       0       
      +0       0       0       0       0       0       0       0       0       0       0       0       0       0       0       
      +0       0       0       0       0       0       0
  4981 ;;      Totals:         1       0       0       0       0       0       0       0       0       0       0       0       
      +0       0       0       0       0       0       0       0       0       0       0       0       0       0       0       
      +0       0       0       0       0       0       0
  4982 ;;Total ram usage:        1 bytes
  4983 ;; Hardware stack levels used:    1
  4984 ;; This function calls:
  4985 ;;		Nothing
  4986 ;; This function is called by:
  4987 ;;		_Receive
  4988 ;;		_CAN1_ReceivedMessageCountGet
  4989 ;; This function uses a non-reentrant model
  4990 ;;
  4991                           
  4992                           	psect	text53
  4993  003494                     __ptext53:
  4994                           	callstack 0
  4995  003494                     _GetRxFifoStatus:
  4996                           	callstack 118
  4997                           
  4998                           ;incstack = 0
  4999                           ;GetRxFifoStatus@validChannel stored from wreg
  5000  003494  6E01               	movwf	GetRxFifoStatus@validChannel^(0+1280),c
  5001  003496                     
  5002                           ;mcc_generated_files/can1.c: 338: static CAN_RX_FIFO_STATUS GetRxFifoStatus(uint8_t vali
      +                          dChannel);mcc_generated_files/can1.c: 339: {;mcc_generated_files/can1.c: 340:     return
      +                           FIFO[validChannel].STAL & (CAN_RX_MSG_AVAILABLE | CAN_RX_MSG_OVERFLOW);
  5003  003496  5001               	movf	GetRxFifoStatus@validChannel^(0+1280),w,c
  5004  003498  0D0C               	mullw	12
  5005  00349A  0E54               	movlw	84
  5006  00349C  24F3               	addwf	243,w,c
  5007  00349E  6ED9               	movwf	fsr2l,c
  5008  0034A0  0E01               	movlw	1
  5009  0034A2  20F4               	addwfc	prodh,w,c
  5010  0034A4  6EDA               	movwf	fsr2h,c
  5011  0034A6  50DF               	movf	indf2,w,c
  5012  0034A8  0B09               	andlw	9
  5013  0034AA  0012               	return		;funcret
  5014  0034AC                     __end_of_GetRxFifoStatus:
  5015                           	callstack 0
  5016                           
  5017 ;; *************** function _GetRxFifoDepth *****************
  5018 ;; Defined at:
  5019 ;;		line 333 in file "mcc_generated_files/can1.c"
  5020 ;; Parameters:    Size  Location     Type
  5021 ;;  validChannel    1    wreg     unsigned char 
  5022 ;; Auto vars:     Size  Location     Type
  5023 ;;  validChannel    1    1[COMRAM] unsigned char 
  5024 ;; Return value:  Size  Location     Type
  5025 ;;                  1    wreg      unsigned char 
  5026 ;; Registers used:
  5027 ;;		wreg, fsr2l, fsr2h, status,2, status,0, prodl, prodh
  5028 ;; Tracked objects:
  5029 ;;		On entry : 0/0
  5030 ;;		On exit  : 0/0
  5031 ;;		Unchanged: 0/0
  5032 ;; Data sizes:     COMRAM   BANK5   BANK6   BANK7   BANK8   BANK9  BANK10  BANK11  BANK12  BANK13  BANK14  BANK15  BANK1
      +6  BANK17  BANK18  BANK19  BANK20  BANK21  BANK22  BANK23  BANK24  BANK25  BANK26  BANK27  BANK28  BANK29  BANK30  BANK3
      +1  BANK32  BANK33  BANK34  BANK35  BANK36  BANK37
  5033 ;;      Params:         0       0       0       0       0       0       0       0       0       0       0       0       
      +0       0       0       0       0       0       0       0       0       0       0       0       0       0       0       
      +0       0       0       0       0       0       0
  5034 ;;      Locals:         1       0       0       0       0       0       0       0       0       0       0       0       
      +0       0       0       0       0       0       0       0       0       0       0       0       0       0       0       
      +0       0       0       0       0       0       0
  5035 ;;      Temps:          1       0       0       0       0       0       0       0       0       0       0       0       
      +0       0       0       0       0       0       0       0       0       0       0       0       0       0       0       
      +0       0       0       0       0       0       0
  5036 ;;      Totals:         2       0       0       0       0       0       0       0       0       0       0       0       
      +0       0       0       0       0       0       0       0       0       0       0       0       0       0       0       
      +0       0       0       0       0       0       0
  5037 ;;Total ram usage:        2 bytes
  5038 ;; Hardware stack levels used:    1
  5039 ;; This function calls:
  5040 ;;		Nothing
  5041 ;; This function is called by:
  5042 ;;		_Receive
  5043 ;;		_CAN1_ReceivedMessageCountGet
  5044 ;; This function uses a non-reentrant model
  5045 ;;
  5046                           
  5047                           	psect	text54
  5048  00345E                     __ptext54:
  5049                           	callstack 0
  5050  00345E                     _GetRxFifoDepth:
  5051                           	callstack 118
  5052                           
  5053                           ;incstack = 0
  5054                           ;GetRxFifoDepth@validChannel stored from wreg
  5055  00345E  6E02               	movwf	GetRxFifoDepth@validChannel^(0+1280),c
  5056  003460                     
  5057                           ;mcc_generated_files/can1.c: 333: static uint8_t GetRxFifoDepth(uint8_t validChannel);mc
      +                          c_generated_files/can1.c: 334: {;mcc_generated_files/can1.c: 335:     return 1U + (FIFO[
      +                          validChannel].CONT & 0x1F);
  5058  003460  5002               	movf	GetRxFifoDepth@validChannel^(0+1280),w,c
  5059  003462  0D0C               	mullw	12
  5060  003464  0E53               	movlw	83
  5061  003466  24F3               	addwf	243,w,c
  5062  003468  6ED9               	movwf	fsr2l,c
  5063  00346A  0E01               	movlw	1
  5064  00346C  20F4               	addwfc	prodh,w,c
  5065  00346E  6EDA               	movwf	fsr2h,c
  5066  003470  50DF               	movf	indf2,w,c
  5067  003472  6E01               	movwf	??_GetRxFifoDepth^(0+1280),c
  5068  003474  0E1F               	movlw	31
  5069  003476  1601               	andwf	??_GetRxFifoDepth^(0+1280),f,c
  5070  003478  2801               	incf	??_GetRxFifoDepth^(0+1280),w,c
  5071  00347A  0012               	return		;funcret
  5072  00347C                     __end_of_GetRxFifoDepth:
  5073                           	callstack 0
  5074                           
  5075 ;; *************** function _CAN1_ISR *****************
  5076 ;; Defined at:
  5077 ;;		line 679 in file "mcc_generated_files/can1.c"
  5078 ;; Parameters:    Size  Location     Type
  5079 ;;		None
  5080 ;; Auto vars:     Size  Location     Type
  5081 ;;		None
  5082 ;; Return value:  Size  Location     Type
  5083 ;;                  1    wreg      void 
  5084 ;; Registers used:
  5085 ;;		wreg, pclath, tosl, cstack
  5086 ;; Tracked objects:
  5087 ;;		On entry : 0/0
  5088 ;;		On exit  : 0/0
  5089 ;;		Unchanged: 0/0
  5090 ;; Data sizes:     COMRAM   BANK5   BANK6   BANK7   BANK8   BANK9  BANK10  BANK11  BANK12  BANK13  BANK14  BANK15  BANK1
      +6  BANK17  BANK18  BANK19  BANK20  BANK21  BANK22  BANK23  BANK24  BANK25  BANK26  BANK27  BANK28  BANK29  BANK30  BANK3
      +1  BANK32  BANK33  BANK34  BANK35  BANK36  BANK37
  5091 ;;      Params:         0       0       0       0       0       0       0       0       0       0       0       0       
      +0       0       0       0       0       0       0       0       0       0       0       0       0       0       0       
      +0       0       0       0       0       0       0
  5092 ;;      Locals:         0       0       0       0       0       0       0       0       0       0       0       0       
      +0       0       0       0       0       0       0       0       0       0       0       0       0       0       0       
      +0       0       0       0       0       0       0
  5093 ;;      Temps:          0       0       0       0       0       0       0       0       0       0       0       0       
      +0       0       0       0       0       0       0       0       0       0       0       0       0       0       0       
      +0       0       0       0       0       0       0
  5094 ;;      Totals:         0       0       0       0       0       0       0       0       0       0       0       0       
      +0       0       0       0       0       0       0       0       0       0       0       0       0       0       0       
      +0       0       0       0       0       0       0
  5095 ;;Total ram usage:        0 bytes
  5096 ;; Hardware stack levels used:    1
  5097 ;; Hardware stack levels required when called:    1
  5098 ;; This function calls:
  5099 ;;		Absolute function
  5100 ;;		_DefaultBusErrorHandler
  5101 ;;		_DefaultBusWakeUpActivityHandler
  5102 ;;		_DefaultInvalidMessageHandler
  5103 ;;		_DefaultModeChangeHandler
  5104 ;;		_DefaultRxBufferOverflowHandler
  5105 ;;		_DefaultSystemErrorHandler
  5106 ;;		_DefaultTxAttemptHandler
  5107 ;; This function is called by:
  5108 ;;		_INTERRUPT_InterruptManager
  5109 ;; This function uses a non-reentrant model
  5110 ;;
  5111                           
  5112                           	psect	text55
  5113  00284E                     __ptext55:
  5114                           	callstack 0
  5115  00284E                     _CAN1_ISR:
  5116                           	callstack 121
  5117  00284E                     
  5118                           ;mcc_generated_files/can1.c: 681:     if (1 == C1INTHbits.IVMIF)
  5119  00284E  0101               	movlb	1	; () banked
  5120  002850  AF1D               	btfss	29,7,b	;volatile
  5121  002852  EF2D  F014         	goto	i2u193_41
  5122  002856  EF2F  F014         	goto	i2u193_40
  5123  00285A                     i2u193_41:
  5124  00285A  EF3E  F014         	goto	i2l3039
  5125  00285E                     i2u193_40:
  5126  00285E                     
  5127                           ; BSR set to: 1
  5128                           ;mcc_generated_files/can1.c: 682:     {;mcc_generated_files/can1.c: 683:         CAN1_In
      +                          validMessageHandler();
  5129  00285E  D802               	call	i2u194_48
  5130  002860  EF3C  F014         	goto	i2u194_49
  5131  002864                     i2u194_48:
  5132  002864  0005               	push	
  5133  002866  6EFA               	movwf	pclath,c
  5134  002868  0105               	movlb	5	; () banked
  5135  00286A  516C               	movf	_CAN1_InvalidMessageHandler& (0+255),w,b
  5136  00286C  6EFD               	movwf	tosl,c
  5137  00286E  516D               	movf	(_CAN1_InvalidMessageHandler+1)& (0+255),w,b
  5138  002870  6EFE               	movwf	tosh,c
  5139  002872  6AFF               	clrf	tosu,c
  5140  002874  50FA               	movf	pclath,w,c
  5141  002876  0012               	return		;indir
  5142  002878                     i2u194_49:
  5143  002878                     
  5144                           ;mcc_generated_files/can1.c: 684:         C1INTHbits.IVMIF = 0;
  5145  002878  0101               	movlb	1	; () banked
  5146  00287A  9F1D               	bcf	29,7,b	;volatile
  5147  00287C                     i2l3039:
  5148                           
  5149                           ; BSR set to: 1
  5150                           ;mcc_generated_files/can1.c: 687:     if (1 == C1INTHbits.WAKIF)
  5151  00287C  AD1D               	btfss	29,6,b	;volatile
  5152  00287E  EF43  F014         	goto	i2u195_41
  5153  002882  EF45  F014         	goto	i2u195_40
  5154  002886                     i2u195_41:
  5155  002886  EF54  F014         	goto	i2l3045
  5156  00288A                     i2u195_40:
  5157  00288A                     
  5158                           ; BSR set to: 1
  5159                           ;mcc_generated_files/can1.c: 688:     {;mcc_generated_files/can1.c: 689:         CAN1_Bu
      +                          sWakeUpActivityHandler();
  5160  00288A  D802               	call	i2u196_48
  5161  00288C  EF52  F014         	goto	i2u196_49
  5162  002890                     i2u196_48:
  5163  002890  0005               	push	
  5164  002892  6EFA               	movwf	pclath,c
  5165  002894  0105               	movlb	5	; () banked
  5166  002896  516A               	movf	_CAN1_BusWakeUpActivityHandler& (0+255),w,b
  5167  002898  6EFD               	movwf	tosl,c
  5168  00289A  516B               	movf	(_CAN1_BusWakeUpActivityHandler+1)& (0+255),w,b
  5169  00289C  6EFE               	movwf	tosh,c
  5170  00289E  6AFF               	clrf	tosu,c
  5171  0028A0  50FA               	movf	pclath,w,c
  5172  0028A2  0012               	return		;indir
  5173  0028A4                     i2u196_49:
  5174  0028A4                     
  5175                           ;mcc_generated_files/can1.c: 690:         C1INTHbits.WAKIF = 0;
  5176  0028A4  0101               	movlb	1	; () banked
  5177  0028A6  9D1D               	bcf	29,6,b	;volatile
  5178  0028A8                     i2l3045:
  5179                           
  5180                           ; BSR set to: 1
  5181                           ;mcc_generated_files/can1.c: 693:     if (1 == C1INTHbits.CERRIF)
  5182  0028A8  AB1D               	btfss	29,5,b	;volatile
  5183  0028AA  EF59  F014         	goto	i2u197_41
  5184  0028AE  EF5B  F014         	goto	i2u197_40
  5185  0028B2                     i2u197_41:
  5186  0028B2  EF6A  F014         	goto	i2l3051
  5187  0028B6                     i2u197_40:
  5188  0028B6                     
  5189                           ; BSR set to: 1
  5190                           ;mcc_generated_files/can1.c: 694:     {;mcc_generated_files/can1.c: 695:         CAN1_Bu
      +                          sErrorHandler();
  5191  0028B6  D802               	call	i2u198_48
  5192  0028B8  EF68  F014         	goto	i2u198_49
  5193  0028BC                     i2u198_48:
  5194  0028BC  0005               	push	
  5195  0028BE  6EFA               	movwf	pclath,c
  5196  0028C0  0105               	movlb	5	; () banked
  5197  0028C2  5168               	movf	_CAN1_BusErrorHandler& (0+255),w,b
  5198  0028C4  6EFD               	movwf	tosl,c
  5199  0028C6  5169               	movf	(_CAN1_BusErrorHandler+1)& (0+255),w,b
  5200  0028C8  6EFE               	movwf	tosh,c
  5201  0028CA  6AFF               	clrf	tosu,c
  5202  0028CC  50FA               	movf	pclath,w,c
  5203  0028CE  0012               	return		;indir
  5204  0028D0                     i2u198_49:
  5205  0028D0                     
  5206                           ;mcc_generated_files/can1.c: 696:         C1INTHbits.CERRIF = 0;
  5207  0028D0  0101               	movlb	1	; () banked
  5208  0028D2  9B1D               	bcf	29,5,b	;volatile
  5209  0028D4                     i2l3051:
  5210                           
  5211                           ; BSR set to: 1
  5212                           ;mcc_generated_files/can1.c: 699:     if (1 == C1INTLbits.MODIF)
  5213  0028D4  A71C               	btfss	28,3,b	;volatile
  5214  0028D6  EF6F  F014         	goto	i2u199_41
  5215  0028DA  EF71  F014         	goto	i2u199_40
  5216  0028DE                     i2u199_41:
  5217  0028DE  EF80  F014         	goto	i2l3057
  5218  0028E2                     i2u199_40:
  5219  0028E2                     
  5220                           ; BSR set to: 1
  5221                           ;mcc_generated_files/can1.c: 700:     {;mcc_generated_files/can1.c: 701:         CAN1_Mo
      +                          deChangeHandler();
  5222  0028E2  D802               	call	i2u200_48
  5223  0028E4  EF7E  F014         	goto	i2u200_49
  5224  0028E8                     i2u200_48:
  5225  0028E8  0005               	push	
  5226  0028EA  6EFA               	movwf	pclath,c
  5227  0028EC  0105               	movlb	5	; () banked
  5228  0028EE  5166               	movf	_CAN1_ModeChangeHandler& (0+255),w,b
  5229  0028F0  6EFD               	movwf	tosl,c
  5230  0028F2  5167               	movf	(_CAN1_ModeChangeHandler+1)& (0+255),w,b
  5231  0028F4  6EFE               	movwf	tosh,c
  5232  0028F6  6AFF               	clrf	tosu,c
  5233  0028F8  50FA               	movf	pclath,w,c
  5234  0028FA  0012               	return		;indir
  5235  0028FC                     i2u200_49:
  5236  0028FC                     
  5237                           ;mcc_generated_files/can1.c: 702:         C1INTLbits.MODIF = 0;
  5238  0028FC  0101               	movlb	1	; () banked
  5239  0028FE  971C               	bcf	28,3,b	;volatile
  5240  002900                     i2l3057:
  5241                           
  5242                           ; BSR set to: 1
  5243                           ;mcc_generated_files/can1.c: 705:     if (1 == C1INTHbits.SERRIF)
  5244  002900  A91D               	btfss	29,4,b	;volatile
  5245  002902  EF85  F014         	goto	i2u201_41
  5246  002906  EF87  F014         	goto	i2u201_40
  5247  00290A                     i2u201_41:
  5248  00290A  EF96  F014         	goto	i2l3063
  5249  00290E                     i2u201_40:
  5250  00290E                     
  5251                           ; BSR set to: 1
  5252                           ;mcc_generated_files/can1.c: 706:     {;mcc_generated_files/can1.c: 707:         CAN1_Sy
      +                          stemErrorHandler();
  5253  00290E  D802               	call	i2u202_48
  5254  002910  EF94  F014         	goto	i2u202_49
  5255  002914                     i2u202_48:
  5256  002914  0005               	push	
  5257  002916  6EFA               	movwf	pclath,c
  5258  002918  0105               	movlb	5	; () banked
  5259  00291A  5164               	movf	_CAN1_SystemErrorHandler& (0+255),w,b
  5260  00291C  6EFD               	movwf	tosl,c
  5261  00291E  5165               	movf	(_CAN1_SystemErrorHandler+1)& (0+255),w,b
  5262  002920  6EFE               	movwf	tosh,c
  5263  002922  6AFF               	clrf	tosu,c
  5264  002924  50FA               	movf	pclath,w,c
  5265  002926  0012               	return		;indir
  5266  002928                     i2u202_49:
  5267  002928                     
  5268                           ;mcc_generated_files/can1.c: 708:         C1INTHbits.SERRIF = 0;
  5269  002928  0101               	movlb	1	; () banked
  5270  00292A  991D               	bcf	29,4,b	;volatile
  5271  00292C                     i2l3063:
  5272                           
  5273                           ; BSR set to: 1
  5274                           ;mcc_generated_files/can1.c: 711:     if (1 == C1INTHbits.TXATIF)
  5275  00292C  A51D               	btfss	29,2,b	;volatile
  5276  00292E  EF9B  F014         	goto	i2u203_41
  5277  002932  EF9D  F014         	goto	i2u203_40
  5278  002936                     i2u203_41:
  5279  002936  EFB3  F014         	goto	i2l329
  5280  00293A                     i2u203_40:
  5281  00293A                     
  5282                           ; BSR set to: 1
  5283                           ;mcc_generated_files/can1.c: 712:     {;mcc_generated_files/can1.c: 713:         CAN1_Tx
      +                          AttemptHandler();
  5284  00293A  D802               	call	i2u204_48
  5285  00293C  EFAA  F014         	goto	i2u204_49
  5286  002940                     i2u204_48:
  5287  002940  0005               	push	
  5288  002942  6EFA               	movwf	pclath,c
  5289  002944  0105               	movlb	5	; () banked
  5290  002946  5162               	movf	_CAN1_TxAttemptHandler& (0+255),w,b
  5291  002948  6EFD               	movwf	tosl,c
  5292  00294A  5163               	movf	(_CAN1_TxAttemptHandler+1)& (0+255),w,b
  5293  00294C  6EFE               	movwf	tosh,c
  5294  00294E  6AFF               	clrf	tosu,c
  5295  002950  50FA               	movf	pclath,w,c
  5296  002952  0012               	return		;indir
  5297  002954                     i2u204_49:
  5298  002954                     
  5299                           ;mcc_generated_files/can1.c: 714:         if (1 == C1TXQSTALbits.TXATIF)
  5300  002954  0101               	movlb	1	; () banked
  5301  002956  A954               	btfss	84,4,b	;volatile
  5302  002958  EFB0  F014         	goto	i2u205_41
  5303  00295C  EFB2  F014         	goto	i2u205_40
  5304  002960                     i2u205_41:
  5305  002960  EFB3  F014         	goto	i2l329
  5306  002964                     i2u205_40:
  5307  002964                     
  5308                           ; BSR set to: 1
  5309                           ;mcc_generated_files/can1.c: 715:         {;mcc_generated_files/can1.c: 716:            
      +                           C1TXQSTALbits.TXATIF = 0;
  5310  002964  9954               	bcf	84,4,b	;volatile
  5311  002966                     i2l329:
  5312                           
  5313                           ; BSR set to: 1
  5314                           ;mcc_generated_files/can1.c: 720:     if (1 == C1INTHbits.RXOVIF)
  5315  002966  A71D               	btfss	29,3,b	;volatile
  5316  002968  EFB8  F014         	goto	i2u206_41
  5317  00296C  EFBA  F014         	goto	i2u206_40
  5318  002970                     i2u206_41:
  5319  002970  EFD0  F014         	goto	i2l331
  5320  002974                     i2u206_40:
  5321  002974                     
  5322                           ; BSR set to: 1
  5323                           ;mcc_generated_files/can1.c: 721:     {;mcc_generated_files/can1.c: 722:         CAN1_Rx
      +                          BufferOverflowHandler();
  5324  002974  D802               	call	i2u207_48
  5325  002976  EFC7  F014         	goto	i2u207_49
  5326  00297A                     i2u207_48:
  5327  00297A  0005               	push	
  5328  00297C  6EFA               	movwf	pclath,c
  5329  00297E  0105               	movlb	5	; () banked
  5330  002980  5160               	movf	_CAN1_RxBufferOverflowHandler& (0+255),w,b
  5331  002982  6EFD               	movwf	tosl,c
  5332  002984  5161               	movf	(_CAN1_RxBufferOverflowHandler+1)& (0+255),w,b
  5333  002986  6EFE               	movwf	tosh,c
  5334  002988  6AFF               	clrf	tosu,c
  5335  00298A  50FA               	movf	pclath,w,c
  5336  00298C  0012               	return		;indir
  5337  00298E                     i2u207_49:
  5338  00298E                     
  5339                           ;mcc_generated_files/can1.c: 723:         if (1 == C1FIFOSTA1Lbits.RXOVIF)
  5340  00298E  0101               	movlb	1	; () banked
  5341  002990  A760               	btfss	96,3,b	;volatile
  5342  002992  EFCD  F014         	goto	i2u208_41
  5343  002996  EFCF  F014         	goto	i2u208_40
  5344  00299A                     i2u208_41:
  5345  00299A  EFD0  F014         	goto	i2l331
  5346  00299E                     i2u208_40:
  5347  00299E                     
  5348                           ; BSR set to: 1
  5349                           ;mcc_generated_files/can1.c: 724:         {;mcc_generated_files/can1.c: 725:            
      +                           C1FIFOSTA1Lbits.RXOVIF = 0;
  5350  00299E  9760               	bcf	96,3,b	;volatile
  5351  0029A0                     i2l331:
  5352                           
  5353                           ; BSR set to: 1
  5354                           ;mcc_generated_files/can1.c: 729:     PIR0bits.CANIF = 0;
  5355  0029A0  9CAE               	bcf	174,6,c	;volatile
  5356  0029A2                     
  5357                           ; BSR set to: 1
  5358  0029A2  0012               	return		;funcret
  5359  0029A4                     __end_of_CAN1_ISR:
  5360                           	callstack 0
  5361                           
  5362 ;; *************** function _DefaultTxAttemptHandler *****************
  5363 ;; Defined at:
  5364 ;;		line 144 in file "mcc_generated_files/can1.c"
  5365 ;; Parameters:    Size  Location     Type
  5366 ;;		None
  5367 ;; Auto vars:     Size  Location     Type
  5368 ;;		None
  5369 ;; Return value:  Size  Location     Type
  5370 ;;                  1    wreg      void 
  5371 ;; Registers used:
  5372 ;;		None
  5373 ;; Tracked objects:
  5374 ;;		On entry : 0/0
  5375 ;;		On exit  : 0/0
  5376 ;;		Unchanged: 0/0
  5377 ;; Data sizes:     COMRAM   BANK5   BANK6   BANK7   BANK8   BANK9  BANK10  BANK11  BANK12  BANK13  BANK14  BANK15  BANK1
      +6  BANK17  BANK18  BANK19  BANK20  BANK21  BANK22  BANK23  BANK24  BANK25  BANK26  BANK27  BANK28  BANK29  BANK30  BANK3
      +1  BANK32  BANK33  BANK34  BANK35  BANK36  BANK37
  5378 ;;      Params:         0       0       0       0       0       0       0       0       0       0       0       0       
      +0       0       0       0       0       0       0       0       0       0       0       0       0       0       0       
      +0       0       0       0       0       0       0
  5379 ;;      Locals:         0       0       0       0       0       0       0       0       0       0       0       0       
      +0       0       0       0       0       0       0       0       0       0       0       0       0       0       0       
      +0       0       0       0       0       0       0
  5380 ;;      Temps:          0       0       0       0       0       0       0       0       0       0       0       0       
      +0       0       0       0       0       0       0       0       0       0       0       0       0       0       0       
      +0       0       0       0       0       0       0
  5381 ;;      Totals:         0       0       0       0       0       0       0       0       0       0       0       0       
      +0       0       0       0       0       0       0       0       0       0       0       0       0       0       0       
      +0       0       0       0       0       0       0
  5382 ;;Total ram usage:        0 bytes
  5383 ;; Hardware stack levels used:    1
  5384 ;; This function calls:
  5385 ;;		Nothing
  5386 ;; This function is called by:
  5387 ;;		_CAN1_ErrorNotificationInterruptEnable
  5388 ;;		_CAN1_ISR
  5389 ;; This function uses a non-reentrant model
  5390 ;;
  5391                           
  5392                           	psect	text56
  5393  003576                     __ptext56:
  5394                           	callstack 0
  5395  003576                     _DefaultTxAttemptHandler:
  5396                           	callstack 121
  5397  003576  0012               	return		;funcret
  5398  003578                     __end_of_DefaultTxAttemptHandler:
  5399                           	callstack 0
  5400                           
  5401 ;; *************** function _DefaultSystemErrorHandler *****************
  5402 ;; Defined at:
  5403 ;;		line 140 in file "mcc_generated_files/can1.c"
  5404 ;; Parameters:    Size  Location     Type
  5405 ;;		None
  5406 ;; Auto vars:     Size  Location     Type
  5407 ;;		None
  5408 ;; Return value:  Size  Location     Type
  5409 ;;                  1    wreg      void 
  5410 ;; Registers used:
  5411 ;;		None
  5412 ;; Tracked objects:
  5413 ;;		On entry : 0/0
  5414 ;;		On exit  : 0/0
  5415 ;;		Unchanged: 0/0
  5416 ;; Data sizes:     COMRAM   BANK5   BANK6   BANK7   BANK8   BANK9  BANK10  BANK11  BANK12  BANK13  BANK14  BANK15  BANK1
      +6  BANK17  BANK18  BANK19  BANK20  BANK21  BANK22  BANK23  BANK24  BANK25  BANK26  BANK27  BANK28  BANK29  BANK30  BANK3
      +1  BANK32  BANK33  BANK34  BANK35  BANK36  BANK37
  5417 ;;      Params:         0       0       0       0       0       0       0       0       0       0       0       0       
      +0       0       0       0       0       0       0       0       0       0       0       0       0       0       0       
      +0       0       0       0       0       0       0
  5418 ;;      Locals:         0       0       0       0       0       0       0       0       0       0       0       0       
      +0       0       0       0       0       0       0       0       0       0       0       0       0       0       0       
      +0       0       0       0       0       0       0
  5419 ;;      Temps:          0       0       0       0       0       0       0       0       0       0       0       0       
      +0       0       0       0       0       0       0       0       0       0       0       0       0       0       0       
      +0       0       0       0       0       0       0
  5420 ;;      Totals:         0       0       0       0       0       0       0       0       0       0       0       0       
      +0       0       0       0       0       0       0       0       0       0       0       0       0       0       0       
      +0       0       0       0       0       0       0
  5421 ;;Total ram usage:        0 bytes
  5422 ;; Hardware stack levels used:    1
  5423 ;; This function calls:
  5424 ;;		Nothing
  5425 ;; This function is called by:
  5426 ;;		_CAN1_ErrorNotificationInterruptEnable
  5427 ;;		_CAN1_ISR
  5428 ;; This function uses a non-reentrant model
  5429 ;;
  5430                           
  5431                           	psect	text57
  5432  003578                     __ptext57:
  5433                           	callstack 0
  5434  003578                     _DefaultSystemErrorHandler:
  5435                           	callstack 121
  5436  003578  0012               	return		;funcret
  5437  00357A                     __end_of_DefaultSystemErrorHandler:
  5438                           	callstack 0
  5439                           
  5440 ;; *************** function _DefaultRxBufferOverflowHandler *****************
  5441 ;; Defined at:
  5442 ;;		line 148 in file "mcc_generated_files/can1.c"
  5443 ;; Parameters:    Size  Location     Type
  5444 ;;		None
  5445 ;; Auto vars:     Size  Location     Type
  5446 ;;		None
  5447 ;; Return value:  Size  Location     Type
  5448 ;;                  1    wreg      void 
  5449 ;; Registers used:
  5450 ;;		None
  5451 ;; Tracked objects:
  5452 ;;		On entry : 0/0
  5453 ;;		On exit  : 0/0
  5454 ;;		Unchanged: 0/0
  5455 ;; Data sizes:     COMRAM   BANK5   BANK6   BANK7   BANK8   BANK9  BANK10  BANK11  BANK12  BANK13  BANK14  BANK15  BANK1
      +6  BANK17  BANK18  BANK19  BANK20  BANK21  BANK22  BANK23  BANK24  BANK25  BANK26  BANK27  BANK28  BANK29  BANK30  BANK3
      +1  BANK32  BANK33  BANK34  BANK35  BANK36  BANK37
  5456 ;;      Params:         0       0       0       0       0       0       0       0       0       0       0       0       
      +0       0       0       0       0       0       0       0       0       0       0       0       0       0       0       
      +0       0       0       0       0       0       0
  5457 ;;      Locals:         0       0       0       0       0       0       0       0       0       0       0       0       
      +0       0       0       0       0       0       0       0       0       0       0       0       0       0       0       
      +0       0       0       0       0       0       0
  5458 ;;      Temps:          0       0       0       0       0       0       0       0       0       0       0       0       
      +0       0       0       0       0       0       0       0       0       0       0       0       0       0       0       
      +0       0       0       0       0       0       0
  5459 ;;      Totals:         0       0       0       0       0       0       0       0       0       0       0       0       
      +0       0       0       0       0       0       0       0       0       0       0       0       0       0       0       
      +0       0       0       0       0       0       0
  5460 ;;Total ram usage:        0 bytes
  5461 ;; Hardware stack levels used:    1
  5462 ;; This function calls:
  5463 ;;		Nothing
  5464 ;; This function is called by:
  5465 ;;		_CAN1_ErrorNotificationInterruptEnable
  5466 ;;		_CAN1_ISR
  5467 ;; This function uses a non-reentrant model
  5468 ;;
  5469                           
  5470                           	psect	text58
  5471  00357A                     __ptext58:
  5472                           	callstack 0
  5473  00357A                     _DefaultRxBufferOverflowHandler:
  5474                           	callstack 121
  5475  00357A  0012               	return		;funcret
  5476  00357C                     __end_of_DefaultRxBufferOverflowHandler:
  5477                           	callstack 0
  5478                           
  5479 ;; *************** function _DefaultModeChangeHandler *****************
  5480 ;; Defined at:
  5481 ;;		line 136 in file "mcc_generated_files/can1.c"
  5482 ;; Parameters:    Size  Location     Type
  5483 ;;		None
  5484 ;; Auto vars:     Size  Location     Type
  5485 ;;		None
  5486 ;; Return value:  Size  Location     Type
  5487 ;;                  1    wreg      void 
  5488 ;; Registers used:
  5489 ;;		None
  5490 ;; Tracked objects:
  5491 ;;		On entry : 0/0
  5492 ;;		On exit  : 0/0
  5493 ;;		Unchanged: 0/0
  5494 ;; Data sizes:     COMRAM   BANK5   BANK6   BANK7   BANK8   BANK9  BANK10  BANK11  BANK12  BANK13  BANK14  BANK15  BANK1
      +6  BANK17  BANK18  BANK19  BANK20  BANK21  BANK22  BANK23  BANK24  BANK25  BANK26  BANK27  BANK28  BANK29  BANK30  BANK3
      +1  BANK32  BANK33  BANK34  BANK35  BANK36  BANK37
  5495 ;;      Params:         0       0       0       0       0       0       0       0       0       0       0       0       
      +0       0       0       0       0       0       0       0       0       0       0       0       0       0       0       
      +0       0       0       0       0       0       0
  5496 ;;      Locals:         0       0       0       0       0       0       0       0       0       0       0       0       
      +0       0       0       0       0       0       0       0       0       0       0       0       0       0       0       
      +0       0       0       0       0       0       0
  5497 ;;      Temps:          0       0       0       0       0       0       0       0       0       0       0       0       
      +0       0       0       0       0       0       0       0       0       0       0       0       0       0       0       
      +0       0       0       0       0       0       0
  5498 ;;      Totals:         0       0       0       0       0       0       0       0       0       0       0       0       
      +0       0       0       0       0       0       0       0       0       0       0       0       0       0       0       
      +0       0       0       0       0       0       0
  5499 ;;Total ram usage:        0 bytes
  5500 ;; Hardware stack levels used:    1
  5501 ;; This function calls:
  5502 ;;		Nothing
  5503 ;; This function is called by:
  5504 ;;		_CAN1_ErrorNotificationInterruptEnable
  5505 ;;		_CAN1_ISR
  5506 ;; This function uses a non-reentrant model
  5507 ;;
  5508                           
  5509                           	psect	text59
  5510  00357C                     __ptext59:
  5511                           	callstack 0
  5512  00357C                     _DefaultModeChangeHandler:
  5513                           	callstack 121
  5514  00357C  0012               	return		;funcret
  5515  00357E                     __end_of_DefaultModeChangeHandler:
  5516                           	callstack 0
  5517                           
  5518 ;; *************** function _DefaultInvalidMessageHandler *****************
  5519 ;; Defined at:
  5520 ;;		line 124 in file "mcc_generated_files/can1.c"
  5521 ;; Parameters:    Size  Location     Type
  5522 ;;		None
  5523 ;; Auto vars:     Size  Location     Type
  5524 ;;		None
  5525 ;; Return value:  Size  Location     Type
  5526 ;;                  1    wreg      void 
  5527 ;; Registers used:
  5528 ;;		None
  5529 ;; Tracked objects:
  5530 ;;		On entry : 0/0
  5531 ;;		On exit  : 0/0
  5532 ;;		Unchanged: 0/0
  5533 ;; Data sizes:     COMRAM   BANK5   BANK6   BANK7   BANK8   BANK9  BANK10  BANK11  BANK12  BANK13  BANK14  BANK15  BANK1
      +6  BANK17  BANK18  BANK19  BANK20  BANK21  BANK22  BANK23  BANK24  BANK25  BANK26  BANK27  BANK28  BANK29  BANK30  BANK3
      +1  BANK32  BANK33  BANK34  BANK35  BANK36  BANK37
  5534 ;;      Params:         0       0       0       0       0       0       0       0       0       0       0       0       
      +0       0       0       0       0       0       0       0       0       0       0       0       0       0       0       
      +0       0       0       0       0       0       0
  5535 ;;      Locals:         0       0       0       0       0       0       0       0       0       0       0       0       
      +0       0       0       0       0       0       0       0       0       0       0       0       0       0       0       
      +0       0       0       0       0       0       0
  5536 ;;      Temps:          0       0       0       0       0       0       0       0       0       0       0       0       
      +0       0       0       0       0       0       0       0       0       0       0       0       0       0       0       
      +0       0       0       0       0       0       0
  5537 ;;      Totals:         0       0       0       0       0       0       0       0       0       0       0       0       
      +0       0       0       0       0       0       0       0       0       0       0       0       0       0       0       
      +0       0       0       0       0       0       0
  5538 ;;Total ram usage:        0 bytes
  5539 ;; Hardware stack levels used:    1
  5540 ;; This function calls:
  5541 ;;		Nothing
  5542 ;; This function is called by:
  5543 ;;		_CAN1_ErrorNotificationInterruptEnable
  5544 ;;		_CAN1_ISR
  5545 ;; This function uses a non-reentrant model
  5546 ;;
  5547                           
  5548                           	psect	text60
  5549  00357E                     __ptext60:
  5550                           	callstack 0
  5551  00357E                     _DefaultInvalidMessageHandler:
  5552                           	callstack 121
  5553  00357E  0012               	return		;funcret
  5554  003580                     __end_of_DefaultInvalidMessageHandler:
  5555                           	callstack 0
  5556                           
  5557 ;; *************** function _DefaultBusWakeUpActivityHandler *****************
  5558 ;; Defined at:
  5559 ;;		line 128 in file "mcc_generated_files/can1.c"
  5560 ;; Parameters:    Size  Location     Type
  5561 ;;		None
  5562 ;; Auto vars:     Size  Location     Type
  5563 ;;		None
  5564 ;; Return value:  Size  Location     Type
  5565 ;;                  1    wreg      void 
  5566 ;; Registers used:
  5567 ;;		None
  5568 ;; Tracked objects:
  5569 ;;		On entry : 0/0
  5570 ;;		On exit  : 0/0
  5571 ;;		Unchanged: 0/0
  5572 ;; Data sizes:     COMRAM   BANK5   BANK6   BANK7   BANK8   BANK9  BANK10  BANK11  BANK12  BANK13  BANK14  BANK15  BANK1
      +6  BANK17  BANK18  BANK19  BANK20  BANK21  BANK22  BANK23  BANK24  BANK25  BANK26  BANK27  BANK28  BANK29  BANK30  BANK3
      +1  BANK32  BANK33  BANK34  BANK35  BANK36  BANK37
  5573 ;;      Params:         0       0       0       0       0       0       0       0       0       0       0       0       
      +0       0       0       0       0       0       0       0       0       0       0       0       0       0       0       
      +0       0       0       0       0       0       0
  5574 ;;      Locals:         0       0       0       0       0       0       0       0       0       0       0       0       
      +0       0       0       0       0       0       0       0       0       0       0       0       0       0       0       
      +0       0       0       0       0       0       0
  5575 ;;      Temps:          0       0       0       0       0       0       0       0       0       0       0       0       
      +0       0       0       0       0       0       0       0       0       0       0       0       0       0       0       
      +0       0       0       0       0       0       0
  5576 ;;      Totals:         0       0       0       0       0       0       0       0       0       0       0       0       
      +0       0       0       0       0       0       0       0       0       0       0       0       0       0       0       
      +0       0       0       0       0       0       0
  5577 ;;Total ram usage:        0 bytes
  5578 ;; Hardware stack levels used:    1
  5579 ;; This function calls:
  5580 ;;		Nothing
  5581 ;; This function is called by:
  5582 ;;		_CAN1_ErrorNotificationInterruptEnable
  5583 ;;		_CAN1_ISR
  5584 ;; This function uses a non-reentrant model
  5585 ;;
  5586                           
  5587                           	psect	text61
  5588  003580                     __ptext61:
  5589                           	callstack 0
  5590  003580                     _DefaultBusWakeUpActivityHandler:
  5591                           	callstack 121
  5592  003580  0012               	return		;funcret
  5593  003582                     __end_of_DefaultBusWakeUpActivityHandler:
  5594                           	callstack 0
  5595                           
  5596 ;; *************** function _DefaultBusErrorHandler *****************
  5597 ;; Defined at:
  5598 ;;		line 132 in file "mcc_generated_files/can1.c"
  5599 ;; Parameters:    Size  Location     Type
  5600 ;;		None
  5601 ;; Auto vars:     Size  Location     Type
  5602 ;;		None
  5603 ;; Return value:  Size  Location     Type
  5604 ;;                  1    wreg      void 
  5605 ;; Registers used:
  5606 ;;		None
  5607 ;; Tracked objects:
  5608 ;;		On entry : 0/0
  5609 ;;		On exit  : 0/0
  5610 ;;		Unchanged: 0/0
  5611 ;; Data sizes:     COMRAM   BANK5   BANK6   BANK7   BANK8   BANK9  BANK10  BANK11  BANK12  BANK13  BANK14  BANK15  BANK1
      +6  BANK17  BANK18  BANK19  BANK20  BANK21  BANK22  BANK23  BANK24  BANK25  BANK26  BANK27  BANK28  BANK29  BANK30  BANK3
      +1  BANK32  BANK33  BANK34  BANK35  BANK36  BANK37
  5612 ;;      Params:         0       0       0       0       0       0       0       0       0       0       0       0       
      +0       0       0       0       0       0       0       0       0       0       0       0       0       0       0       
      +0       0       0       0       0       0       0
  5613 ;;      Locals:         0       0       0       0       0       0       0       0       0       0       0       0       
      +0       0       0       0       0       0       0       0       0       0       0       0       0       0       0       
      +0       0       0       0       0       0       0
  5614 ;;      Temps:          0       0       0       0       0       0       0       0       0       0       0       0       
      +0       0       0       0       0       0       0       0       0       0       0       0       0       0       0       
      +0       0       0       0       0       0       0
  5615 ;;      Totals:         0       0       0       0       0       0       0       0       0       0       0       0       
      +0       0       0       0       0       0       0       0       0       0       0       0       0       0       0       
      +0       0       0       0       0       0       0
  5616 ;;Total ram usage:        0 bytes
  5617 ;; Hardware stack levels used:    1
  5618 ;; This function calls:
  5619 ;;		Nothing
  5620 ;; This function is called by:
  5621 ;;		_CAN1_ErrorNotificationInterruptEnable
  5622 ;;		_CAN1_ISR
  5623 ;; This function uses a non-reentrant model
  5624 ;;
  5625                           
  5626                           	psect	text62
  5627  003582                     __ptext62:
  5628                           	callstack 0
  5629  003582                     _DefaultBusErrorHandler:
  5630                           	callstack 121
  5631  003582  0012               	return		;funcret
  5632  003584                     __end_of_DefaultBusErrorHandler:
  5633                           	callstack 0
  5634                           
  5635                           ;
  5636                           ; Interrupt Vector Table @ 0x8
  5637                           ;
  5638                           
  5639                           	psect	ivt0x8
  5640  000008                     __pivt0x8:
  5641                           	callstack 0
  5642  000008                     ivt0x8_base:
  5643                           	callstack 0
  5644                           
  5645                           ; high-priority vector
  5646  000008  EF7A  F016         	goto	_INTERRUPT_InterruptManager
  5647  000018                     	org	16
  5648                           
  5649                           ; low-priority vector
  5650  000018  00FF               	reset	
  5651                           
  5652                           	psect	text63
  5653  000000                     __ptext63:
  5654                           	callstack 0
  5655  000000                     
  5656                           	psect	rparam
  5657  0000                     
  5658                           	psect	idloc
  5659                           
  5660                           ;Config register IDLOC0 @ 0x200000
  5661                           ;	unspecified, using default values
  5662  200000                     	org	2097152
  5663  200000  0FFF               	dw	4095
  5664                           
  5665                           ;Config register IDLOC1 @ 0x200002
  5666                           ;	unspecified, using default values
  5667  200002                     	org	2097154
  5668  200002  0FFF               	dw	4095
  5669                           
  5670                           ;Config register IDLOC2 @ 0x200004
  5671                           ;	unspecified, using default values
  5672  200004                     	org	2097156
  5673  200004  0FFF               	dw	4095
  5674                           
  5675                           ;Config register IDLOC3 @ 0x200006
  5676                           ;	unspecified, using default values
  5677  200006                     	org	2097158
  5678  200006  0FFF               	dw	4095
  5679                           
  5680                           ;Config register IDLOC4 @ 0x200008
  5681                           ;	unspecified, using default values
  5682  200008                     	org	2097160
  5683  200008  0FFF               	dw	4095
  5684                           
  5685                           ;Config register IDLOC5 @ 0x20000A
  5686                           ;	unspecified, using default values
  5687  20000A                     	org	2097162
  5688  20000A  0FFF               	dw	4095
  5689                           
  5690                           ;Config register IDLOC6 @ 0x20000C
  5691                           ;	unspecified, using default values
  5692  20000C                     	org	2097164
  5693  20000C  0FFF               	dw	4095
  5694                           
  5695                           ;Config register IDLOC7 @ 0x20000E
  5696                           ;	unspecified, using default values
  5697  20000E                     	org	2097166
  5698  20000E  0FFF               	dw	4095
  5699                           
  5700                           ;Config register IDLOC8 @ 0x200010
  5701                           ;	unspecified, using default values
  5702  200010                     	org	2097168
  5703  200010  0FFF               	dw	4095
  5704                           
  5705                           ;Config register IDLOC9 @ 0x200012
  5706                           ;	unspecified, using default values
  5707  200012                     	org	2097170
  5708  200012  0FFF               	dw	4095
  5709                           
  5710                           ;Config register IDLOC10 @ 0x200014
  5711                           ;	unspecified, using default values
  5712  200014                     	org	2097172
  5713  200014  0FFF               	dw	4095
  5714                           
  5715                           ;Config register IDLOC11 @ 0x200016
  5716                           ;	unspecified, using default values
  5717  200016                     	org	2097174
  5718  200016  0FFF               	dw	4095
  5719                           
  5720                           ;Config register IDLOC12 @ 0x200018
  5721                           ;	unspecified, using default values
  5722  200018                     	org	2097176
  5723  200018  0FFF               	dw	4095
  5724                           
  5725                           ;Config register IDLOC13 @ 0x20001A
  5726                           ;	unspecified, using default values
  5727  20001A                     	org	2097178
  5728  20001A  0FFF               	dw	4095
  5729                           
  5730                           ;Config register IDLOC14 @ 0x20001C
  5731                           ;	unspecified, using default values
  5732  20001C                     	org	2097180
  5733  20001C  0FFF               	dw	4095
  5734                           
  5735                           ;Config register IDLOC15 @ 0x20001E
  5736                           ;	unspecified, using default values
  5737  20001E                     	org	2097182
  5738  20001E  0FFF               	dw	4095
  5739                           
  5740                           	psect	config
  5741                           
  5742                           ;Config register CONFIG1 @ 0x300000
  5743                           ;	External Oscillator Selection
  5744                           ;	FEXTOSC = HS, HS (crystal oscillator) above 8 MHz
  5745                           ;	Reset Oscillator Selection
  5746                           ;	RSTOSC = EXTOSC, EXTOSC operating per FEXTOSC bits (device manufacturing default)
  5747  300000                     	org	3145728
  5748  300000  FA                 	db	250
  5749                           
  5750                           ;Config register CONFIG2 @ 0x300001
  5751                           ;	Clock out Enable bit
  5752                           ;	CLKOUTEN = OFF, CLKOUT function is disabled
  5753                           ;	PRLOCKED One-Way Set Enable bit
  5754                           ;	PR1WAY = ON, PRLOCKED bit can be cleared and set only once
  5755                           ;	Clock Switch Enable bit
  5756                           ;	CSWEN = ON, Writing to NOSC and NDIV is allowed
  5757                           ;	JTAG Enable bit
  5758                           ;	JTAGEN = OFF, Disable JTAG Boundary Scan mode, JTAG pins revert to user functions
  5759                           ;	Fail-Safe Clock Monitor Enable bit
  5760                           ;	FCMEN = ON, Fail-Safe Clock Monitor enabled
  5761                           ;	Fail-Safe Clock Monitor -Primary XTAL Enable bit
  5762                           ;	FCMENP = ON, FSCM timer will set FSCMP bit and OSFIF interrupt on Primary XTAL failure
  5763                           ;	Fail-Safe Clock Monitor -Secondary XTAL Enable bit
  5764                           ;	FCMENS = ON, FSCM timer will set FSCMS bit and OSFIF interrupt on Secondary XTAL failu
      +                          re
  5765  300001                     	org	3145729
  5766  300001  EF                 	db	239
  5767                           
  5768                           ;Config register CONFIG3 @ 0x300002
  5769                           ;	MCLR Enable bit
  5770                           ;	MCLRE = EXTMCLR, If LVP = 0, MCLR pin is MCLR; If LVP = 1, RE3 pin function is MCLR
  5771                           ;	Power-up timer selection bits
  5772                           ;	PWRTS = PWRT_OFF, PWRT is disabled
  5773                           ;	Multi-vector enable bit
  5774                           ;	MVECEN = OFF, Interrupt contoller does not use vector table to prioritze interrupts
  5775                           ;	IVTLOCK bit One-way set enable bit
  5776                           ;	IVT1WAY = ON, IVTLOCKED bit can be cleared and set only once
  5777                           ;	Low Power BOR Enable bit
  5778                           ;	LPBOREN = OFF, Low-Power BOR disabled
  5779                           ;	Brown-out Reset Enable bits
  5780                           ;	BOREN = SBORDIS, Brown-out Reset enabled , SBOREN bit is ignored
  5781  300002                     	org	3145730
  5782  300002  F7                 	db	247
  5783                           
  5784                           ;Config register CONFIG4 @ 0x300003
  5785                           ;	Brown-out Reset Voltage Selection bits
  5786                           ;	BORV = VBOR_1P9, Brown-out Reset Voltage (VBOR) set to 1.9V
  5787                           ;	ZCD Disable bit
  5788                           ;	ZCD = OFF, ZCD module is disabled. ZCD can be enabled by setting the ZCDSEN bit of ZCD
      +                          CON
  5789                           ;	PPSLOCK bit One-Way Set Enable bit
  5790                           ;	PPS1WAY = ON, PPSLOCKED bit can be cleared and set only once; PPS registers remain loc
      +                          ked after one clear/set cycle
  5791                           ;	Stack Full/Underflow Reset Enable bit
  5792                           ;	STVREN = ON, Stack full/underflow will cause Reset
  5793                           ;	Low Voltage Programming Enable bit
  5794                           ;	LVP = OFF, HV on MCLR/VPP must be used for programming
  5795                           ;	Extended Instruction Set Enable bit
  5796                           ;	XINST = OFF, Extended Instruction Set and Indexed Addressing Mode disabled
  5797  300003                     	org	3145731
  5798  300003  DF                 	db	223
  5799                           
  5800                           ;Config register CONFIG5 @ 0x300004
  5801                           ;	WDT Period selection bits
  5802                           ;	WDTCPS = WDTCPS_31, Divider ratio 1:65536; software control of WDTPS
  5803                           ;	WDT operating mode
  5804                           ;	WDTE = OFF, WDT Disabled; SWDTEN is ignored
  5805  300004                     	org	3145732
  5806  300004  9F                 	db	159
  5807                           
  5808                           ;Config register CONFIG6 @ 0x300005
  5809                           ;	WDT Window Select bits
  5810                           ;	WDTCWS = WDTCWS_7, window always open (100%); software control; keyed access not requi
      +                          red
  5811                           ;	WDT input clock selector
  5812                           ;	WDTCCS = SC, Software Control
  5813  300005                     	org	3145733
  5814  300005  FF                 	db	255
  5815                           
  5816                           ;Config register CONFIG7 @ 0x300006
  5817                           ;	Boot Block Size selection bits
  5818                           ;	BBSIZE = BBSIZE_512, Boot Block size is 512 words
  5819                           ;	Boot Block enable bit
  5820                           ;	BBEN = OFF, Boot block disabled
  5821                           ;	Storage Area Flash enable bit
  5822                           ;	SAFEN = OFF, SAF disabled
  5823  300006                     	org	3145734
  5824  300006  FF                 	db	255
  5825                           
  5826                           ;Config register CONFIG8 @ 0x300007
  5827                           ;	Boot Block Write Protection bit
  5828                           ;	WRTB = OFF, Boot Block not Write protected
  5829                           ;	Configuration Register Write Protection bit
  5830                           ;	WRTC = OFF, Configuration registers not Write protected
  5831                           ;	Data EEPROM Write Protection bit
  5832                           ;	WRTD = OFF, Data EEPROM not Write protected
  5833                           ;	SAF Write protection bit
  5834                           ;	WRTSAF = OFF, SAF not Write Protected
  5835                           ;	Application Block write protection bit
  5836                           ;	WRTAPP = OFF, Application Block not write protected
  5837  300007                     	org	3145735
  5838  300007  FF                 	db	255
  5839                           
  5840                           ;Config register CONFIG9 @ 0x300008
  5841                           ;	CRC on boot output pin selection
  5842                           ;	BOOTPINSEL = RC5, CRC on boot output pin is RC5
  5843                           ;	CRC on boot output pin enable bit
  5844                           ;	BPEN = OFF, CRC on boot output pin disabled
  5845                           ;	CRC on boot output pin open drain bit
  5846                           ;	ODCON = OFF, Pin drives both high-going and low-going signals
  5847  300008                     	org	3145736
  5848  300008  FF                 	db	255
  5849                           
  5850                           ;Config register CONFIG10 @ 0x300009
  5851                           ;	PFM and Data EEPROM Code Protection bit
  5852                           ;	CP = OFF, PFM and Data EEPROM code protection disabled
  5853  300009                     	org	3145737
  5854  300009  FF                 	db	255
  5855                           
  5856                           ;Config register CONFIG11 @ 0x30000A
  5857                           ;	CRC on boot scan enable for boot area
  5858                           ;	BOOTSCEN = OFF, CRC on boot will not include the boot area of program memory in its ca
      +                          lculation
  5859                           ;	CRC on boot Continue on Error for boot areas bit
  5860                           ;	BOOTCOE = HALT, CRC on boot will stop device if error is detected in boot areas
  5861                           ;	CRC on boot application code scan enable
  5862                           ;	APPSCEN = OFF, CRC on boot will not include the application area of program memory in 
      +                          its calculation
  5863                           ;	CRC on boot SAF area scan enable
  5864                           ;	SAFSCEN = OFF, CRC on boot will not include the SAF area of program memory in its calc
      +                          ulation
  5865                           ;	CRC on boot Data EEPROM scan enable
  5866                           ;	DATASCEN = OFF, CRC on boot will not include data EEPROM in its calculation
  5867                           ;	CRC on boot Config fuses scan enable
  5868                           ;	CFGSCEN = OFF, CRC on boot will not include the configuration fuses in its calculation
  5869                           ;	CRC on boot Continue on Error for non-boot areas bit
  5870                           ;	COE = HALT, CRC on boot will stop device if error is detected in non-boot areas
  5871                           ;	Boot on CRC Enable bit
  5872                           ;	BOOTPOR = OFF, CRC on boot will not run
  5873  30000A                     	org	3145738
  5874  30000A  FF                 	db	255
  5875                           
  5876                           ;Config register CONFIG12 @ 0x30000B
  5877                           ;	Boot Sector Polynomial for CRC on boot bits 31-24
  5878                           ;	BCRCPOLT = hFF, Bits 31:24 of BCRCPOL are 0xFF
  5879  30000B                     	org	3145739
  5880  30000B  FF                 	db	255
  5881                           
  5882                           ;Config register CONFIG13 @ 0x30000C
  5883                           ;	Boot Sector Polynomial for CRC on boot bits 23-16
  5884                           ;	BCRCPOLU = hFF, Bits 23:16 of BCRCPOL are 0xFF
  5885  30000C                     	org	3145740
  5886  30000C  FF                 	db	255
  5887                           
  5888                           ;Config register CONFIG14 @ 0x30000D
  5889                           ;	Boot Sector Polynomial for CRC on boot bits 15-8
  5890                           ;	BCRCPOLH = hFF, Bits 15:8 of BCRCPOL are 0xFF
  5891  30000D                     	org	3145741
  5892  30000D  FF                 	db	255
  5893                           
  5894                           ;Config register CONFIG15 @ 0x30000E
  5895                           ;	Boot Sector Polynomial for CRC on boot bits 7-0
  5896                           ;	BCRCPOLL = hFF, Bits 7:0 of BCRCPOL are 0xFF
  5897  30000E                     	org	3145742
  5898  30000E  FF                 	db	255
  5899                           
  5900                           ;Config register CONFIG16 @ 0x30000F
  5901                           ;	Boot Sector Seed for CRC on boot bits 31-24
  5902                           ;	BCRCSEEDT = hFF, Bits 31:24 of BCRCSEED are 0xFF
  5903  30000F                     	org	3145743
  5904  30000F  FF                 	db	255
  5905                           
  5906                           ;Config register CONFIG17 @ 0x300010
  5907                           ;	Boot Sector Seed for CRC on boot bits 23-16
  5908                           ;	BCRCSEEDU = hFF, Bits 23:16 of BCRCSEED are 0xFF
  5909  300010                     	org	3145744
  5910  300010  FF                 	db	255
  5911                           
  5912                           ;Config register CONFIG18 @ 0x300011
  5913                           ;	Boot Sector Seed for CRC on boot bits 15-8
  5914                           ;	BCRCSEEDH = hFF, Bits 15:8 of BCRCSEED are 0xFF
  5915  300011                     	org	3145745
  5916  300011  FF                 	db	255
  5917                           
  5918                           ;Config register CONFIG19 @ 0x300012
  5919                           ;	Boot Sector Seed for CRC on boot bits 7-0
  5920                           ;	BCRCSEEDL = hFF, Bits 7:0 of BCRCSEED are 0xFF
  5921  300012                     	org	3145746
  5922  300012  FF                 	db	255
  5923                           
  5924                           ;Config register CONFIG20 @ 0x300013
  5925                           ;	unspecified, using default values
  5926                           ;	Boot Sector Expected Result for CRC on boot bits 31-24
  5927                           ;	BCRCEREST = 0xFF, unprogrammed default
  5928  300013                     	org	3145747
  5929  300013  FF                 	db	255
  5930                           
  5931                           ;Config register CONFIG21 @ 0x300014
  5932                           ;	unspecified, using default values
  5933                           ;	Boot Sector Expected Result for CRC on boot bits 23-16
  5934                           ;	BCRCERESU = 0xFF, unprogrammed default
  5935  300014                     	org	3145748
  5936  300014  FF                 	db	255
  5937                           
  5938                           ;Config register CONFIG22 @ 0x300015
  5939                           ;	unspecified, using default values
  5940                           ;	Boot Sector Expected Result for CRC on boot bits 15-8
  5941                           ;	BCRCERESH = 0xFF, unprogrammed default
  5942  300015                     	org	3145749
  5943  300015  FF                 	db	255
  5944                           
  5945                           ;Config register CONFIG23 @ 0x300016
  5946                           ;	unspecified, using default values
  5947                           ;	Boot Sector Expected Result for CRC on boot bits 7-0
  5948                           ;	BCRCERESL = 0xFF, unprogrammed default
  5949  300016                     	org	3145750
  5950  300016  FF                 	db	255
  5951                           
  5952                           ;Config register CONFIG24 @ 0x300017
  5953                           ;	Non-Boot Sector Polynomial for CRC on boot bits 31-24
  5954                           ;	CRCPOLT = hFF, Bits 31:24 of CRCPOL are 0xFF
  5955  300017                     	org	3145751
  5956  300017  FF                 	db	255
  5957                           
  5958                           ;Config register CONFIG25 @ 0x300018
  5959                           ;	Non-Boot Sector Polynomial for CRC on boot bits 23-16
  5960                           ;	CRCPOLU = hFF, Bits 23:16 of CRCPOL are 0xFF
  5961  300018                     	org	3145752
  5962  300018  FF                 	db	255
  5963                           
  5964                           ;Config register CONFIG26 @ 0x300019
  5965                           ;	Non-Boot Sector Polynomial for CRC on boot bits 15-8
  5966                           ;	CRCPOLH = hFF, Bits 15:8 of CRCPOL are 0xFF
  5967  300019                     	org	3145753
  5968  300019  FF                 	db	255
  5969                           
  5970                           ;Config register CONFIG27 @ 0x30001A
  5971                           ;	Non-Boot Sector Polynomial for CRC on boot bits 7-0
  5972                           ;	CRCPOLL = hFF, Bits 7:0 of CRCPOL are 0xFF
  5973  30001A                     	org	3145754
  5974  30001A  FF                 	db	255
  5975                           
  5976                           ;Config register CONFIG28 @ 0x30001B
  5977                           ;	Non-Boot Sector Seed for CRC on boot bits 31-24
  5978                           ;	CRCSEEDT = hFF, Bits 31:24 of CRCSEED are 0xFF
  5979  30001B                     	org	3145755
  5980  30001B  FF                 	db	255
  5981                           
  5982                           ;Config register CONFIG29 @ 0x30001C
  5983                           ;	Non-Boot Sector Seed for CRC on boot bits 23-16
  5984                           ;	CRCSEEDU = hFF, Bits 23:16 of CRCSEED are 0xFF
  5985  30001C                     	org	3145756
  5986  30001C  FF                 	db	255
  5987                           
  5988                           ;Config register CONFIG30 @ 0x30001D
  5989                           ;	Non-Boot Sector Seed for CRC on boot bits 15-8
  5990                           ;	CRCSEEDH = hFF, Bits 15:8 of CRCSEED are 0xFF
  5991  30001D                     	org	3145757
  5992  30001D  FF                 	db	255
  5993                           
  5994                           ;Config register CONFIG31 @ 0x30001E
  5995                           ;	Non-Boot Sector Seed for CRC on boot bits 7-0
  5996                           ;	CRCSEEDL = hFF, Bits 7:0 of CRCSEED are 0xFF
  5997  30001E                     	org	3145758
  5998  30001E  FF                 	db	255
  5999                           
  6000                           ;Config register CONFIG32 @ 0x30001F
  6001                           ;	unspecified, using default values
  6002                           ;	Non-Boot Sector Expected Result for CRC on boot bits 31-24
  6003                           ;	CRCEREST = 0xFF, unprogrammed default
  6004  30001F                     	org	3145759
  6005  30001F  FF                 	db	255
  6006                           
  6007                           ;Config register CONFIG33 @ 0x300020
  6008                           ;	unspecified, using default values
  6009                           ;	Non-Boot Sector Expected Result for CRC on boot bits 23-16
  6010                           ;	CRCERESU = 0xFF, unprogrammed default
  6011  300020                     	org	3145760
  6012  300020  FF                 	db	255
  6013                           
  6014                           ;Config register CONFIG34 @ 0x300021
  6015                           ;	unspecified, using default values
  6016                           ;	Non-Boot Sector Expected Result for CRC on boot bits 15-8
  6017                           ;	CRCERESH = 0xFF, unprogrammed default
  6018  300021                     	org	3145761
  6019  300021  FF                 	db	255
  6020                           
  6021                           ;Config register CONFIG35 @ 0x300022
  6022                           ;	unspecified, using default values
  6023                           ;	Non-Boot Sector Expected Result for CRC on boot bits 7-0
  6024                           ;	CRCERESL = 0xFF, unprogrammed default
  6025  300022                     	org	3145762
  6026  300022  FF                 	db	255
  6027                           
  6028                           ; Padding undefined space
  6029  300023                     	org	3145763
  6030  300023  FF                 	db	255
  6031                           tosu	equ	0x4FF
  6032                           tosh	equ	0x4FE
  6033                           tosl	equ	0x4FD
  6034                           stkptr	equ	0x4FC
  6035                           pclatu	equ	0x4FB
  6036                           pclath	equ	0x4FA
  6037                           pcl	equ	0x4F9
  6038                           tblptru	equ	0x4F8
  6039                           tblptrh	equ	0x4F7
  6040                           tblptrl	equ	0x4F6
  6041                           tablat	equ	0x4F5
  6042                           prodh	equ	0x4F4
  6043                           prodl	equ	0x4F3
  6044                           indf0	equ	0x4EF
  6045                           postinc0	equ	0x4EE
  6046                           postdec0	equ	0x4ED
  6047                           preinc0	equ	0x4EC
  6048                           plusw0	equ	0x4EB
  6049                           fsr0h	equ	0x4EA
  6050                           fsr0l	equ	0x4E9
  6051                           wreg	equ	0x4E8
  6052                           indf1	equ	0x4E7
  6053                           postinc1	equ	0x4E6
  6054                           postdec1	equ	0x4E5
  6055                           preinc1	equ	0x4E4
  6056                           plusw1	equ	0x4E3
  6057                           fsr1h	equ	0x4E2
  6058                           fsr1l	equ	0x4E1
  6059                           bsr	equ	0x4E0
  6060                           indf2	equ	0x4DF
  6061                           postinc2	equ	0x4DE
  6062                           postdec2	equ	0x4DD
  6063                           preinc2	equ	0x4DC
  6064                           plusw2	equ	0x4DB
  6065                           fsr2h	equ	0x4DA
  6066                           fsr2l	equ	0x4D9
  6067                           status	equ	0x4D8

Data Sizes:
    Strings     0
    Constant    11
    Data        2
    BSS         63
    Persistent  6
    Stack       0

Auto Spaces:
    Space          Size  Autos    Used
    COMRAM           95     59      94
    BANK5           160      4      40
    BANK6           256      0       0
    BANK7           256      0       0
    BANK8           256      0       0
    BANK9           256      0       0
    BANK10          256      0       0
    BANK11          256      0       0
    BANK12          256      0       0
    BANK13          256      0       0
    BANK14          256      0       0
    BANK15          256      0       0
    BANK16          256      0       0
    BANK17          256      0       0
    BANK18          256      0       0
    BANK19          256      0       0
    BANK20          256      0       0
    BANK21          256      0       0
    BANK22          256      0       0
    BANK23          256      0       0
    BANK24          256      0       0
    BANK25          256      0       0
    BANK26          256      0       0
    BANK27          256      0       0
    BANK28          256      0       0
    BANK29          256      0       0
    BANK30          256      0       0
    BANK31          256      0       0
    BANK32          256      0       0
    BANK33          256      0       0
    BANK34          256      0       0
    BANK35          256      0       0
    BANK36          256      0       0
    BANK37          256      0       0

Pointer List with Targets:

    memcpy@d1	PTR void  size(2) Largest target is 9727
		 -> RAM(DATA[9727]), rxMsgData(BANK5[8]), 

    memcpy@d	PTR unsigned char  size(2) Largest target is 9727
		 -> RAM(DATA[9727]), rxMsgData(BANK5[8]), 

    memcpy@s1	PTR const void  size(2) Largest target is 9727
		 -> CANDATAdata(BANK5[8]), RAM(DATA[9727]), rxMsgData(BANK5[8]), 

    memcpy@s	PTR const unsigned char  size(2) Largest target is 9727
		 -> CANDATAdata(BANK5[8]), RAM(DATA[9727]), rxMsgData(BANK5[8]), 

    TMR0_SetInterruptHandler@InterruptHandler	PTR FTN()void  size(2) Largest target is 1
		 -> TMR0_DefaultInterruptHandler(), 

    TMR0_InterruptHandler	PTR FTN()void  size(2) Largest target is 1
		 -> TMR0_DefaultInterruptHandler(), Absolute function(), 

    TMR1_SetInterruptHandler@InterruptHandler	PTR FTN()void  size(2) Largest target is 1
		 -> TMR1_DefaultInterruptHandler(), 

    TMR1_InterruptHandler	PTR FTN()void  size(2) Largest target is 1
		 -> Absolute function(), TMR1_DefaultInterruptHandler(), 

    CAN1_SetFIFO1NotEmptyHandler@handler	PTR FTN()void  size(2) Largest target is 1
		 -> DefaultFIFO1NotEmptyHandler(), 

    CAN1_FIFO1NotEmptyHandler	PTR FTN()void  size(2) Largest target is 1
		 -> Absolute function(), DefaultFIFO1NotEmptyHandler(), 

    CAN1_SetRxBufferOverFlowInterruptHandler@handler	PTR FTN()void  size(2) Largest target is 1
		 -> DefaultRxBufferOverflowHandler(), 

    CAN1_RxBufferOverflowHandler	PTR FTN()void  size(2) Largest target is 1
		 -> Absolute function(), DefaultRxBufferOverflowHandler(), 

    CAN1_SetTxAttemptInterruptHandler@handler	PTR FTN()void  size(2) Largest target is 1
		 -> DefaultTxAttemptHandler(), 

    CAN1_TxAttemptHandler	PTR FTN()void  size(2) Largest target is 1
		 -> Absolute function(), DefaultTxAttemptHandler(), 

    CAN1_SetSystemErrorInterruptHandler@handler	PTR FTN()void  size(2) Largest target is 1
		 -> DefaultSystemErrorHandler(), 

    CAN1_SystemErrorHandler	PTR FTN()void  size(2) Largest target is 1
		 -> Absolute function(), DefaultSystemErrorHandler(), 

    CAN1_SetModeChangeInterruptHandler@handler	PTR FTN()void  size(2) Largest target is 1
		 -> DefaultModeChangeHandler(), 

    CAN1_ModeChangeHandler	PTR FTN()void  size(2) Largest target is 1
		 -> Absolute function(), DefaultModeChangeHandler(), 

    CAN1_SetBusErrorInterruptHandler@handler	PTR FTN()void  size(2) Largest target is 1
		 -> DefaultBusErrorHandler(), 

    CAN1_BusErrorHandler	PTR FTN()void  size(2) Largest target is 1
		 -> Absolute function(), DefaultBusErrorHandler(), 

    CAN1_SetBusWakeUpActivityInterruptHandler@handler	PTR FTN()void  size(2) Largest target is 1
		 -> DefaultBusWakeUpActivityHandler(), 

    CAN1_BusWakeUpActivityHandler	PTR FTN()void  size(2) Largest target is 1
		 -> Absolute function(), DefaultBusWakeUpActivityHandler(), 

    CAN1_SetInvalidMessageInterruptHandler@handler	PTR FTN()void  size(2) Largest target is 1
		 -> DefaultInvalidMessageHandler(), 

    CAN1_InvalidMessageHandler	PTR FTN()void  size(2) Largest target is 1
		 -> Absolute function(), DefaultInvalidMessageHandler(), 

    ValidateTransmission@txCanMsg.data	PTR unsigned char  size(2) Largest target is 8
		 -> CANDATAdata(BANK5[8]), rxMsgData(BANK5[8]), 

    WriteMessageToFifo@txCanMsg.data	PTR unsigned char  size(2) Largest target is 8
		 -> CANDATAdata(BANK5[8]), rxMsgData(BANK5[8]), 

    CAN1_Receive@rxCanMsg	PTR struct . size(2) Largest target is 8
		 -> msgReceipt(COMRAM[7]), 

    Receive@rxCanMsg	PTR struct . size(2) Largest target is 8
		 -> msgReceipt(COMRAM[7]), 

    Receive@rxFifoObj	PTR unsigned char  size(2) Largest target is 9727
		 -> RAM(DATA[9727]), 

    sp__memcpy	PTR void  size(2) Largest target is 9727
		 -> RAM(DATA[9727]), rxMsgData(BANK5[8]), 

    ReadMessageFromFifo@rxCanMsg.data	PTR unsigned char  size(2) Largest target is 8
		 -> CANDATAdata(BANK5[8]), rxMsgData(BANK5[8]), 

    ReadMessageFromFifo@rxCanMsg	PTR struct . size(2) Largest target is 8
		 -> msgReceipt(COMRAM[7]), 

    ReadMessageFromFifo@rxFifoObj	PTR unsigned char  size(2) Largest target is 9727
		 -> RAM(DATA[9727]), 

    FIFO	const PTR volatile struct CAN_FIFOREG size(2) Largest target is 1
		 -> C1TXQCONL(SFR_1[1]), 

    msgReceipt.data	PTR unsigned char  size(2) Largest target is 8
		 -> CANDATAdata(BANK5[8]), rxMsgData(BANK5[8]), 

    S33$data	PTR unsigned char  size(2) Largest target is 8
		 -> CANDATAdata(BANK5[8]), rxMsgData(BANK5[8]), 

    msgTransmit.data	PTR unsigned char  size(2) Largest target is 8
		 -> CANDATAdata(BANK5[8]), rxMsgData(BANK5[8]), 


Critical Paths under _main in COMRAM

    None.

Critical Paths under _INTERRUPT_InterruptManager in COMRAM

    _TMR1_ISR->_LEDS
    _TMR1_ISR->_TMR1_WriteTimer
    _TMR0_ISR->_TEMPORIZATION_1s
    _DefaultFIFO1NotEmptyHandler->_CANReadMessage
    _CANReadMessage->_CAN1_Receive
    _CAN1_ReceivedMessageCountGet->_GetRxFifoDepth
    _CAN1_Receive->_Receive
    _Receive->_ReadMessageFromFifo
    _ReadMessageFromFifo->_memcpy

Critical Paths under _main in BANK5

    _SYSTEM_Initialize->_TMR1_Initialize
    _TMR1_Initialize->_TMR1_SetInterruptHandler
    _TMR0_Initialize->_TMR0_SetInterruptHandler
    _CAN1_Initialize->_CAN1_OperationModeSet
    _CAN1_RX_FIFO_Configuration->_CAN1_SetFIFO1NotEmptyHandler
    _CAN1_ErrorNotificationInterruptEnable->_CAN1_SetBusErrorInterruptHandler
    _CAN1_ErrorNotificationInterruptEnable->_CAN1_SetBusWakeUpActivityInterruptHandler
    _CAN1_ErrorNotificationInterruptEnable->_CAN1_SetInvalidMessageInterruptHandler
    _CAN1_ErrorNotificationInterruptEnable->_CAN1_SetModeChangeInterruptHandler
    _CAN1_ErrorNotificationInterruptEnable->_CAN1_SetRxBufferOverFlowInterruptHandler
    _CAN1_ErrorNotificationInterruptEnable->_CAN1_SetSystemErrorInterruptHandler
    _CAN1_ErrorNotificationInterruptEnable->_CAN1_SetTxAttemptInterruptHandler
    _Init_hardware->_DELAY_milliseconds

Critical Paths under _INTERRUPT_InterruptManager in BANK5

    None.

Critical Paths under _main in BANK6

    None.

Critical Paths under _INTERRUPT_InterruptManager in BANK6

    None.

Critical Paths under _main in BANK7

    None.

Critical Paths under _INTERRUPT_InterruptManager in BANK7

    None.

Critical Paths under _main in BANK8

    None.

Critical Paths under _INTERRUPT_InterruptManager in BANK8

    None.

Critical Paths under _main in BANK9

    None.

Critical Paths under _INTERRUPT_InterruptManager in BANK9

    None.

Critical Paths under _main in BANK10

    None.

Critical Paths under _INTERRUPT_InterruptManager in BANK10

    None.

Critical Paths under _main in BANK11

    None.

Critical Paths under _INTERRUPT_InterruptManager in BANK11

    None.

Critical Paths under _main in BANK12

    None.

Critical Paths under _INTERRUPT_InterruptManager in BANK12

    None.

Critical Paths under _main in BANK13

    None.

Critical Paths under _INTERRUPT_InterruptManager in BANK13

    None.

Critical Paths under _main in BANK14

    None.

Critical Paths under _INTERRUPT_InterruptManager in BANK14

    None.

Critical Paths under _main in BANK15

    None.

Critical Paths under _INTERRUPT_InterruptManager in BANK15

    None.

Critical Paths under _main in BANK16

    None.

Critical Paths under _INTERRUPT_InterruptManager in BANK16

    None.

Critical Paths under _main in BANK17

    None.

Critical Paths under _INTERRUPT_InterruptManager in BANK17

    None.

Critical Paths under _main in BANK18

    None.

Critical Paths under _INTERRUPT_InterruptManager in BANK18

    None.

Critical Paths under _main in BANK19

    None.

Critical Paths under _INTERRUPT_InterruptManager in BANK19

    None.

Critical Paths under _main in BANK20

    None.

Critical Paths under _INTERRUPT_InterruptManager in BANK20

    None.

Critical Paths under _main in BANK21

    None.

Critical Paths under _INTERRUPT_InterruptManager in BANK21

    None.

Critical Paths under _main in BANK22

    None.

Critical Paths under _INTERRUPT_InterruptManager in BANK22

    None.

Critical Paths under _main in BANK23

    None.

Critical Paths under _INTERRUPT_InterruptManager in BANK23

    None.

Critical Paths under _main in BANK24

    None.

Critical Paths under _INTERRUPT_InterruptManager in BANK24

    None.

Critical Paths under _main in BANK25

    None.

Critical Paths under _INTERRUPT_InterruptManager in BANK25

    None.

Critical Paths under _main in BANK26

    None.

Critical Paths under _INTERRUPT_InterruptManager in BANK26

    None.

Critical Paths under _main in BANK27

    None.

Critical Paths under _INTERRUPT_InterruptManager in BANK27

    None.

Critical Paths under _main in BANK28

    None.

Critical Paths under _INTERRUPT_InterruptManager in BANK28

    None.

Critical Paths under _main in BANK29

    None.

Critical Paths under _INTERRUPT_InterruptManager in BANK29

    None.

Critical Paths under _main in BANK30

    None.

Critical Paths under _INTERRUPT_InterruptManager in BANK30

    None.

Critical Paths under _main in BANK31

    None.

Critical Paths under _INTERRUPT_InterruptManager in BANK31

    None.

Critical Paths under _main in BANK32

    None.

Critical Paths under _INTERRUPT_InterruptManager in BANK32

    None.

Critical Paths under _main in BANK33

    None.

Critical Paths under _INTERRUPT_InterruptManager in BANK33

    None.

Critical Paths under _main in BANK34

    None.

Critical Paths under _INTERRUPT_InterruptManager in BANK34

    None.

Critical Paths under _main in BANK35

    None.

Critical Paths under _INTERRUPT_InterruptManager in BANK35

    None.

Critical Paths under _main in BANK36

    None.

Critical Paths under _INTERRUPT_InterruptManager in BANK36

    None.

Critical Paths under _main in BANK37

    None.

Critical Paths under _INTERRUPT_InterruptManager in BANK37

    None.

Call Graph Tables:

 ---------------------------------------------------------------------------------
 (Depth) Function   	        Calls       Base Space   Used Autos Params    Refs
 ---------------------------------------------------------------------------------
 (0) _main                                                 0     0      0    1434
                      _Init_hardware
                    _PARAMETERS_Init
                  _SYSTEM_Initialize
 ---------------------------------------------------------------------------------
 (1) _SYSTEM_Initialize                                    0     0      0    1184
                    _CAN1_Initialize
               _INTERRUPT_Initialize
              _OSCILLATOR_Initialize
             _PIN_MANAGER_Initialize
                     _PMD_Initialize
                    _TMR0_Initialize
                    _TMR1_Initialize
 ---------------------------------------------------------------------------------
 (2) _TMR1_Initialize                                      2     2      0      98
                                              2 BANK5      2     2      0
           _TMR1_SetInterruptHandler
 ---------------------------------------------------------------------------------
 (3) _TMR1_SetInterruptHandler                             2     0      2      98
                                              0 BANK5      2     0      2
 ---------------------------------------------------------------------------------
 (2) _TMR0_Initialize                                      0     0      0      98
           _TMR0_SetInterruptHandler
 ---------------------------------------------------------------------------------
 (3) _TMR0_SetInterruptHandler                             2     0      2      98
                                              0 BANK5      2     0      2
 ---------------------------------------------------------------------------------
 (2) _PMD_Initialize                                       0     0      0       0
 ---------------------------------------------------------------------------------
 (2) _PIN_MANAGER_Initialize                               0     0      0       0
 ---------------------------------------------------------------------------------
 (2) _OSCILLATOR_Initialize                                0     0      0       0
 ---------------------------------------------------------------------------------
 (2) _INTERRUPT_Initialize                                 0     0      0       0
 ---------------------------------------------------------------------------------
 (2) _CAN1_Initialize                                      0     0      0     988
          _CAN1_BitRateConfiguration
_CAN1_ErrorNotificationInterruptEnab
              _CAN1_OperationModeSet
         _CAN1_RX_FIFO_Configuration
_CAN1_RX_FIFO_FilterMaskConfiguratio
             _CAN1_RX_FIFO_ResetInfo
         _CAN1_TX_FIFO_Configuration
 ---------------------------------------------------------------------------------
 (3) _CAN1_TX_FIFO_Configuration                           0     0      0       0
 ---------------------------------------------------------------------------------
 (3) _CAN1_RX_FIFO_ResetInfo                               1     1      0      68
                                              0 BANK5      1     1      0
 ---------------------------------------------------------------------------------
 (3) _CAN1_RX_FIFO_FilterMaskConfiguration                 0     0      0       0
 ---------------------------------------------------------------------------------
 (3) _CAN1_RX_FIFO_Configuration                           0     0      0      98
       _CAN1_SetFIFO1NotEmptyHandler
 ---------------------------------------------------------------------------------
 (4) _CAN1_SetFIFO1NotEmptyHandler                         2     0      2      98
                                              0 BANK5      2     0      2
 ---------------------------------------------------------------------------------
 (3) _CAN1_OperationModeSet                                3     3      0     136
                                              0 BANK5      3     3      0
              _CAN1_OperationModeGet
 ---------------------------------------------------------------------------------
 (4) _CAN1_OperationModeGet                                0     0      0       0
 ---------------------------------------------------------------------------------
 (3) _CAN1_ErrorNotificationInterruptEnable                0     0      0     686
   _CAN1_SetBusErrorInterruptHandler
_CAN1_SetBusWakeUpActivityInterruptH
_CAN1_SetInvalidMessageInterruptHand
 _CAN1_SetModeChangeInterruptHandler
_CAN1_SetRxBufferOverFlowInterruptHa
_CAN1_SetSystemErrorInterruptHandler
  _CAN1_SetTxAttemptInterruptHandler
 ---------------------------------------------------------------------------------
 (4) _CAN1_SetTxAttemptInterruptHandler                    2     0      2      98
                                              0 BANK5      2     0      2
 ---------------------------------------------------------------------------------
 (4) _CAN1_SetSystemErrorInterruptHandler                  2     0      2      98
                                              0 BANK5      2     0      2
 ---------------------------------------------------------------------------------
 (4) _CAN1_SetRxBufferOverFlowInterruptHandler             2     0      2      98
                                              0 BANK5      2     0      2
 ---------------------------------------------------------------------------------
 (4) _CAN1_SetModeChangeInterruptHandler                   2     0      2      98
                                              0 BANK5      2     0      2
 ---------------------------------------------------------------------------------
 (4) _CAN1_SetInvalidMessageInterruptHandler               2     0      2      98
                                              0 BANK5      2     0      2
 ---------------------------------------------------------------------------------
 (4) _CAN1_SetBusWakeUpActivityInterruptHandler            2     0      2      98
                                              0 BANK5      2     0      2
 ---------------------------------------------------------------------------------
 (4) _CAN1_SetBusErrorInterruptHandler                     2     0      2      98
                                              0 BANK5      2     0      2
 ---------------------------------------------------------------------------------
 (3) _CAN1_BitRateConfiguration                            0     0      0       0
 ---------------------------------------------------------------------------------
 (1) _PARAMETERS_Init                                      0     0      0       0
 ---------------------------------------------------------------------------------
 (1) _Init_hardware                                        0     0      0     250
                 _DELAY_milliseconds
 ---------------------------------------------------------------------------------
 (2) _DELAY_milliseconds                                   3     1      2     250
                                              0 BANK5      3     1      2
 ---------------------------------------------------------------------------------
 Estimated maximum stack depth 4
 ---------------------------------------------------------------------------------
 (Depth) Function   	        Calls       Base Space   Used Autos Params    Refs
 ---------------------------------------------------------------------------------
 (5) _INTERRUPT_InterruptManager                           4     4      0    2998
                                             55 COMRAM     4     4      0
                           _CAN1_ISR
                       _CAN1_RXI_ISR
                           _TMR0_ISR
                           _TMR1_ISR
 ---------------------------------------------------------------------------------
 (6) _TMR1_ISR                                             0     0      0     240
                               _LEDS
                      _TMR1_CallBack
                    _TMR1_WriteTimer
 ---------------------------------------------------------------------------------
 (7) _TMR1_WriteTimer                                      2     0      2     240
                                              0 COMRAM     2     0      2
 ---------------------------------------------------------------------------------
 (7) _TMR1_CallBack                                        0     0      0       0
                   Absolute function *
       _TMR1_DefaultInterruptHandler *
 ---------------------------------------------------------------------------------
 (8) _TMR1_DefaultInterruptHandler                         0     0      0       0
 ---------------------------------------------------------------------------------
 (6) _TMR0_ISR                                             0     0      0       0
                            _SPEAKER
                   _TEMPORIZATION_1s
                      _TMR0_CallBack
 ---------------------------------------------------------------------------------
 (7) _TMR0_CallBack                                        0     0      0       0
                   Absolute function *
       _TMR0_DefaultInterruptHandler *
 ---------------------------------------------------------------------------------
 (8) _TMR0_DefaultInterruptHandler                         0     0      0       0
 ---------------------------------------------------------------------------------
 (7) _TEMPORIZATION_1s                                     2     2      0       0
                                              0 COMRAM     2     2      0
               _TEMPORIZATION_15mins
                _TEMPORIZATION_1mins
               _TEMPORIZATION_30mins
                  _TEMPORIZATION_30s
 ---------------------------------------------------------------------------------
 (8) _TEMPORIZATION_30s                                    0     0      0       0
 ---------------------------------------------------------------------------------
 (8) _TEMPORIZATION_30mins                                 0     0      0       0
 ---------------------------------------------------------------------------------
 (8) _TEMPORIZATION_1mins                                  0     0      0       0
 ---------------------------------------------------------------------------------
 (8) _TEMPORIZATION_15mins                                 0     0      0       0
 ---------------------------------------------------------------------------------
 (6) _CAN1_RXI_ISR                                         0     0      0    2758
                   Absolute function *
        _DefaultFIFO1NotEmptyHandler *
 ---------------------------------------------------------------------------------
 (7) _DefaultFIFO1NotEmptyHandler                          0     0      0    2758
                     _CANReadMessage
 ---------------------------------------------------------------------------------
 (8) _CANReadMessage                                      18    18      0    2758
                                             37 COMRAM    18    18      0
                       _CAN1_Receive
       _CAN1_ReceivedMessageCountGet
                               _LEDS
                            _SPEAKER
 ---------------------------------------------------------------------------------
 (7) _SPEAKER                                              1     1      0       0
                                              0 COMRAM     1     1      0
 ---------------------------------------------------------------------------------
 (7) _LEDS                                                 2     2      0       0
                                              0 COMRAM     2     2      0
 ---------------------------------------------------------------------------------
 (9) _CAN1_ReceivedMessageCountGet                         8     8      0     541
                                              2 COMRAM     8     8      0
                     _GetRxFifoDepth
                    _GetRxFifoStatus
 ---------------------------------------------------------------------------------
 (9) _CAN1_Receive                                         4     2      2    2162
                                             33 COMRAM     4     2      2
                            _Receive
 ---------------------------------------------------------------------------------
 (10) _Receive                                            10     7      3    1928
                                             23 COMRAM    10     7      3
                     _GetRxFifoDepth
                    _GetRxFifoStatus
                _ReadMessageFromFifo
 ---------------------------------------------------------------------------------
 (11) _ReadMessageFromFifo                                12     8      4    1268
                                             11 COMRAM    12     8      4
                             _memcpy
 ---------------------------------------------------------------------------------
 (12) _memcpy                                             11     5      6     599
                                              0 COMRAM    11     5      6
 ---------------------------------------------------------------------------------
 (10) _GetRxFifoStatus                                     1     1      0      22
                                              0 COMRAM     1     1      0
 ---------------------------------------------------------------------------------
 (10) _GetRxFifoDepth                                      2     2      0      22
                                              0 COMRAM     2     2      0
 ---------------------------------------------------------------------------------
 (6) _CAN1_ISR                                             0     0      0       0
                   Absolute function *
             _DefaultBusErrorHandler *
    _DefaultBusWakeUpActivityHandler *
       _DefaultInvalidMessageHandler *
           _DefaultModeChangeHandler *
     _DefaultRxBufferOverflowHandler *
          _DefaultSystemErrorHandler *
            _DefaultTxAttemptHandler *
 ---------------------------------------------------------------------------------
 (7) _DefaultTxAttemptHandler                              0     0      0       0
 ---------------------------------------------------------------------------------
 (7) _DefaultSystemErrorHandler                            0     0      0       0
 ---------------------------------------------------------------------------------
 (7) _DefaultRxBufferOverflowHandler                       0     0      0       0
 ---------------------------------------------------------------------------------
 (7) _DefaultModeChangeHandler                             0     0      0       0
 ---------------------------------------------------------------------------------
 (7) _DefaultInvalidMessageHandler                         0     0      0       0
 ---------------------------------------------------------------------------------
 (7) _DefaultBusWakeUpActivityHandler                      0     0      0       0
 ---------------------------------------------------------------------------------
 (7) _DefaultBusErrorHandler                               0     0      0       0
 ---------------------------------------------------------------------------------
 (8) Absolute function(Fake)                               0     0      0       0
 ---------------------------------------------------------------------------------
 Estimated maximum stack depth 12
 ---------------------------------------------------------------------------------

 Call Graph Graphs:

 _main (ROOT)
   _Init_hardware
     _DELAY_milliseconds
   _PARAMETERS_Init
   _SYSTEM_Initialize
     _CAN1_Initialize
       _CAN1_BitRateConfiguration
       _CAN1_ErrorNotificationInterruptEnable
         _CAN1_SetBusErrorInterruptHandler
         _CAN1_SetBusWakeUpActivityInterruptHandler
         _CAN1_SetInvalidMessageInterruptHandler
         _CAN1_SetModeChangeInterruptHandler
         _CAN1_SetRxBufferOverFlowInterruptHandler
         _CAN1_SetSystemErrorInterruptHandler
         _CAN1_SetTxAttemptInterruptHandler
       _CAN1_OperationModeSet
         _CAN1_OperationModeGet
       _CAN1_RX_FIFO_Configuration
         _CAN1_SetFIFO1NotEmptyHandler
       _CAN1_RX_FIFO_FilterMaskConfiguration
       _CAN1_RX_FIFO_ResetInfo
       _CAN1_TX_FIFO_Configuration
     _INTERRUPT_Initialize
     _OSCILLATOR_Initialize
     _PIN_MANAGER_Initialize
     _PMD_Initialize
     _TMR0_Initialize
       _TMR0_SetInterruptHandler
     _TMR1_Initialize
       _TMR1_SetInterruptHandler

 _INTERRUPT_InterruptManager (ROOT)
   _CAN1_ISR
     Absolute function(Fake) *
     _DefaultBusErrorHandler *
     _DefaultBusWakeUpActivityHandler *
     _DefaultInvalidMessageHandler *
     _DefaultModeChangeHandler *
     _DefaultRxBufferOverflowHandler *
     _DefaultSystemErrorHandler *
     _DefaultTxAttemptHandler *
   _CAN1_RXI_ISR
     Absolute function(Fake) *
     _DefaultFIFO1NotEmptyHandler *
       _CANReadMessage
         _CAN1_Receive
           _Receive
             _GetRxFifoDepth
             _GetRxFifoStatus
             _ReadMessageFromFifo
               _memcpy
         _CAN1_ReceivedMessageCountGet
           _GetRxFifoDepth
           _GetRxFifoStatus
         _LEDS
         _SPEAKER
   _TMR0_ISR
     _SPEAKER
     _TEMPORIZATION_1s
       _TEMPORIZATION_15mins
       _TEMPORIZATION_1mins
       _TEMPORIZATION_30mins
       _TEMPORIZATION_30s
     _TMR0_CallBack
       Absolute function(Fake) *
       _TMR0_DefaultInterruptHandler *
   _TMR1_ISR
     _LEDS
     _TMR1_CallBack
       Absolute function(Fake) *
       _TMR1_DefaultInterruptHandler *
     _TMR1_WriteTimer

 Address spaces:
Name               Size   Autos  Total    Cost      Usage
BIGRAM            20FF      0       0      71        0.0%
EEDATA             400      0       0       0        0.0%
BITBANK37          100      0       0      70        0.0%
BANK37             100      0       0      68        0.0%
BITBANK36          100      0       0      66        0.0%
BANK36             100      0       0      67        0.0%
BITBANK35          100      0       0      64        0.0%
BANK35             100      0       0      65        0.0%
BITBANK34          100      0       0      62        0.0%
BANK34             100      0       0      63        0.0%
BITBANK33          100      0       0      60        0.0%
BANK33             100      0       0      61        0.0%
BITBANK32          100      0       0      58        0.0%
BANK32             100      0       0      59        0.0%
BITBANK31          100      0       0      56        0.0%
BANK31             100      0       0      57        0.0%
BITBANK30          100      0       0      54        0.0%
BANK30             100      0       0      55        0.0%
BITBANK29          100      0       0      52        0.0%
BANK29             100      0       0      53        0.0%
BITBANK28          100      0       0      50        0.0%
BANK28             100      0       0      51        0.0%
BITBANK27          100      0       0      48        0.0%
BANK27             100      0       0      49        0.0%
BITBANK26          100      0       0      46        0.0%
BANK26             100      0       0      47        0.0%
BITBANK25          100      0       0      44        0.0%
BANK25             100      0       0      45        0.0%
BITBANK24          100      0       0      42        0.0%
BANK24             100      0       0      43        0.0%
BITBANK23          100      0       0      40        0.0%
BANK23             100      0       0      41        0.0%
BITBANK22          100      0       0      38        0.0%
BANK22             100      0       0      39        0.0%
BITBANK21          100      0       0      36        0.0%
BANK21             100      0       0      37        0.0%
BITBANK20          100      0       0      34        0.0%
BANK20             100      0       0      35        0.0%
BITBANK19          100      0       0      32        0.0%
BANK19             100      0       0      33        0.0%
BITBANK18          100      0       0      30        0.0%
BANK18             100      0       0      31        0.0%
BITBANK17          100      0       0      28        0.0%
BANK17             100      0       0      29        0.0%
BITBANK16          100      0       0      26        0.0%
BANK16             100      0       0      27        0.0%
BITBANK15          100      0       0      24        0.0%
BANK15             100      0       0      25        0.0%
BITBANK14          100      0       0      22        0.0%
BANK14             100      0       0      23        0.0%
BITBANK13          100      0       0      20        0.0%
BANK13             100      0       0      21        0.0%
BITBANK12          100      0       0      18        0.0%
BANK12             100      0       0      19        0.0%
BITBANK11          100      0       0      16        0.0%
BANK11             100      0       0      17        0.0%
BITBANK10          100      0       0      14        0.0%
BANK10             100      0       0      15        0.0%
BITBANK9           100      0       0      12        0.0%
BANK9              100      0       0      13        0.0%
BITBANK8           100      0       0      10        0.0%
BANK8              100      0       0      11        0.0%
BITBANK7           100      0       0       8        0.0%
BANK7              100      0       0       9        0.0%
BITBANK6           100      0       0       6        0.0%
BANK6              100      0       0       7        0.0%
BITBANK5            A0      0       0       4        0.0%
BANK5               A0      4      28       5       25.0%
BITCOMRAM           5F      0       0       0        0.0%
COMRAM              5F     3B      5E       1       98.9%
BITSFR_5             0      0       0     200        0.0%
SFR_5                0      0       0     200        0.0%
BITSFR_4             0      0       0     200        0.0%
SFR_4                0      0       0     200        0.0%
BITSFR_3             0      0       0     200        0.0%
SFR_3                0      0       0     200        0.0%
BITSFR_2             0      0       0     200        0.0%
SFR_2                0      0       0     200        0.0%
BITSFR_1             0      0       0     200        0.0%
SFR_1                0      0       0     200        0.0%
BITSFR               0      0       0     200        0.0%
SFR                  0      0       0     200        0.0%
STACK                0      0       0       2        0.0%
NULL                 0      0       0       0        0.0%
ABS                  0      0      86      69        0.0%
DATA                 0      0      86       3        0.0%
CODE                 0      0       0       0        0.0%


Microchip Technology PIC18 Macro Assembler V2.30 build 20200825195618 
Symbol Table                                                                                   Fri Dec 10 14:22:38 2021

                                 ??_PARAMETERS_Init 0582                               __size_of_CAN1_Receive 0052  
                                               l202 3510                                                 l303 3542  
                                               l312 3538                                                 l321 352E  
                                               l306 354C                                                 l315 3524  
                                               l172 33A0                                                 l181 34E8  
                                               l309 3556                                                 l318 351A  
                                               l430 31D2                                                 l175 343C  
                                               l184 2F84                                                 l336 3506  
                                               l169 32EC                                                 l178 34D4  
                                               l195 2ECE                                                 l188 30F0  
                                               l702 31EE                                                 l198 2F08  
                                               l199 2F0A                                                 l392 3492  
                                               l720 34BA                                                 l721 34BA  
                                               l466 34F2                                                 l715 3216  
                                               l395 341A                                                 l708 3202  
                                               l389 345C                                                 l590 34FC  
                                               l558 33F2                                                 l496 3566  
                                               l648 303E                                                 l659 32BE  
                                               l691 31D4                                                 l693 31D6  
                                               l695 31D8                                                 l847 355C  
                        __end_of_DELAY_milliseconds 32C0                                     _timer1ReloadVal 055D  
                          ?_DefaultTxAttemptHandler 0501                             __size_of_PMD_Initialize 0028  
                                               prod 0004F3                                     ?_CANReadMessage 0501  
                                               tosl 0004FD                                                 wreg 0004E8  
                        _CAN1_InvalidMessageHandler 056C                              __size_of_Init_hardware 0044  
                                              l3031 32A2                                                l3027 328C  
                                              l3131 31E8                                                l3029 3290  
                                              l3141 3200                                                l3133 31EA  
                                              l3221 34B6                                                l3143 3210  
                                              l3135 31EC                                                l3215 34AC  
                                              l3145 3212                                                l3137 31FC  
                                              l3129 31DA                                                l3081 343E  
                                              l3217 34B0                                                l3147 3214  
                                              l3139 31FE                                                l3091 3450  
                                              l3083 3442                                                l3219 34B4  
                 CAN1_ReceivedMessageCountGet@index 050A                                                l3149 3558  
                                              l3093 3454                                                l3085 3444  
                                              l2711 32C0                                                l3095 3458  
                                              l3087 3448                                                l2721 3378  
                                              l3089 344C                                                l2571 3544  
                                              l2723 338A                                                l2731 341C  
                                              l2715 32C6                                                l2741 34D6  
                                              l2573 354E                                                l2581 3526  
                                              l2725 3398                                                l2733 3422  
                                              l2717 32DA                                                l2575 3530  
                                              l2751 2F7A                                                l2743 2F0C  
                                              l2583 3508                                                l2567 34FE  
                                              l2727 339C                                                l2735 3424  
                                              l2719 32DC                                                l2569 353A  
                                              l2577 351C                                                l2753 2F7E  
                                              l2745 2F6E                                                l2761 2E86  
                                              l2729 339E                                                l2737 3426  
                                              l2579 3512                                                l2755 2F82  
                                              l2747 2F70                                                l2771 2EE8  
                                              l2763 2E98                                                l2739 34C2  
                                              l2749 2F76                                                l2773 2F04  
                                              l2765 2EA8                                                l2757 2E78  
                                              l2933 3564                                                l2941 2FFE  
                                              l2767 2EBA                                                l2759 2E7E  
                                              l2951 302A                                                l2943 3006  
                                              l2935 33F4                                                l2769 2EDE  
                                              l2881 30D6                                                l2873 309A  
                                              l2953 302C                                                l2945 3024  
                                              l2937 2FE4                                                l2961 31A2  
                                              l2891 30EA                                                l2883 30DA  
                                              l2875 309E                                                l2955 302E  
                                              l2947 3026                                                l2939 2FF4  
                                              l2971 33CC                                                l2867 34EA  
                                              l2963 31A4                                                l2885 30DE  
                                              l2877 30B4                                                l2957 347C  
                                              l2949 3028                                                l2869 34F4  
                                              l2973 33DA                                                l2965 31BE  
                                              l2887 30E2                                                l2879 30D2  
                                              l2975 33DC                                                l2967 31C0  
                                              l2959 318C                                                l2889 30E6  
                                              l2977 33DE                                                l2969 31CC  
                                              l2979 33EC                                                _FIFO 260A  
                                              u1500 2EBA                                                u1501 2EB6  
                                              _LATA 0004BE                                                u1510 2EDE  
                                              _LATB 0004BF                                                u1511 2EDA  
                                              _LATC 0004C0                                                _LEDS 2DBA  
                                              u1520 2F00                                                u1521 2EFC  
                                              u2307 3298                                                u1470 32EC  
                                              u1471 32E8                                                u1480 2E98  
                                              u1481 2E94                                                u1490 2EA8  
                                              u1491 2EA4                                                u1740 30B4  
                                              u1741 30B0                                                u1920 32BE  
                                              u1921 32BA                                        _CAN1_RXI_ISR 33A2  
                                              _PMD0 000060                                                _PMD1 000061  
                                              _PMD2 000062                                                _PMD3 000063  
                                              _PMD4 000064                                                _PMD5 000065  
                                              _PMD6 000066                                                _PMD7 000067  
                                              _PMD8 000068                                                _WPUA 000401  
                                              _WPUB 000409                                                _WPUC 000411  
                                              _WPUE 000421                             __size_of_GetRxFifoDepth 001E  
                                   __end_of_SPEAKER 328C                                    __end_of_CAN1_ISR 29A4  
         __end_of_CAN1_SetTxAttemptInterruptHandler 351C          __size_of_CAN1_SetTxAttemptInterruptHandler 000A  
               ??_CAN1_SetTxAttemptInterruptHandler 0584                  ?_CAN1_SetTxAttemptInterruptHandler 0582  
                 _CAN1_SetTxAttemptInterruptHandler 3512                                                _main 34AC  
                                              fsr2h 0004DA                                                indf2 0004DF  
                                              fsr2l 0004D9                                                prodl 0004F3  
                                              start 001A                                        _CAN1_Receive 30F2  
                        ??_TMR1_SetInterruptHandler 0584                                        ___param_bank 000000  
              __end_of_DefaultInvalidMessageHandler 3580               __size_of_DefaultInvalidMessageHandler 0002  
                      _DefaultInvalidMessageHandler 357E          CAN1_SetSystemErrorInterruptHandler@handler 0582  
                                   __end_of_Receive 2A90                 CAN1_SetFIFO1NotEmptyHandler@handler 0582  
                                             ?_LEDS 0501                             __end_of_TMR0_Initialize 33F4  
                    ??_TMR0_DefaultInterruptHandler 0501                      __size_of_OSCILLATOR_Initialize 0018  
                     __end_of_OSCILLATOR_Initialize 3494                                               ?_main 0501  
          __end_of_CAN1_SetBusErrorInterruptHandler 3558           __size_of_CAN1_SetBusErrorInterruptHandler 000A  
                ??_CAN1_SetBusErrorInterruptHandler 0584                   ?_CAN1_SetBusErrorInterruptHandler 0582  
                                             _T1CLK 000321                    _CAN1_SetBusErrorInterruptHandler 354E  
                                             _T1CON 00031E                                               i2l212 284C  
                                             i2l205 347A                                               i2l143 3562  
                                             i2l152 3582                                               i2l208 34AA  
                                             i2l161 3576                                               i2l225 3142  
                                             i2l146 357E                                               i2l155 357C  
                                             i2l331 29A0                                               i2l219 2A8E  
                                             i2l243 2CF2                                               i2l164 357A  
                                             i2l340 33CA                                               i2l149 3580  
                                             i2l333 29A2                                               i2l501 2D34  
                                             i2l158 3578                                               i2l503 2D58  
                                             i2l504 2DA0                                               i2l329 2966  
                                             i2l505 2D7C                                               i2l444 331A  
                                             i2l509 2DA0                                               i2l463 3348  
                                             i2l459 3250                                               i2l469 356A  
                                             i2l830 2B5E                                               i2l902 3572  
                                             i2l583 2FE2                                               i2l752 2DC6  
                                             i2l824 2B5E                                               i2l737 328A  
                                             i2l905 356E                                               i2l593 356C  
                                             i2l762 2DF6                                               i2l754 2DC8  
                                             i2l746 2DBE                                               i2l826 2AE8  
                                             i2l587 3376                                               i2l772 2E28  
                                             i2l748 2DC0                                               i2l757 2DCE  
                                             i2l829 2B10                                               i2l774 2E2A  
                                             i2l767 2E20                                               i2l776 2E72  
                                             i2l769 2E22                                               i2l883 2C28  
                                             i2l887 2C28                                               i2l896 3570  
                                             i2l899 3574                                               _OSCEN 0000B3  
                                             _TMR0H 000319                                               _TMR1H 00031D  
                                             _TMR0L 000318                                               _TMR1L 00031C  
                                             _TRISA 0004C6                                               _TRISB 0004C7  
                                             _TRISC 0004C8                                               _TRISE 0004CA  
                      __size_of_ReadMessageFromFifo 0240                            ??_DefaultBusErrorHandler 0501  
                 __size_of_TMR0_SetInterruptHandler 000A                           ?_TMR0_SetInterruptHandler 0582  
                               CANReadMessage@data1 0537                            __size_of_CAN1_Initialize 0058  
                                  __end_of_TMR0_ISR 2FE4                                    __end_of_TMR1_ISR 3252  
                          __size_of_GetRxFifoStatus 0018                             __end_of_TMR1_Initialize 31D4  
                                             pclath 0004FA                                               tablat 0004F5  
                                             plusw2 0004DB                         GetRxFifoStatus@validChannel 0501  
                                             status 0004D8            CAN1_SetTxAttemptInterruptHandler@handler 0582  
                          ReadMessageFromFifo@msgId 0513                           __size_of_TEMPORIZATION_1s 00CA  
                                   _TMR1_WriteTimer 32EE                        ??_CAN1_TX_FIFO_Configuration 0582  
                                      __end_of_FIFO 260C                                        __end_of_LEDS 2E74  
                                     _Init_hardware 31D4                                     __initialization 3144  
                                 __end_of_DLC_BYTES 260A             CAN1_ReceivedMessageCountGet@rxMsgStatus 0505  
                                      __end_of_main 34C2                         CAN1_RX_FIFO_ResetInfo@index 0582  
                              _TEMPORIZATION_30mins 3570                                _TEMPORIZATION_15mins 3574  
                                            ??_LEDS 0501                     __end_of_DefaultTxAttemptHandler 3578  
                       ?_INTERRUPT_InterruptManager 0501                     fp__DefaultInvalidMessageHandler 0000  
                     ?_DefaultInvalidMessageHandler 0501                 __end_of_DefaultFIFO1NotEmptyHandler 3564  
                       _DefaultFIFO1NotEmptyHandler 355E                                     Receive@rxCanMsg 0519  
                                            ??_main 0586                                       __activetblptr 000003  
    __end_of_CAN1_SetInvalidMessageInterruptHandler 3544     __size_of_CAN1_SetInvalidMessageInterruptHandler 000A  
          ??_CAN1_SetInvalidMessageInterruptHandler 0584             ?_CAN1_SetInvalidMessageInterruptHandler 0582  
            _CAN1_SetInvalidMessageInterruptHandler 353A                                           ??_SPEAKER 0501  
                                            _C1CONH 000101                                              _C1CONL 000100  
                                            _C1CONU 000102                                              _C1INTH 00011D  
                                            _C1INTL 00011C                                              _C1INTT 00011F  
                                            _C1INTU 00011E                   __size_of_DefaultModeChangeHandler 0002  
     CAN1_SetInvalidMessageInterruptHandler@handler 0582                           ?_DefaultModeChangeHandler 0501  
               __size_of_CAN1_TX_FIFO_Configuration 0014                                              _ANSELA 000400  
                                            _ANSELB 000408                                              _ANSELC 000410  
                                            _T0CON0 00031A                                              _T0CON1 00031B  
                                            _T1GATE 000320                   fp__DefaultRxBufferOverflowHandler 0000  
                  ??_DefaultRxBufferOverflowHandler 0501                     ?_DefaultRxBufferOverflowHandler 0501  
                                            _T1GCON 00031F                                              _RB4PPS 00020D  
                           TMR1_WriteTimer@timerVal 0501                                              _ODCONA 000402  
                                            _ODCONB 00040A                                              _ODCONC 000412  
                                            i2l3001 2B82                                              i2l3011 2BC4  
                                            i2l3003 2B86                                              i2l3021 2C1C  
                                            i2l3013 2BE6                                              i2l3005 2B92  
                                            i2l3101 3226                                              i2l3015 2BEA  
                                            i2l3007 2BB4                                              i2l3023 334A  
                                            i2l3111 2F88                                              i2l3103 3240  
                                            i2l3041 288A                                              i2l3033 284E  
                                            i2l3017 2BF6                                              i2l3009 2BB8  
                                            i2l3025 335E                                              i2l3121 2FC2  
                                            i2l3113 2FA2                                              i2l3105 3244  
                                            i2l3201 2D2C                                              i2l3051 28D4  
                                            i2l3043 28A4                                              i2l3035 285E  
                                            i2l3019 2C18                                              i2l3123 2FD4  
                                            i2l3115 2FA6                                              i2l3107 3248  
                                            i2l3211 2D8A                                              i2l3203 2D42  
                                            i2l3061 2928                                              i2l3053 28E2  
                                            i2l3045 28A8                                              i2l3037 2878  
                                            i2l2501 261E                                              i2l3125 2FDC  
                                            i2l3117 2FAA                                              i2l3109 2F86  
                                            i2l3213 2D98                                              i2l3205 2D50  
                                            i2l3071 2974                                              i2l3063 292C  
                                            i2l3055 28FC                                              i2l3047 28B6  
                                            i2l3039 287C                                              i2l2511 26F0  
                                            i2l2503 263C                                              i2l3127 2FDE  
                                            i2l3119 2FB2                                              i2l3207 2D66  
                                            i2l3073 298E                                              i2l3065 293A  
                                            i2l3057 2900                                              i2l3049 28D0  
                                            i2l2521 275C                                              i2l2513 270E  
                                            i2l2505 2666                                              i2l2601 3140  
                                            i2l3321 2B50                                              i2l3209 2D74  
                                            i2l3075 299E                                              i2l3067 2954  
                                            i2l3059 290E                                              i2l2523 2774  
                                            i2l2531 27CC                                              i2l2515 271C  
                                            i2l2507 2692                                              i2l2611 2C46  
                                            i2l3323 2B42                                              i2l3069 2964  
                                            i2l2533 27F0                                              i2l2525 2782  
                                            i2l2517 2730                                              i2l2509 26C0  
                                            i2l2541 29B2                                              i2l2621 2C7A  
                                            i2l2613 2C4E                                              i2l2605 2C2A  
                                            i2l3325 2E44                                              i2l3077 33A2  
                                            i2l2535 2838                                              i2l2527 2796  
                                            i2l2519 274A                                              i2l2551 2A16  
                                            i2l2543 29C0                                              i2l2623 2CA4  
                                            i2l2631 2CDA                                              i2l2615 2C5C  
                                            i2l3319 2B34                                              i2l3079 33B2  
                                            i2l1585 3098                                              i2l2481 3064  
                                            i2l2529 27A8                                              i2l2561 2A88  
                                            i2l2553 2A28                                              i2l2545 29DC  
                                            i2l2537 29A6                                              i2l2625 2CB6  
                                            i2l2617 2C64                                              i2l2633 2CDE  
                                            i2l2609 2C32                                              i2l3097 3218  
                                            i2l2483 3068                                              i2l2555 2A52  
                                            i2l2547 29EE                                              i2l2563 2A8C  
                                            i2l2539 29AA                                              i2l2635 2CE0  
                                            i2l2627 2CC2                                              i2l2619 2C72  
                                            i2l3099 321A                                              i2l2493 3496  
                                            i2l2485 307A                                              i2l2477 3040  
                                            i2l2557 2A66                                              i2l2549 2A02  
                                            i2l2637 2CF0                                              i2l2629 2CD4  
                                            i2l2653 2E30                                              i2l2645 2DBA  
                                            i2l2661 3264                                              i2l3197 2D0C  
                                            i2l2479 3054                                              i2l2487 307E  
                                            i2l2559 2A74                                              i2l2591 30F6  
                                            i2l2647 2DD0                                              i2l2671 2AD4  
                                            i2l2663 2A90                                              i2l3199 2D1E  
                                            i2l2489 3460                                              i2l2497 260E  
                                            i2l2593 311A                                              i2l2649 2DF8  
                                            i2l2681 2AE4                                              i2l2673 2AD4  
                                            i2l2665 2A92                                              i2l2499 261E  
                                            i2l2587 30F2                                              i2l2659 3252  
                                            i2l2691 2AEC                                              i2l2683 2AE4  
                                            i2l2675 2AD4                                              i2l2667 2AA6  
                                            i2l2597 312E                                              i2l2693 2B04  
                                            i2l2685 2AE4                                              i2l2677 2AE4  
                                            i2l2669 2AC2                                              i2l2599 3130  
                                            i2l2687 2AE4                                              i2l2679 2AE4  
                                            i2l2871 355E                                              i2l2697 2B16  
                                            i2l2689 2AE4                                              _INLVLA 000404  
                                            _INLVLB 00040C                                              _INLVLC 000414  
                                            i2l2981 32EE                                              _INLVLE 000424  
                                            i2l2983 32FE                                              i2l2991 3310  
                                            i2l2993 3314                                              i2l2985 3300  
                                            i2l2995 331C                                              i2l2987 3304  
                                            i2l2997 3330                                              i2l2989 330A  
                                            i2l2999 2B60                             ??_CAN1_OperationModeGet 0582  
                                            _OSCFRQ 0000B1                      ??_CAN1_ReceivedMessageCountGet 0503  
                           ??_CAN1_OperationModeSet 0582                                           ??_Receive 051B  
                                    ?_Init_hardware 0501                         ??_CAN1_BitRateConfiguration 0582  
              __end_of_TMR1_DefaultInterruptHandler 356C               __size_of_TMR1_DefaultInterruptHandler 0002  
                      _TMR1_DefaultInterruptHandler 356A                               ?_TEMPORIZATION_30mins 0501  
                             ?_TEMPORIZATION_15mins 0501                  __size_of_DefaultSystemErrorHandler 0002  
                                            _memcpy 3040                                    ?_TMR0_Initialize 0501  
                                            clear_0 3166                                              clear_1 3172  
                          ??_CAN1_RX_FIFO_ResetInfo 0582           CAN1_SetModeChangeInterruptHandler@handler 0582  
           CAN1_ReceivedMessageCountGet@totalMsgObj 0503                                           ?_CAN1_ISR 0501  
                                    _PMD_Initialize 33F4                                        __mediumconst 0000  
                   __size_of_DefaultBusErrorHandler 0002                                              tblptrh 0004F7  
                                            tblptrl 0004F6                                              tblptru 0004F8  
                             __end_of_TMR0_CallBack 3378            TMR0_SetInterruptHandler@InterruptHandler 0582  
          TMR1_SetInterruptHandler@InterruptHandler 0582                             __end_of_TMR1_WriteTimer 331C  
                     __size_of_INTERRUPT_Initialize 0004                                      _GetRxFifoDepth 345E  
                             __end_of_TMR1_CallBack 334A                                    ?_TMR1_Initialize 0501  
                                 _SYSTEM_Initialize 343E                                          __accesstop 0560  
                           __end_of__initialization 3186                                     _PARAMETERS_Init 3558  
                                 ??_CAN1_Initialize 0585                                _CAN1_BusErrorHandler 0568  
                                ?_SYSTEM_Initialize 0501                                   ??_GetRxFifoStatus 0501  
                                     ___rparam_used 000001                              _CAN1_ModeChangeHandler 0566  
                                    __pcstackCOMRAM 0501                                        __pidataBANK5 3568  
                               ??_SYSTEM_Initialize 0586                                           ?_TMR0_ISR 0501  
                                         ?_TMR1_ISR 0501                     fp__TMR1_DefaultInterruptHandler 0000  
                     ?_TMR1_DefaultInterruptHandler 0501    __end_of_CAN1_SetRxBufferOverFlowInterruptHandler 3530  
 __size_of_CAN1_SetRxBufferOverFlowInterruptHandler 000A          ??_CAN1_SetRxBufferOverFlowInterruptHandler 0584  
         ?_CAN1_SetRxBufferOverFlowInterruptHandler 0582            _CAN1_SetRxBufferOverFlowInterruptHandler 3526  
                                  ??_CANReadMessage 0526                              __end_of_PMD_Initialize 341C  
                                        ??_CAN1_ISR 0501                               TMR0_ISR@CountCallBack 053C  
                         _CAN1_BitRateConfiguration 34D6                                  Receive@rxMsgStatus 0520  
              __end_of_CAN1_SetFIFO1NotEmptyHandler 3508               __size_of_CAN1_SetFIFO1NotEmptyHandler 000A  
                      _CAN1_SetFIFO1NotEmptyHandler 34FE         __end_of_CAN1_SetSystemErrorInterruptHandler 3526  
      __size_of_CAN1_SetSystemErrorInterruptHandler 000A               ??_CAN1_SetSystemErrorInterruptHandler 0584  
              ?_CAN1_SetSystemErrorInterruptHandler 0582                 _CAN1_SetSystemErrorInterruptHandler 351C  
                            __end_of_GetRxFifoDepth 347C                           __end_of_SYSTEM_Initialize 345E  
                                  Receive@rxFifoObj 051E                                          __pbssBANK5 0560  
                                _DELAY_milliseconds 328C                                          __pnvCOMRAM 055D  
                                   ??_Init_hardware 0585                    __size_of_DefaultTxAttemptHandler 0002  
                                  _TEMPORIZATION_1s 2B60                  __end_of_CAN1_TX_FIFO_Configuration 34D6  
                        _CAN1_TX_FIFO_Configuration 34C2                                             IVTBASEH 00045E  
                                           IVTBASEL 00045D                                             IVTBASEU 00045F  
                               _ReadMessageFromFifo 260E                              _DefaultBusErrorHandler 3582  
                                        _ucASSIName 054A                                 ?_DELAY_milliseconds 0582  
                            ??_TEMPORIZATION_30mins 0501                              ??_TEMPORIZATION_15mins 0501  
                  __end_of_TMR0_SetInterruptHandler 34FE                       _CAN1_BusWakeUpActivityHandler 056A  
                                        ??_TMR0_ISR 0503                                          ??_TMR1_ISR 0503  
               CAN1_ReceivedMessageCountGet@channel 0506                        __size_of_TEMPORIZATION_1mins 0002  
                                           ?_memcpy 0501                                           _C1NBTCFGH 000105  
                                         _C1NBTCFGL 000104                                           _C1NBTCFGT 000107  
                                         _C1NBTCFGU 000106                                     ?_PMD_Initialize 0501  
                   __size_of_CAN1_RX_FIFO_ResetInfo 002E                                ?_ReadMessageFromFifo 050C  
                              ??_DELAY_milliseconds 0584                                             _OSCCON1 0000AD  
                                           _OSCCON3 0000AF                                           _C1TXQCONH 000151  
                                         _C1TXQCONL 000150                               _CAN1_TxAttemptHandler 0562  
                                         _C1TXQCONT 000153                                           _C1TXQCONU 000152  
                           __end_of_PARAMETERS_Init 355E                                             _SPEAKER 3252  
                                           _OSCTUNE 0000B0                                         _C1FIFOCON1H 00015D  
                                       _C1FIFOCON1L 00015C                                         _C1FIFOCON1T 00015F  
                                       _C1FIFOCON1U 00015E                                   CAN1_Receive@index 0525  
                                           _SLRCONA 000403                       ?_CAN1_SetFIFO1NotEmptyHandler 0582  
                                           _SLRCONB 00040B                                             _SLRCONC 000413  
                                   ?_GetRxFifoDepth 0501                                    ?_TMR1_WriteTimer 0501  
                                  CANReadMessage@id 0533                                        Receive@index 0521  
                                           _Receive 29A4                                             __Hparam 0000  
                                           __Lparam 0000                        fp__DefaultSystemErrorHandler 0000  
                                      __psmallconst 2600                    __end_of_DefaultModeChangeHandler 357E  
                                         _DLC_BYTES 2601                                             __pcinit 3144  
                                   __size_of_memcpy 005A                                             __ramtop 2600  
                                        _uiCount30s 053E                                             __ptext0 34AC  
                                           __ptext1 343E                                             __ptext2 318C  
                                           __ptext3 34EA                                             __ptext4 33CC  
                                           __ptext5 34F4                                             __ptext6 33F4  
                                           __ptext7 2FE4                                             __ptext8 347C  
                                           __ptext9 3564                      ??_TMR1_DefaultInterruptHandler 0501  
                                         _T1CONbits 00031E                               ??_ReadMessageFromFifo 0510  
                             _OSCILLATOR_Initialize 347C                           _CAN1_FIFO1NotEmptyHandler 0548  
                                        _msgReceipt 054F                   __size_of_TMR1_SetInterruptHandler 000A  
                          ??_PIN_MANAGER_Initialize 0582                           ?_TMR1_SetInterruptHandler 0582  
                                           _rxFifos 0586    CAN1_SetBusWakeUpActivityInterruptHandler@handler 0582  
                        __size_of_SYSTEM_Initialize 0020   __end_of_CAN1_SetBusWakeUpActivityInterruptHandler 354E  
__size_of_CAN1_SetBusWakeUpActivityInterruptHandler 000A         ??_CAN1_SetBusWakeUpActivityInterruptHandler 0584  
        ?_CAN1_SetBusWakeUpActivityInterruptHandler 0582           _CAN1_SetBusWakeUpActivityInterruptHandler 3544  
                              end_of_initialization 3186                __size_of_DefaultFIFO1NotEmptyHandler 0006  
                                           memcpy@d 0507                                             memcpy@n 0505  
                                           memcpy@s 0509                              _CAN1_RX_FIFO_ResetInfo 32C0  
                        GetRxFifoDepth@validChannel 0502                                         _C1TRECUbits 000136  
                    __size_of_CAN1_OperationModeGet 000A                      __size_of_CAN1_OperationModeSet 0098  
                     __end_of_CAN1_OperationModeGet 3512                       __end_of_CAN1_OperationModeSet 2F0C  
                      ??_CAN1_RX_FIFO_Configuration 0584                        ReadMessageFromFifo@rxFifoObj 050C  
                                           postdec2 0004DD              __end_of_DefaultRxBufferOverflowHandler 357C  
           __size_of_DefaultRxBufferOverflowHandler 0002                      _DefaultRxBufferOverflowHandler 357A  
                                           postinc0 0004EE                                             postinc2 0004DE  
                          _TMR0_SetInterruptHandler 34F4                  fp__DefaultBusWakeUpActivityHandler 0000  
           __end_of_DefaultBusWakeUpActivityHandler 3582            __size_of_DefaultBusWakeUpActivityHandler 0002  
                 ??_DefaultBusWakeUpActivityHandler 0501                    ?_DefaultBusWakeUpActivityHandler 0501  
                   _DefaultBusWakeUpActivityHandler 3580                                     _CAN1_Initialize 309A  
                                 __size_of_CAN1_ISR 0156                                     _GetRxFifoStatus 3494  
                                  ?_PARAMETERS_Init 0501                 __size_of_CAN1_RX_FIFO_Configuration 002A  
      __end_of_CAN1_RX_FIFO_FilterMaskConfiguration 343E       __size_of_CAN1_RX_FIFO_FilterMaskConfiguration 0022  
             ?_CAN1_RX_FIFO_FilterMaskConfiguration 0501              ??_CAN1_RX_FIFO_FilterMaskConfiguration 0582  
              _CAN1_RX_FIFO_FilterMaskConfiguration 341C                                      _ucASState_prev 054B  
                           _DefaultTxAttemptHandler 3576                          fp__DefaultTxAttemptHandler 0000  
                                       _CANDATAdata 0576                           fp__DefaultBusErrorHandler 0000  
                      __end_of_INTERRUPT_Initialize 3568                                   __size_of_TMR0_ISR 005E  
                                 __size_of_TMR1_ISR 003A                __end_of_CAN1_ReceivedMessageCountGet 2CF4  
             __size_of_CAN1_ReceivedMessageCountGet 00CA                        _CAN1_ReceivedMessageCountGet 2C2A  
                                    __end_of_memcpy 309A                              ?_OSCILLATOR_Initialize 0501  
                          __end_of_TEMPORIZATION_1s 2C2A       __end_of_CAN1_ErrorNotificationInterruptEnable 2F86  
    __size_of_CAN1_ErrorNotificationInterruptEnable 007A              ?_CAN1_ErrorNotificationInterruptEnable 0501  
           ??_CAN1_ErrorNotificationInterruptEnable 0584               _CAN1_ErrorNotificationInterruptEnable 2F0C  
                          _DefaultModeChangeHandler 357C                         fp__DefaultModeChangeHandler 0000  
                                    Receive@channel 0518                                 start_initialization 3144  
                          __size_of_TMR0_Initialize 0028                     __size_of_PIN_MANAGER_Initialize 005C  
                                        ivt0x8_base 0008                                       ?_CAN1_RXI_ISR 0501  
                               _TEMPORIZATION_1mins 3572                             ?_DefaultBusErrorHandler 0501  
        __end_of_CAN1_SetModeChangeInterruptHandler 353A         __size_of_CAN1_SetModeChangeInterruptHandler 000A  
              ??_CAN1_SetModeChangeInterruptHandler 0584                 ?_CAN1_SetModeChangeInterruptHandler 0582  
                _CAN1_SetModeChangeInterruptHandler 3530                         ?_CAN1_TX_FIFO_Configuration 0501  
                                     ?_CAN1_Receive 0522                            __size_of_TMR1_Initialize 0048  
                                  ??_PMD_Initialize 0582                              __size_of_TMR0_CallBack 002E  
                              ?_TEMPORIZATION_1mins 0501                                         __pdataBANK5 0586  
                           __end_of_CAN1_Initialize 30F2                                            ??_memcpy 0507  
                            __size_of_TMR1_CallBack 002E                             __end_of_GetRxFifoStatus 34AC  
                        ?_DefaultSystemErrorHandler 0501                                    ??_GetRxFifoDepth 0501  
                     ?_CAN1_ReceivedMessageCountGet 0501                               TMR1_ISR@CountCallBack 0546  
                                       __pbssCOMRAM 053C                                       __pcstackBANK5 0582  
           CAN1_SetBusErrorInterruptHandler@handler 0582                                            ?_SPEAKER 0501  
                         ??_DefaultTxAttemptHandler 0501                                      ??_CAN1_RXI_ISR 0538  
                                 _TEMPORIZATION_30s 356E                      __end_of_DefaultBusErrorHandler 3584  
                                ?_TEMPORIZATION_30s 0501                  __end_of_CAN1_RX_FIFO_Configuration 33A2  
                        _CAN1_RX_FIFO_Configuration 3378                               _TMR0_InterruptHandler 057E  
                                    ??_CAN1_Receive 0524                                           __pnvBANK5 057E  
                             __end_of_Init_hardware 3218                                            ?_Receive 0518  
                            _PIN_MANAGER_Initialize 2FE4                                 ??_TEMPORIZATION_30s 0501  
                                      _uiCount30min 0544                                        _uiCount15min 0542  
                                          _C1FIFOBA 00014C                    __end_of_TMR1_SetInterruptHandler 34F4  
                                         _ucASState 054C                                            _C1MASK1H 000199  
                                          _C1MASK1L 000198                                            _C1MASK1T 00019B  
                                          _C1MASK1U 00019A                               ??_TEMPORIZATION_1mins 0501  
                     __size_of_TEMPORIZATION_30mins 0002                       __size_of_TEMPORIZATION_15mins 0002  
                      ??_INTERRUPT_InterruptManager 0538                        ?_DefaultFIFO1NotEmptyHandler 0501  
              CAN1_ReceivedMessageCountGet@fifoHead 0509                                      _ucSpeakerCount 054D  
                                          _CAN1_ISR 284E                   __end_of_DefaultSystemErrorHandler 357A  
              CAN1_ReceivedMessageCountGet@fifoTail 0508                                         __smallconst 2600  
                                        _C1FLTCON0H 000181                                          _C1FLTOBJ1H 000195  
                                        _C1FLTOBJ1L 000194                                          _C1FLTOBJ1T 000197  
                                        _C1FLTOBJ1U 000196                                          _C1CONHbits 000101  
                  CAN1_OperationModeSet@requestMode 0584                                            _CANRXPPS 00023D  
                                        _C1CONTbits 000103                                          _C1CONUbits 000102  
                       __size_of_DELAY_milliseconds 0034                           __end_of_TEMPORIZATION_30s 3570  
                    ??_DefaultInvalidMessageHandler 0501                             ?_CAN1_RX_FIFO_ResetInfo 0501  
                           __size_of_CANReadMessage 00D0                                       _TMR0_CallBack 334A  
                                        _C1INTHbits 00011D                                          _C1INTLbits 00011C  
                              _INTERRUPT_Initialize 3564                                          _C1INTTbits 00011F  
                                        _C1INTUbits 00011E                                       _TMR1_CallBack 331C  
              CAN1_ReceivedMessageCountGet@numOfMsg 0504                                   ??_TMR0_Initialize 0584  
                                          _LATBbits 0004BF                                            _LATCbits 0004C0  
                                          _PIE0bits 00049E                                            _PIE3bits 0004A1  
                                          _PIE4bits 0004A2                            __size_of_TMR1_WriteTimer 002E  
                                          i2u120_40 2678                                            i2u120_41 2670  
                                          i2u201_40 290E                                            i2u200_48 28E8  
                                          i2u201_41 290A                                            i2u200_49 28FC  
                                          i2u122_40 26A4                                            i2u121_48 267A  
                                          i2u130_40 29EE                                            i2u122_41 269C  
                                          i2u130_41 29EA                                            i2u203_40 293A  
                                          i2u202_48 2914                                            i2u131_40 2A52  
                                          i2u210_48 33B8                                            i2u211_40 3240  
                                          i2u203_41 2936                                            i2u202_49 2928  
                                          i2u131_41 2A4E                                            i2u210_49 33CA  
                                          i2u211_41 323C                                            i2u124_40 26D2  
                                          i2u123_48 26A6                                            i2u132_40 2A74  
                                          i2u140_40 2DE0                                            i2u212_40 2FA2  
                                          i2u124_41 26CA                                            i2u132_41 2A70  
                                          i2u140_41 2DDA                                            i2u212_41 2F9E  
                                          i2u140_46 2DE2                                            i2u205_40 2964  
                                          i2u204_48 2940                                            i2u117_40 3098  
                                          i2u133_40 312A                                            i2u141_40 2E08  
                                          i2u213_40 2FC2                                            i2u205_41 2960  
                                          i2u204_49 2954                                            i2u117_41 3094  
                                          i2u133_41 3126                                            i2u141_41 2E02  
                                          i2u213_41 2FBE                                            i2u141_46 2E0A  
                                          i2u206_40 2974                                            i2u126_40 274A  
                                          i2u125_48 26D4                                            i2u118_40 264E  
                                          i2u134_40 3140                                            i2u142_40 3264  
                                          i2u214_40 2FD4                                            i2u222_40 2D1E  
                                          i2u206_41 2970                                            i2u126_41 2746  
                                          i2u118_41 2646                                            i2u134_41 313C  
                                          i2u142_41 3260                                            i2u214_41 2FD0  
                                          i2u222_41 2D1A                                            i2u135_40 2C5C  
                                          i2u143_40 3274                                            i2u223_40 2D2C  
                                          i2u135_41 2C58                                            i2u143_41 326E  
                                          i2u223_41 2D28                 __size_of_INTERRUPT_InterruptManager 00C6  
                                          i2u127_45 274C                                            i2u143_46 3276  
                                          i2u208_40 299E                                            i2u207_48 297A  
                                          i2u119_48 2650                                            i2u136_40 2C72  
                                          i2u144_40 2AA6                                            i2u224_40 2D42  
                                          i2u208_41 299A                                            i2u207_49 298E  
                                          i2u136_41 2C6E                                            i2u144_41 2AA2  
                                          i2u224_41 2D3E                                            i2u128_45 2798  
                                          i2u129_40 29C0                                            i2u137_40 2CB6  
                                          i2u145_40 2AC2                                            i2u209_40 33B2  
                                          i2u225_40 2D50                                            i2u129_41 29BC  
                                          i2u137_41 2CB2                                            i2u145_41 2ABE  
                                          i2u209_41 33AE                                            i2u225_41 2D4C  
                                          i2u138_40 2CD4                                            i2u146_40 2B04  
                                          i2u226_40 2D66                                            i2u138_41 2CD0  
                                          i2u146_41 2B00                                            i2u226_41 2D62  
                                          i2u139_40 2CF0                                            i2u227_40 2D74  
                                          i2u139_41 2CEC                                            i2u227_41 2D70  
                                          i2u228_40 2D8A                                            i2u228_41 2D86  
                                          i2u229_40 2D98                          ??_TMR0_SetInterruptHandler 0584  
                                          i2u229_41 2D94                                            i2u190_40 335E  
                                          i2u190_41 335A                                            i2u183_40 32FE  
                                          i2u183_41 32FA                                            _PIR0bits 0004AE  
                                          i2u191_48 3364                                            i2u184_40 3330  
                                          i2u191_49 3376                                            i2u184_41 332C  
                                          i2u193_40 285E                                            i2u193_41 285A  
                                          i2u186_40 2B82                                            i2u185_48 3336  
                                          i2u186_41 2B7E                                            i2u185_49 3348  
                                          i2u195_40 288A                                            i2u194_48 2864  
                                          i2u187_40 2BB4                                            i2u195_41 2886  
                                          i2u194_49 2878                                            i2u187_41 2BB0  
                                         _rxMsgData 056E                                            i2u188_40 2BE6  
                                          i2u188_41 2BE2                                            i2u197_40 28B6  
                                          i2u196_48 2890                                            i2u189_40 2C18  
                                          i2u197_41 28B2                                            i2u196_49 28A4  
                                          i2u189_41 2C14                                            _PIR3bits 0004B1  
                                          i2u199_40 28E2                                            i2u198_48 28BC  
                                          i2u199_41 28DE                                            i2u198_49 28D0  
                                          _PIR4bits 0004B2                      DELAY_milliseconds@milliseconds 0582  
                                          _TMR0_ISR 2F86                                            _TMR1_ISR 3218  
                       __end_of_ReadMessageFromFifo 284E                                    ?_CAN1_Initialize 0501  
                                CAN1_Receive@status 0524                                   ??_TMR1_Initialize 0584  
                                  ?_GetRxFifoStatus 0501                       ??_DefaultFIFO1NotEmptyHandler 0538  
                    __end_of_CAN1_RX_FIFO_ResetInfo 32EE                                      ?_TMR0_CallBack 0501  
                                  __size_of_SPEAKER 003A                                         _INTCON0bits 0004D6  
                             ?_INTERRUPT_Initialize 0501                                      ?_TMR1_CallBack 0501  
                            _ucFlagEmergencySpeaker 054E                                       Receive@status 051D  
                                          __Hrparam 0000                                    __size_of_Receive 00EC  
                                         memcpy@tmp 050B                               _CAN1_OperationModeGet 3508  
                                          __Lrparam 0000                               _CAN1_OperationModeSet 2E74  
                           _CAN1_SystemErrorHandler 0564                          ??_DefaultModeChangeHandler 0501  
                           ??_OSCILLATOR_Initialize 0582                                __end_of_CAN1_RXI_ISR 33CC  
                          _TMR1_SetInterruptHandler 34EA                               _TMR1_InterruptHandler 0580  
                                 ?_TEMPORIZATION_1s 0501                                __end_of_CAN1_Receive 3144  
                                        _T0CON0bits 00031A                                            __pivt0x8 0008  
                                ??_TEMPORIZATION_1s 0501                          __size_of_TEMPORIZATION_30s 0002  
                                       _uiCount1min 0540                                            __ptext10 309A  
                                          __ptext11 34C2                                            __ptext20 351C  
                                          __ptext12 32C0                                            __ptext21 3526  
                                          __ptext13 341C                                          _T1GCONbits 00031F  
                                          __ptext30 2CF4                                            __ptext22 3530  
                                          __ptext14 3378                                            __ptext31 3218  
                                          __ptext23 353A                                            __ptext15 34FE  
                                          __ptext40 3570                                            __ptext32 32EE  
                                          __ptext24 3544                                            __ptext16 2E74  
                                          __ptext41 3572                                            __ptext33 331C  
                                          __ptext25 354E                                            __ptext17 3508  
                                          __ptext50 29A4                                            __ptext42 3574  
                                          __ptext34 356A                                            __ptext26 34D6  
                                          __ptext18 2F0C                                            __ptext51 260E  
                                          __ptext43 33A2                                            __ptext35 2F86  
                                          __ptext27 3558                                            __ptext19 3512  
                                          __ptext60 357E                                            __ptext52 3040  
                                          __ptext44 355E                                            __ptext36 334A  
                                          __ptext28 31D4                                            __ptext61 3580  
                                          __ptext53 3494                                            __ptext45 2A90  
                                          __ptext37 356C                                            __ptext29 328C  
                                          __ptext62 3582                                            __ptext54 345E  
                                          __ptext46 3252                                            __ptext38 2B60  
                                          __ptext63 0000                                            __ptext55 284E  
                                          __ptext47 2DBA                                            __ptext39 356E  
                                          __ptext56 3576                                            __ptext48 2C2A  
                                          __ptext57 3578                                            __ptext49 30F2  
                                          __ptext58 357A                                            __ptext59 357C  
                       CAN1_OperationModeSet@opMode 0582                           ReadMessageFromFifo@status 0517  
                                     __size_of_LEDS 00BA                         CAN1_OperationModeSet@status 0583  
                                     __size_of_main 0016                            __size_of_PARAMETERS_Init 0006  
              __end_of_TMR0_DefaultInterruptHandler 356E               __size_of_TMR0_DefaultInterruptHandler 0002  
                      _TMR0_DefaultInterruptHandler 356C                  __end_of_INTERRUPT_InterruptManager 2DBA  
                        _INTERRUPT_InterruptManager 2CF4                                         _msgTransmit 0556  
                                 ??_TMR1_WriteTimer 0503                         ??_DefaultSystemErrorHandler 0501  
                                   ??_TMR0_CallBack 0501                        _CAN1_RxBufferOverflowHandler 0560  
                                          memcpy@d1 0501                                            memcpy@s1 0503  
                            ??_INTERRUPT_Initialize 0582                                      _CANReadMessage 2A90  
                                   ??_TMR1_CallBack 0501                                            intlevel2 0000  
                                     _C1TXQSTALbits 000154                             ?_PIN_MANAGER_Initialize 0501  
                       ?_CAN1_RX_FIFO_Configuration 0501                  __size_of_CAN1_BitRateConfiguration 0014  
                    ??_CAN1_SetFIFO1NotEmptyHandler 0584                              ?_CAN1_OperationModeGet 0501  
                        ?_CAN1_BitRateConfiguration 0501                              ?_CAN1_OperationModeSet 0501  
                   fp__TMR0_DefaultInterruptHandler 0000                       ?_TMR0_DefaultInterruptHandler 0501  
                       ReadMessageFromFifo@rxCanMsg 050E                                     _TMR0_Initialize 33CC  
                            __end_of_CANReadMessage 2B60                                CAN1_Receive@rxCanMsg 0522  
             CAN1_ReceivedMessageCountGet@fifoDepth 0507                        __end_of_TEMPORIZATION_30mins 3572  
                      __end_of_TEMPORIZATION_15mins 3576     CAN1_SetRxBufferOverFlowInterruptHandler@handler 0582  
                                   _C1FIFOSTA1Lbits 000160                      __end_of_PIN_MANAGER_Initialize 3040  
                    fp__DefaultFIFO1NotEmptyHandler 0000                           _DefaultSystemErrorHandler 3578  
                       __end_of_TEMPORIZATION_1mins 3574                                     _TMR1_Initialize 318C  
                             __size_of_CAN1_RXI_ISR 002A                   __end_of_CAN1_BitRateConfiguration 34EA  
