

Microchip MPLAB XC8 Assembler V2.30 build 20200825195618 
                                                                                               Wed Nov 10 20:25:08 2021

Microchip MPLAB XC8 C Compiler v2.30 (Free license) build 20200825195618 Og1 
     1                           	processor	18F26Q84
     2                           	fnconf	rparam,??,?,0
     3                           	pagewidth 120
     4                           	opt	flic
     5                           	psect	idataBANK5,global,class=CODE,delta=1,noexec
     6                           	psect	smallconst,global,reloc=2,class=SMALLCONST,delta=1,noexec
     7                           	psect	nvCOMRAM,global,class=COMRAM,space=1,delta=1,lowdata,noexec
     8                           	psect	nvBANK5,global,class=BANK5,space=1,delta=1,lowdata,noexec
     9                           	psect	cinit,global,reloc=2,class=CODE,delta=1
    10                           	psect	bssCOMRAM,global,class=COMRAM,space=1,delta=1,lowdata,noexec
    11                           	psect	bssBANK5,global,class=BANK5,space=1,delta=1,lowdata,noexec
    12                           	psect	dataBANK5,global,class=BANK5,space=1,delta=1,lowdata,noexec
    13                           	psect	cstackBANK5,global,class=BANK5,space=1,delta=1,lowdata,noexec
    14                           	psect	cstackCOMRAM,global,class=COMRAM,space=1,delta=1,lowdata,noexec
    15                           	psect	text0,global,reloc=2,class=CODE,delta=1
    16                           	psect	text1,global,reloc=2,class=CODE,delta=1
    17                           	psect	text2,global,reloc=2,class=CODE,delta=1
    18                           	psect	text3,global,reloc=2,class=CODE,delta=1
    19                           	psect	text4,global,reloc=2,class=CODE,delta=1
    20                           	psect	text5,global,reloc=2,class=CODE,delta=1
    21                           	psect	text6,global,reloc=2,class=CODE,delta=1
    22                           	psect	text7,global,reloc=2,class=CODE,delta=1
    23                           	psect	text8,global,reloc=2,class=CODE,delta=1
    24                           	psect	text9,global,reloc=2,class=CODE,delta=1
    25                           	psect	text10,global,reloc=2,class=CODE,delta=1
    26                           	psect	text11,global,reloc=2,class=CODE,delta=1
    27                           	psect	text12,global,reloc=2,class=CODE,delta=1
    28                           	psect	text13,global,reloc=2,class=CODE,delta=1
    29                           	psect	text14,global,reloc=2,class=CODE,delta=1
    30                           	psect	text15,global,reloc=2,class=CODE,delta=1
    31                           	psect	text16,global,reloc=2,class=CODE,delta=1
    32                           	psect	text17,global,reloc=2,class=CODE,delta=1
    33                           	psect	text18,global,reloc=2,class=CODE,delta=1
    34                           	psect	text19,global,reloc=2,class=CODE,delta=1
    35                           	psect	text20,global,reloc=2,class=CODE,delta=1
    36                           	psect	text21,global,reloc=2,class=CODE,delta=1
    37                           	psect	text22,global,reloc=2,class=CODE,delta=1
    38                           	psect	text23,global,reloc=2,class=CODE,delta=1
    39                           	psect	text24,global,reloc=2,class=CODE,delta=1
    40                           	psect	text25,global,reloc=2,class=CODE,delta=1
    41                           	psect	text26,global,reloc=2,class=CODE,delta=1
    42                           	psect	text27,global,reloc=2,class=CODE,delta=1
    43                           	psect	text28,global,reloc=2,class=CODE,delta=1
    44                           	psect	text29,global,reloc=2,class=CODE,delta=1
    45                           	psect	text30,global,reloc=2,class=CODE,delta=1
    46                           	psect	text31,global,reloc=2,class=CODE,delta=1
    47                           	psect	text32,global,reloc=2,class=CODE,delta=1
    48                           	psect	text33,global,reloc=2,class=CODE,delta=1
    49                           	psect	text34,global,reloc=2,class=CODE,delta=1
    50                           	psect	text35,global,reloc=2,class=CODE,delta=1
    51                           	psect	text36,global,reloc=2,class=CODE,delta=1
    52                           	psect	text37,global,reloc=2,class=CODE,delta=1
    53                           	psect	text38,global,reloc=2,class=CODE,delta=1
    54                           	psect	text39,global,reloc=2,class=CODE,delta=1
    55                           	psect	text40,global,reloc=2,class=CODE,delta=1
    56                           	psect	text41,global,reloc=2,class=CODE,delta=1
    57                           	psect	text42,global,reloc=2,class=CODE,delta=1
    58                           	psect	text43,global,reloc=2,class=CODE,delta=1
    59                           	psect	text44,global,reloc=2,class=CODE,delta=1,group=2
    60                           	psect	text45,global,reloc=2,class=CODE,delta=1
    61                           	psect	text46,global,reloc=2,class=CODE,delta=1
    62                           	psect	text47,global,reloc=2,class=CODE,delta=1
    63                           	psect	text48,global,reloc=2,class=CODE,delta=1
    64                           	psect	text49,global,reloc=2,class=CODE,delta=1
    65                           	psect	text50,global,reloc=2,class=CODE,delta=1
    66                           	psect	text51,global,reloc=2,class=CODE,delta=1
    67                           	psect	text52,global,reloc=2,class=CODE,delta=1
    68                           	psect	text53,global,reloc=2,class=CODE,delta=1
    69                           	psect	text54,global,reloc=2,class=CODE,delta=1
    70                           	psect	ivt0x8,global,reloc=2,class=CODE,delta=1,noexec,keep,optim=
    71                           	psect	intsave_regs,global,class=BIGRAM,space=1,delta=1,noexec
    72                           	psect	text55,global,reloc=2,class=CODE,delta=1
    73                           	psect	rparam,global,class=COMRAM,space=1,delta=1,noexec
    74                           	psect	idloc,global,abs,ovrld,class=IDLOC,space=5,delta=1,noexec
    75                           	psect	config,global,abs,ovrld,class=CONFIG,space=4,delta=1,noexec
    76  0000                     
    77                           ; Version 2.32
    78                           ; Generated 10/02/2021 GMT
    79                           ; 
    80                           ; Copyright © 2021, Microchip Technology Inc. and its subsidiaries ("Microchip")
    81                           ; All rights reserved.
    82                           ; 
    83                           ; This software is developed by Microchip Technology Inc. and its subsidiaries ("Microch
      +                          ip").
    84                           ; 
    85                           ; Redistribution and use in source and binary forms, with or without modification, are
    86                           ; permitted provided that the following conditions are met:
    87                           ; 
    88                           ;     1. Redistributions of source code must retain the above copyright notice, this lis
      +                          t of
    89                           ;        conditions and the following disclaimer.
    90                           ; 
    91                           ;     2. Redistributions in binary form must reproduce the above copyright notice, this 
      +                          list
    92                           ;        of conditions and the following disclaimer in the documentation and/or other
    93                           ;        materials provided with the distribution. Publication is not required when
    94                           ;        this file is used in an embedded application.
    95                           ; 
    96                           ;     3. Microchip's name may not be used to endorse or promote products derived from th
      +                          is
    97                           ;        software without specific prior written permission.
    98                           ; 
    99                           ; THIS SOFTWARE IS PROVIDED BY MICROCHIP "AS IS" AND ANY EXPRESS OR IMPLIED WARRANTIES,
   100                           ; INCLUDING, BUT NOT LIMITED TO, THE IMPLIED WARRANTIES OF MERCHANTABILITY AND FITNESS F
      +                          OR
   101                           ; PURPOSE ARE DISCLAIMED.  IN NO EVENT SHALL MICROCHIP BE LIABLE FOR ANY DIRECT, INDIREC
      +                          T,
   102                           ; INCIDENTAL, SPECIAL, EXEMPLARY, OR CONSEQUENTIAL DAMAGES (INCLUDING BUT NOT LIMITED TO
   103                           ; PROCUREMENT OF SUBSTITUTE GOODS OR SERVICES; LOSS OF USE, DATA OR PROFITS; OR BUSINESS
   104                           ; INTERRUPTION) HOWSOEVER CAUSED AND ON ANY THEORY OF LIABILITY, WHETHER IN CONTRACT, ST
      +                          RICT
   105                           ; LIABILITY, OR TORT (INCLUDING NEGLIGENCE OR OTHERWISE) ARISING IN ANY WAY OUT OF THE U
      +                          SE OF
   106                           ; THIS SOFTWARE, EVEN IF ADVISED OF THE POSSIBILITY OF SUCH DAMAGE.
   107                           ; 
   108                           ; 
   109                           ; Code-generator required, PIC18F26Q84 Definitions
   110                           ; 
   111                           ; SFR Addresses
   112  0000                     
   113                           	psect	idataBANK5
   114  003480                     __pidataBANK5:
   115                           	callstack 0
   116                           
   117                           ;initializer for _rxFifos
   118  003480  01                 	db	1
   119  003481  00                 	db	0
   120                           
   121                           	psect	smallconst
   122  002600                     __psmallconst:
   123                           	callstack 0
   124  002600  00                 	db	0
   125  002601                     _DLC_BYTES:
   126                           	callstack 0
   127  002601  00                 	db	0
   128  002602  01                 	db	1
   129  002603  02                 	db	2
   130  002604  03                 	db	3
   131  002605  04                 	db	4
   132  002606  05                 	db	5
   133  002607  06                 	db	6
   134  002608  07                 	db	7
   135  002609  08                 	db	8
   136  00260A                     __end_of_DLC_BYTES:
   137                           	callstack 0
   138  00260A  50                 	db	80
   139  00260B  01                 	db	1
   140  00260C                     __end_of_FIFO:
   141                           	callstack 0
   142  00260C  00                 	db	0	; dummy byte at the end
   143  0000                     
   144                           	psect	nvCOMRAM
   145  00055B                     __pnvCOMRAM:
   146                           	callstack 0
   147  00055B                     _timer1ReloadVal:
   148                           	callstack 0
   149  00055B                     	ds	2
   150                           
   151                           	psect	nvBANK5
   152  00057B                     __pnvBANK5:
   153                           	callstack 0
   154  00057B                     _TMR0_InterruptHandler:
   155                           	callstack 0
   156  00057B                     	ds	2
   157  00057D                     _TMR1_InterruptHandler:
   158                           	callstack 0
   159  00057D                     	ds	2
   160  0000                     _PMD8	set	104
   161  0000                     _PMD7	set	103
   162  0000                     _PMD6	set	102
   163  0000                     _PMD5	set	101
   164  0000                     _PMD4	set	100
   165  0000                     _PMD3	set	99
   166  0000                     _PMD2	set	98
   167  0000                     _PMD1	set	97
   168  0000                     _PMD0	set	96
   169  0000                     _OSCTUNE	set	176
   170  0000                     _OSCFRQ	set	177
   171  0000                     _OSCEN	set	179
   172  0000                     _OSCCON3	set	175
   173  0000                     _OSCCON1	set	173
   174  0000                     _C1FIFOBA	set	332
   175  0000                     _C1FIFOSTA1Lbits	set	352
   176  0000                     _C1TXQSTALbits	set	340
   177  0000                     _C1INTLbits	set	284
   178  0000                     _C1INTTbits	set	287
   179  0000                     _C1TRECUbits	set	310
   180  0000                     _C1CONUbits	set	258
   181  0000                     _C1INTHbits	set	285
   182  0000                     _C1CONTbits	set	259
   183  0000                     _C1CONU	set	258
   184  0000                     _C1CONH	set	257
   185  0000                     _C1CONL	set	256
   186  0000                     _C1CONHbits	set	257
   187  0000                     _C1INTT	set	287
   188  0000                     _C1INTU	set	286
   189  0000                     _C1INTH	set	285
   190  0000                     _C1INTL	set	284
   191  0000                     _C1NBTCFGT	set	263
   192  0000                     _C1NBTCFGU	set	262
   193  0000                     _C1NBTCFGH	set	261
   194  0000                     _C1NBTCFGL	set	260
   195  0000                     _C1TXQCONT	set	339
   196  0000                     _C1TXQCONU	set	338
   197  0000                     _C1TXQCONH	set	337
   198  0000                     _C1INTUbits	set	286
   199  0000                     _C1FIFOCON1T	set	351
   200  0000                     _C1FIFOCON1U	set	350
   201  0000                     _C1FIFOCON1H	set	349
   202  0000                     _C1FIFOCON1L	set	348
   203  0000                     _C1TXQCONL	set	336
   204  0000                     _RB4PPS	set	525
   205  0000                     _CANRXPPS	set	573
   206  0000                     _T0CON0bits	set	794
   207  0000                     _T0CON0	set	794
   208  0000                     _TMR0L	set	792
   209  0000                     _TMR0H	set	793
   210  0000                     _T0CON1	set	795
   211  0000                     _T1GCONbits	set	799
   212  0000                     _T1CONbits	set	798
   213  0000                     _T1CON	set	798
   214  0000                     _TMR1L	set	796
   215  0000                     _TMR1H	set	797
   216  0000                     _T1CLK	set	801
   217  0000                     _T1GATE	set	800
   218  0000                     _T1GCON	set	799
   219  0000                     _INLVLE	set	1060
   220  0000                     _INLVLC	set	1044
   221  0000                     _INLVLB	set	1036
   222  0000                     _INLVLA	set	1028
   223  0000                     _SLRCONC	set	1043
   224  0000                     _SLRCONB	set	1035
   225  0000                     _SLRCONA	set	1027
   226  0000                     _ODCONC	set	1042
   227  0000                     _ODCONB	set	1034
   228  0000                     _ODCONA	set	1026
   229  0000                     _WPUC	set	1041
   230  0000                     _WPUA	set	1025
   231  0000                     _WPUB	set	1033
   232  0000                     _WPUE	set	1057
   233  0000                     _ANSELA	set	1024
   234  0000                     _ANSELB	set	1032
   235  0000                     _ANSELC	set	1040
   236  0000                     _LATBbits	set	1215
   237  0000                     _TRISC	set	1224
   238  0000                     _TRISB	set	1223
   239  0000                     _TRISA	set	1222
   240  0000                     _TRISE	set	1226
   241  0000                     _LATC	set	1216
   242  0000                     _LATB	set	1215
   243  0000                     _LATA	set	1214
   244  0000                     _INTCON0bits	set	1238
   245  0000                     _PIE3bits	set	1185
   246  0000                     _PIR3bits	set	1201
   247  0000                     _LATCbits	set	1216
   248  0000                     _PIE0bits	set	1182
   249  0000                     _PIR0bits	set	1198
   250  0000                     _PIE4bits	set	1186
   251  0000                     _PIR4bits	set	1202
   252                           
   253                           ; #config settings
   254                           
   255                           	psect	cinit
   256  0030E4                     __pcinit:
   257                           	callstack 0
   258  0030E4                     start_initialization:
   259                           	callstack 0
   260  0030E4                     __initialization:
   261                           	callstack 0
   262                           
   263                           ; Initialize objects allocated to BANK5 (2 bytes)
   264                           ; load TBLPTR registers with __pidataBANK5
   265  0030E4  0E80               	movlw	low __pidataBANK5
   266  0030E6  6EF6               	movwf	tblptrl,c
   267  0030E8  0E34               	movlw	high __pidataBANK5
   268  0030EA  6EF7               	movwf	tblptrh,c
   269  0030EC  0E00               	movlw	low (__pidataBANK5 shr (0+16))
   270  0030EE  6EF8               	movwf	tblptru,c
   271  0030F0  0009               	tblrd		*+	;fetch initializer
   272  0030F2  0061 F3D4  F57F    	movff	tablat,__pdataBANK5
   273  0030F8  0009               	tblrd		*+	;fetch initializer
   274  0030FA  0061 F3D4  F580    	movff	tablat,__pdataBANK5+1
   275                           
   276                           ; Clear objects allocated to BANK5 (22 bytes)
   277  003100  EE01  F160         	lfsr	0,__pbssBANK5
   278  003104  0E16               	movlw	22
   279  003106                     clear_0:
   280  003106  6AEE               	clrf	postinc0,c
   281  003108  06E8               	decf	wreg,f,c
   282  00310A  E1FD               	bnz	clear_0
   283                           
   284                           ; Clear objects allocated to COMRAM (31 bytes)
   285  00310C  EE01  F13C         	lfsr	0,__pbssCOMRAM
   286  003110  0E1F               	movlw	31
   287  003112                     clear_1:
   288  003112  6AEE               	clrf	postinc0,c
   289  003114  06E8               	decf	wreg,f,c
   290  003116  E1FD               	bnz	clear_1
   291                           
   292                           ;
   293                           ; Setup IVTBASE
   294                           ;
   295  003118  0104               	movlb	4
   296  00311A  0E08               	movlw	(ivt0x8_base shr 0)& (0+255)
   297  00311C  6F5D               	movwf	93,b
   298  00311E  0E00               	movlw	(ivt0x8_base shr (0+8))& (0+255)
   299  003120  6F5E               	movwf	94,b
   300  003122  0E00               	movlw	(ivt0x8_base shr (0+16))& (0+255)
   301  003124  6F5F               	movwf	95,b
   302  003126                     end_of_initialization:
   303                           	callstack 0
   304  003126                     __end_of__initialization:
   305                           	callstack 0
   306  003126  0100               	movlb	0
   307  003128  EFD2  F014         	goto	_main	;jump to C main() function
   308                           
   309                           	psect	bssCOMRAM
   310  00053C                     __pbssCOMRAM:
   311                           	callstack 0
   312  00053C                     TMR0_ISR@CountCallBack:
   313                           	callstack 0
   314  00053C                     	ds	2
   315  00053E                     TMR1_ISR@CountCallBack:
   316                           	callstack 0
   317  00053E                     	ds	2
   318  000540                     _CAN1_FIFO1NotEmptyHandler:
   319                           	callstack 0
   320  000540                     	ds	2
   321  000542                     _ucASState:
   322                           	callstack 0
   323  000542                     	ds	1
   324  000543                     _ucSpeakerCount:
   325                           	callstack 0
   326  000543                     	ds	1
   327  000544                     _ucFlagEmergencySpeaker:
   328                           	callstack 0
   329  000544                     	ds	1
   330  000545                     _CANDATAdata:
   331                           	callstack 0
   332  000545                     	ds	8
   333  00054D                     _msgReceipt:
   334                           	callstack 0
   335  00054D                     	ds	7
   336  000554                     _msgTransmit:
   337                           	callstack 0
   338  000554                     	ds	7
   339                           
   340                           	psect	bssBANK5
   341  000560                     __pbssBANK5:
   342                           	callstack 0
   343  000560                     _CAN1_RxBufferOverflowHandler:
   344                           	callstack 0
   345  000560                     	ds	2
   346  000562                     _CAN1_TxAttemptHandler:
   347                           	callstack 0
   348  000562                     	ds	2
   349  000564                     _CAN1_SystemErrorHandler:
   350                           	callstack 0
   351  000564                     	ds	2
   352  000566                     _CAN1_ModeChangeHandler:
   353                           	callstack 0
   354  000566                     	ds	2
   355  000568                     _CAN1_BusErrorHandler:
   356                           	callstack 0
   357  000568                     	ds	2
   358  00056A                     _CAN1_BusWakeUpActivityHandler:
   359                           	callstack 0
   360  00056A                     	ds	2
   361  00056C                     _CAN1_InvalidMessageHandler:
   362                           	callstack 0
   363  00056C                     	ds	2
   364  00056E                     _rxMsgData:
   365                           	callstack 0
   366  00056E                     	ds	8
   367                           
   368                           	psect	dataBANK5
   369  00057F                     __pdataBANK5:
   370                           	callstack 0
   371  00057F                     _rxFifos:
   372                           	callstack 0
   373  00057F                     	ds	2
   374                           
   375                           	psect	cstackBANK5
   376  000576                     __pcstackBANK5:
   377                           	callstack 0
   378  000576                     CAN1_RX_FIFO_ResetInfo@index:
   379                           	callstack 0
   380  000576                     CAN1_OperationModeSet@opMode:
   381                           	callstack 0
   382  000576                     CAN1_SetInvalidMessageInterruptHandler@handler:
   383                           	callstack 0
   384  000576                     CAN1_SetBusWakeUpActivityInterruptHandler@handler:
   385                           	callstack 0
   386  000576                     CAN1_SetBusErrorInterruptHandler@handler:
   387                           	callstack 0
   388  000576                     CAN1_SetModeChangeInterruptHandler@handler:
   389                           	callstack 0
   390  000576                     CAN1_SetSystemErrorInterruptHandler@handler:
   391                           	callstack 0
   392  000576                     CAN1_SetTxAttemptInterruptHandler@handler:
   393                           	callstack 0
   394  000576                     CAN1_SetRxBufferOverFlowInterruptHandler@handler:
   395                           	callstack 0
   396  000576                     CAN1_SetFIFO1NotEmptyHandler@handler:
   397                           	callstack 0
   398  000576                     TMR1_SetInterruptHandler@InterruptHandler:
   399                           	callstack 0
   400  000576                     TMR0_SetInterruptHandler@InterruptHandler:
   401                           	callstack 0
   402  000576                     DELAY_milliseconds@milliseconds:
   403                           	callstack 0
   404                           
   405                           ; 2 bytes @ 0x0
   406  000576                     	ds	1
   407  000577                     CAN1_OperationModeSet@status:
   408                           	callstack 0
   409                           
   410                           ; 1 bytes @ 0x1
   411  000577                     	ds	1
   412  000578                     ??_TMR1_Initialize:
   413  000578                     ??_DELAY_milliseconds:
   414  000578                     CAN1_OperationModeSet@requestMode:
   415                           	callstack 0
   416                           
   417                           ; 1 bytes @ 0x2
   418  000578                     	ds	1
   419  000579                     
   420                           ; 1 bytes @ 0x3
   421  000579                     	ds	1
   422  00057A                     ??_main:
   423                           
   424                           ; 1 bytes @ 0x4
   425  00057A                     	ds	1
   426                           
   427                           	psect	cstackCOMRAM
   428  000501                     __pcstackCOMRAM:
   429                           	callstack 0
   430  000501                     ??_SPEAKER:
   431  000501                     ??_GetRxFifoDepth:
   432  000501                     GetRxFifoStatus@validChannel:
   433                           	callstack 0
   434  000501                     TMR1_WriteTimer@timerVal:
   435                           	callstack 0
   436  000501                     memcpy@d1:
   437                           	callstack 0
   438                           
   439                           ; 2 bytes @ 0x0
   440  000501                     	ds	1
   441  000502                     GetRxFifoDepth@validChannel:
   442                           	callstack 0
   443                           
   444                           ; 1 bytes @ 0x1
   445  000502                     	ds	1
   446  000503                     CAN1_ReceivedMessageCountGet@totalMsgObj:
   447                           	callstack 0
   448  000503                     memcpy@s1:
   449                           	callstack 0
   450                           
   451                           ; 2 bytes @ 0x2
   452  000503                     	ds	1
   453  000504                     CAN1_ReceivedMessageCountGet@numOfMsg:
   454                           	callstack 0
   455                           
   456                           ; 1 bytes @ 0x3
   457  000504                     	ds	1
   458  000505                     CAN1_ReceivedMessageCountGet@rxMsgStatus:
   459                           	callstack 0
   460  000505                     memcpy@n:
   461                           	callstack 0
   462                           
   463                           ; 2 bytes @ 0x4
   464  000505                     	ds	1
   465  000506                     CAN1_ReceivedMessageCountGet@channel:
   466                           	callstack 0
   467                           
   468                           ; 1 bytes @ 0x5
   469  000506                     	ds	1
   470  000507                     CAN1_ReceivedMessageCountGet@fifoDepth:
   471                           	callstack 0
   472  000507                     memcpy@d:
   473                           	callstack 0
   474                           
   475                           ; 2 bytes @ 0x6
   476  000507                     	ds	1
   477  000508                     CAN1_ReceivedMessageCountGet@fifoTail:
   478                           	callstack 0
   479                           
   480                           ; 1 bytes @ 0x7
   481  000508                     	ds	1
   482  000509                     CAN1_ReceivedMessageCountGet@fifoHead:
   483                           	callstack 0
   484  000509                     memcpy@s:
   485                           	callstack 0
   486                           
   487                           ; 2 bytes @ 0x8
   488  000509                     	ds	1
   489  00050A                     CAN1_ReceivedMessageCountGet@index:
   490                           	callstack 0
   491                           
   492                           ; 1 bytes @ 0x9
   493  00050A                     	ds	1
   494  00050B                     memcpy@tmp:
   495                           	callstack 0
   496                           
   497                           ; 1 bytes @ 0xA
   498  00050B                     	ds	1
   499  00050C                     ReadMessageFromFifo@rxFifoObj:
   500                           	callstack 0
   501                           
   502                           ; 2 bytes @ 0xB
   503  00050C                     	ds	2
   504  00050E                     ReadMessageFromFifo@rxCanMsg:
   505                           	callstack 0
   506                           
   507                           ; 2 bytes @ 0xD
   508  00050E                     	ds	2
   509  000510                     ??_ReadMessageFromFifo:
   510                           
   511                           ; 1 bytes @ 0xF
   512  000510                     	ds	3
   513  000513                     ReadMessageFromFifo@msgId:
   514                           	callstack 0
   515                           
   516                           ; 4 bytes @ 0x12
   517  000513                     	ds	4
   518  000517                     ReadMessageFromFifo@status:
   519                           	callstack 0
   520                           
   521                           ; 1 bytes @ 0x16
   522  000517                     	ds	1
   523  000518                     Receive@channel:
   524                           	callstack 0
   525                           
   526                           ; 1 bytes @ 0x17
   527  000518                     	ds	1
   528  000519                     Receive@rxCanMsg:
   529                           	callstack 0
   530                           
   531                           ; 2 bytes @ 0x18
   532  000519                     	ds	2
   533  00051B                     ??_Receive:
   534                           
   535                           ; 1 bytes @ 0x1A
   536  00051B                     	ds	2
   537  00051D                     Receive@status:
   538                           	callstack 0
   539                           
   540                           ; 1 bytes @ 0x1C
   541  00051D                     	ds	1
   542  00051E                     Receive@rxFifoObj:
   543                           	callstack 0
   544                           
   545                           ; 2 bytes @ 0x1D
   546  00051E                     	ds	2
   547  000520                     Receive@rxMsgStatus:
   548                           	callstack 0
   549                           
   550                           ; 1 bytes @ 0x1F
   551  000520                     	ds	1
   552  000521                     Receive@index:
   553                           	callstack 0
   554                           
   555                           ; 1 bytes @ 0x20
   556  000521                     	ds	1
   557  000522                     CAN1_Receive@rxCanMsg:
   558                           	callstack 0
   559                           
   560                           ; 2 bytes @ 0x21
   561  000522                     	ds	2
   562  000524                     CAN1_Receive@status:
   563                           	callstack 0
   564                           
   565                           ; 1 bytes @ 0x23
   566  000524                     	ds	1
   567  000525                     CAN1_Receive@index:
   568                           	callstack 0
   569                           
   570                           ; 1 bytes @ 0x24
   571  000525                     	ds	1
   572  000526                     ??_CANReadMessage:
   573                           
   574                           ; 1 bytes @ 0x25
   575  000526                     	ds	13
   576  000533                     CANReadMessage@id:
   577                           	callstack 0
   578                           
   579                           ; 4 bytes @ 0x32
   580  000533                     	ds	4
   581  000537                     CANReadMessage@data1:
   582                           	callstack 0
   583                           
   584                           ; 1 bytes @ 0x36
   585  000537                     	ds	1
   586  000538                     ??_INTERRUPT_InterruptManager:
   587                           
   588                           ; 1 bytes @ 0x37
   589  000538                     	ds	4
   590                           
   591 ;;
   592 ;;Main: autosize = 0, tempsize = 1, incstack = 0, save=0
   593 ;;
   594 ;; *************** function _main *****************
   595 ;; Defined at:
   596 ;;		line 54 in file "main.c"
   597 ;; Parameters:    Size  Location     Type
   598 ;;		None
   599 ;; Auto vars:     Size  Location     Type
   600 ;;		None
   601 ;; Return value:  Size  Location     Type
   602 ;;                  1    wreg      void 
   603 ;; Registers used:
   604 ;;		wreg, fsr2l, fsr2h, status,2, status,0, prodl, prodh, cstack
   605 ;; Tracked objects:
   606 ;;		On entry : 0/0
   607 ;;		On exit  : 0/0
   608 ;;		Unchanged: 0/0
   609 ;; Data sizes:     COMRAM   BANK5   BANK6   BANK7   BANK8   BANK9  BANK10  BANK11  BANK12  BANK13  BANK14  BANK15  BANK1
      +6  BANK17  BANK18  BANK19  BANK20  BANK21  BANK22  BANK23  BANK24  BANK25  BANK26  BANK27  BANK28  BANK29  BANK30  BANK3
      +1  BANK32  BANK33  BANK34  BANK35  BANK36  BANK37
   610 ;;      Params:         0       0       0       0       0       0       0       0       0       0       0       0       
      +0       0       0       0       0       0       0       0       0       0       0       0       0       0       0       
      +0       0       0       0       0       0       0
   611 ;;      Locals:         0       0       0       0       0       0       0       0       0       0       0       0       
      +0       0       0       0       0       0       0       0       0       0       0       0       0       0       0       
      +0       0       0       0       0       0       0
   612 ;;      Temps:          0       1       0       0       0       0       0       0       0       0       0       0       
      +0       0       0       0       0       0       0       0       0       0       0       0       0       0       0       
      +0       0       0       0       0       0       0
   613 ;;      Totals:         0       1       0       0       0       0       0       0       0       0       0       0       
      +0       0       0       0       0       0       0       0       0       0       0       0       0       0       0       
      +0       0       0       0       0       0       0
   614 ;;Total ram usage:        1 bytes
   615 ;; Hardware stack levels required when called:   11
   616 ;; This function calls:
   617 ;;		_DELAY_milliseconds
   618 ;;		_SYSTEM_Initialize
   619 ;; This function is called by:
   620 ;;		Startup code after reset
   621 ;; This function uses a non-reentrant model
   622 ;;
   623                           
   624                           	psect	text0
   625  0029A4                     __ptext0:
   626                           	callstack 0
   627  0029A4                     _main:
   628                           	callstack 117
   629  0029A4                     
   630                           ;main.c: 57:     SYSTEM_Initialize();
   631  0029A4  ECBC  F019         	call	_SYSTEM_Initialize	;wreg free
   632  0029A8                     
   633                           ;main.c: 64:     (INTCON0bits.GIE = 1);
   634  0029A8  8ED6               	bsf	214,7,c	;volatile
   635  0029AA                     l2870:
   636  0029AA  96C0               	bcf	192,3,c	;volatile
   637  0029AC                     
   638                           ;main.c: 77:         DELAY_milliseconds(100);
   639  0029AC  0E00               	movlw	0
   640  0029AE  0105               	movlb	5	; () banked
   641  0029B0  6F77               	movwf	(DELAY_milliseconds@milliseconds+1)& (0+255),b
   642  0029B2  0E64               	movlw	100
   643  0029B4  6F76               	movwf	DELAY_milliseconds@milliseconds& (0+255),b
   644  0029B6  ECF2  F018         	call	_DELAY_milliseconds	;wreg free
   645  0029BA  86C0               	bsf	192,3,c	;volatile
   646  0029BC                     
   647                           ;main.c: 79:         DELAY_milliseconds(100);
   648  0029BC  0E00               	movlw	0
   649  0029BE  0105               	movlb	5	; () banked
   650  0029C0  6F77               	movwf	(DELAY_milliseconds@milliseconds+1)& (0+255),b
   651  0029C2  0E64               	movlw	100
   652  0029C4  6F76               	movwf	DELAY_milliseconds@milliseconds& (0+255),b
   653  0029C6  ECF2  F018         	call	_DELAY_milliseconds	;wreg free
   654  0029CA  82BF               	bsf	191,1,c	;volatile
   655  0029CC  94BF               	bcf	191,2,c	;volatile
   656  0029CE                     
   657                           ;main.c: 82:         DELAY_milliseconds(100);
   658  0029CE  0E00               	movlw	0
   659  0029D0  0105               	movlb	5	; () banked
   660  0029D2  6F77               	movwf	(DELAY_milliseconds@milliseconds+1)& (0+255),b
   661  0029D4  0E64               	movlw	100
   662  0029D6  6F76               	movwf	DELAY_milliseconds@milliseconds& (0+255),b
   663  0029D8  ECF2  F018         	call	_DELAY_milliseconds	;wreg free
   664  0029DC  B2BF               	btfsc	191,1,c	;volatile
   665  0029DE  EFF3  F014         	goto	u2111
   666  0029E2  EFF6  F014         	goto	u2110
   667  0029E6                     u2111:
   668  0029E6  0E01               	movlw	1
   669  0029E8  EFF7  F014         	goto	u2116
   670  0029EC                     u2110:
   671  0029EC  0E00               	movlw	0
   672  0029EE                     u2116:
   673  0029EE  0AFF               	xorlw	255
   674  0029F0  0105               	movlb	5	; () banked
   675  0029F2  6F7A               	movwf	??_main& (0+255),b
   676  0029F4  477A               	rlncf	??_main& (0+255),f,b
   677  0029F6  50BF               	movf	191,w,c	;volatile
   678  0029F8  197A               	xorwf	??_main& (0+255),w,b
   679  0029FA  0BFD               	andlw	-3
   680  0029FC  197A               	xorwf	??_main& (0+255),w,b
   681  0029FE  6EBF               	movwf	191,c	;volatile
   682  002A00                     
   683                           ; BSR set to: 5
   684  002A00  B4BF               	btfsc	191,2,c	;volatile
   685  002A02  EF05  F015         	goto	u2121
   686  002A06  EF08  F015         	goto	u2120
   687  002A0A                     u2121:
   688  002A0A  0E01               	movlw	1
   689  002A0C  EF09  F015         	goto	u2126
   690  002A10                     u2120:
   691  002A10  0E00               	movlw	0
   692  002A12                     u2126:
   693  002A12  0AFF               	xorlw	255
   694  002A14  6F7A               	movwf	??_main& (0+255),b
   695  002A16  477A               	rlncf	??_main& (0+255),f,b
   696  002A18  477A               	rlncf	??_main& (0+255),f,b
   697  002A1A  50BF               	movf	191,w,c	;volatile
   698  002A1C  197A               	xorwf	??_main& (0+255),w,b
   699  002A1E  0BFB               	andlw	-5
   700  002A20  197A               	xorwf	??_main& (0+255),w,b
   701  002A22  6EBF               	movwf	191,c	;volatile
   702  002A24                     
   703                           ; BSR set to: 5
   704                           ;main.c: 85:         DELAY_milliseconds(100);
   705  002A24  0E00               	movlw	0
   706  002A26  6F77               	movwf	(DELAY_milliseconds@milliseconds+1)& (0+255),b
   707  002A28  0E64               	movlw	100
   708  002A2A  6F76               	movwf	DELAY_milliseconds@milliseconds& (0+255),b
   709  002A2C  ECF2  F018         	call	_DELAY_milliseconds	;wreg free
   710  002A30  B2BF               	btfsc	191,1,c	;volatile
   711  002A32  EF1D  F015         	goto	u2131
   712  002A36  EF20  F015         	goto	u2130
   713  002A3A                     u2131:
   714  002A3A  0E01               	movlw	1
   715  002A3C  EF21  F015         	goto	u2136
   716  002A40                     u2130:
   717  002A40  0E00               	movlw	0
   718  002A42                     u2136:
   719  002A42  0AFF               	xorlw	255
   720  002A44  0105               	movlb	5	; () banked
   721  002A46  6F7A               	movwf	??_main& (0+255),b
   722  002A48  477A               	rlncf	??_main& (0+255),f,b
   723  002A4A  50BF               	movf	191,w,c	;volatile
   724  002A4C  197A               	xorwf	??_main& (0+255),w,b
   725  002A4E  0BFD               	andlw	-3
   726  002A50  197A               	xorwf	??_main& (0+255),w,b
   727  002A52  6EBF               	movwf	191,c	;volatile
   728  002A54                     
   729                           ; BSR set to: 5
   730  002A54  B4BF               	btfsc	191,2,c	;volatile
   731  002A56  EF2F  F015         	goto	u2141
   732  002A5A  EF32  F015         	goto	u2140
   733  002A5E                     u2141:
   734  002A5E  0E01               	movlw	1
   735  002A60  EF33  F015         	goto	u2146
   736  002A64                     u2140:
   737  002A64  0E00               	movlw	0
   738  002A66                     u2146:
   739  002A66  0AFF               	xorlw	255
   740  002A68  6F7A               	movwf	??_main& (0+255),b
   741  002A6A  477A               	rlncf	??_main& (0+255),f,b
   742  002A6C  477A               	rlncf	??_main& (0+255),f,b
   743  002A6E  50BF               	movf	191,w,c	;volatile
   744  002A70  197A               	xorwf	??_main& (0+255),w,b
   745  002A72  0BFB               	andlw	-5
   746  002A74  197A               	xorwf	??_main& (0+255),w,b
   747  002A76  6EBF               	movwf	191,c	;volatile
   748  002A78                     
   749                           ; BSR set to: 5
   750                           ;main.c: 88:         DELAY_milliseconds(100);
   751  002A78  0E00               	movlw	0
   752  002A7A  6F77               	movwf	(DELAY_milliseconds@milliseconds+1)& (0+255),b
   753  002A7C  0E64               	movlw	100
   754  002A7E  6F76               	movwf	DELAY_milliseconds@milliseconds& (0+255),b
   755  002A80  ECF2  F018         	call	_DELAY_milliseconds	;wreg free
   756  002A84  B2BF               	btfsc	191,1,c	;volatile
   757  002A86  EF47  F015         	goto	u2151
   758  002A8A  EF4A  F015         	goto	u2150
   759  002A8E                     u2151:
   760  002A8E  0E01               	movlw	1
   761  002A90  EF4B  F015         	goto	u2156
   762  002A94                     u2150:
   763  002A94  0E00               	movlw	0
   764  002A96                     u2156:
   765  002A96  0AFF               	xorlw	255
   766  002A98  0105               	movlb	5	; () banked
   767  002A9A  6F7A               	movwf	??_main& (0+255),b
   768  002A9C  477A               	rlncf	??_main& (0+255),f,b
   769  002A9E  50BF               	movf	191,w,c	;volatile
   770  002AA0  197A               	xorwf	??_main& (0+255),w,b
   771  002AA2  0BFD               	andlw	-3
   772  002AA4  197A               	xorwf	??_main& (0+255),w,b
   773  002AA6  6EBF               	movwf	191,c	;volatile
   774  002AA8                     
   775                           ; BSR set to: 5
   776  002AA8  B4BF               	btfsc	191,2,c	;volatile
   777  002AAA  EF59  F015         	goto	u2161
   778  002AAE  EF5C  F015         	goto	u2160
   779  002AB2                     u2161:
   780  002AB2  0E01               	movlw	1
   781  002AB4  EF5D  F015         	goto	u2166
   782  002AB8                     u2160:
   783  002AB8  0E00               	movlw	0
   784  002ABA                     u2166:
   785  002ABA  0AFF               	xorlw	255
   786  002ABC  6F7A               	movwf	??_main& (0+255),b
   787  002ABE  477A               	rlncf	??_main& (0+255),f,b
   788  002AC0  477A               	rlncf	??_main& (0+255),f,b
   789  002AC2  50BF               	movf	191,w,c	;volatile
   790  002AC4  197A               	xorwf	??_main& (0+255),w,b
   791  002AC6  0BFB               	andlw	-5
   792  002AC8  197A               	xorwf	??_main& (0+255),w,b
   793  002ACA  6EBF               	movwf	191,c	;volatile
   794  002ACC                     
   795                           ; BSR set to: 5
   796                           ;main.c: 91:         DELAY_milliseconds(100);
   797  002ACC  0E00               	movlw	0
   798  002ACE  6F77               	movwf	(DELAY_milliseconds@milliseconds+1)& (0+255),b
   799  002AD0  0E64               	movlw	100
   800  002AD2  6F76               	movwf	DELAY_milliseconds@milliseconds& (0+255),b
   801  002AD4  ECF2  F018         	call	_DELAY_milliseconds	;wreg free
   802  002AD8  EFD5  F014         	goto	l2870
   803  002ADC  EF0D  F000         	goto	start
   804  002AE0                     __end_of_main:
   805                           	callstack 0
   806                           
   807 ;; *************** function _SYSTEM_Initialize *****************
   808 ;; Defined at:
   809 ;;		line 50 in file "mcc_generated_files/mcc.c"
   810 ;; Parameters:    Size  Location     Type
   811 ;;		None
   812 ;; Auto vars:     Size  Location     Type
   813 ;;		None
   814 ;; Return value:  Size  Location     Type
   815 ;;                  1    wreg      void 
   816 ;; Registers used:
   817 ;;		wreg, fsr2l, fsr2h, status,2, status,0, prodl, prodh, cstack
   818 ;; Tracked objects:
   819 ;;		On entry : 0/0
   820 ;;		On exit  : 0/0
   821 ;;		Unchanged: 0/0
   822 ;; Data sizes:     COMRAM   BANK5   BANK6   BANK7   BANK8   BANK9  BANK10  BANK11  BANK12  BANK13  BANK14  BANK15  BANK1
      +6  BANK17  BANK18  BANK19  BANK20  BANK21  BANK22  BANK23  BANK24  BANK25  BANK26  BANK27  BANK28  BANK29  BANK30  BANK3
      +1  BANK32  BANK33  BANK34  BANK35  BANK36  BANK37
   823 ;;      Params:         0       0       0       0       0       0       0       0       0       0       0       0       
      +0       0       0       0       0       0       0       0       0       0       0       0       0       0       0       
      +0       0       0       0       0       0       0
   824 ;;      Locals:         0       0       0       0       0       0       0       0       0       0       0       0       
      +0       0       0       0       0       0       0       0       0       0       0       0       0       0       0       
      +0       0       0       0       0       0       0
   825 ;;      Temps:          0       0       0       0       0       0       0       0       0       0       0       0       
      +0       0       0       0       0       0       0       0       0       0       0       0       0       0       0       
      +0       0       0       0       0       0       0
   826 ;;      Totals:         0       0       0       0       0       0       0       0       0       0       0       0       
      +0       0       0       0       0       0       0       0       0       0       0       0       0       0       0       
      +0       0       0       0       0       0       0
   827 ;;Total ram usage:        0 bytes
   828 ;; Hardware stack levels used:    1
   829 ;; Hardware stack levels required when called:   10
   830 ;; This function calls:
   831 ;;		_CAN1_Initialize
   832 ;;		_INTERRUPT_Initialize
   833 ;;		_OSCILLATOR_Initialize
   834 ;;		_PIN_MANAGER_Initialize
   835 ;;		_PMD_Initialize
   836 ;;		_TMR0_Initialize
   837 ;;		_TMR1_Initialize
   838 ;; This function is called by:
   839 ;;		_main
   840 ;; This function uses a non-reentrant model
   841 ;;
   842                           
   843                           	psect	text1
   844  003378                     __ptext1:
   845                           	callstack 0
   846  003378                     _SYSTEM_Initialize:
   847                           	callstack 117
   848  003378                     
   849                           ;mcc_generated_files/mcc.c: 52:     INTERRUPT_Initialize();
   850  003378  EC3E  F01A         	call	_INTERRUPT_Initialize	;wreg free
   851  00337C  86C0               	bsf	192,3,c	;volatile
   852  00337E                     
   853                           ;mcc_generated_files/mcc.c: 54:     PMD_Initialize();
   854  00337E  ECA8  F019         	call	_PMD_Initialize	;wreg free
   855  003382                     
   856                           ;mcc_generated_files/mcc.c: 55:     PIN_MANAGER_Initialize();
   857  003382  EC95  F017         	call	_PIN_MANAGER_Initialize	;wreg free
   858  003386                     
   859                           ;mcc_generated_files/mcc.c: 56:     OSCILLATOR_Initialize();
   860  003386  ECDB  F019         	call	_OSCILLATOR_Initialize	;wreg free
   861  00338A                     
   862                           ;mcc_generated_files/mcc.c: 57:     TMR1_Initialize();
   863  00338A  EC96  F018         	call	_TMR1_Initialize	;wreg free
   864  00338E                     
   865                           ;mcc_generated_files/mcc.c: 58:     TMR0_Initialize();
   866  00338E  EC94  F019         	call	_TMR0_Initialize	;wreg free
   867  003392                     
   868                           ;mcc_generated_files/mcc.c: 59:     CAN1_Initialize();
   869  003392  EC1D  F018         	call	_CAN1_Initialize	;wreg free
   870  003396  0012               	return		;funcret
   871  003398                     __end_of_SYSTEM_Initialize:
   872                           	callstack 0
   873                           
   874 ;; *************** function _TMR1_Initialize *****************
   875 ;; Defined at:
   876 ;;		line 64 in file "mcc_generated_files/tmr1.c"
   877 ;; Parameters:    Size  Location     Type
   878 ;;		None
   879 ;; Auto vars:     Size  Location     Type
   880 ;;		None
   881 ;; Return value:  Size  Location     Type
   882 ;;                  1    wreg      void 
   883 ;; Registers used:
   884 ;;		wreg, status,2, status,0, cstack
   885 ;; Tracked objects:
   886 ;;		On entry : 0/0
   887 ;;		On exit  : 0/0
   888 ;;		Unchanged: 0/0
   889 ;; Data sizes:     COMRAM   BANK5   BANK6   BANK7   BANK8   BANK9  BANK10  BANK11  BANK12  BANK13  BANK14  BANK15  BANK1
      +6  BANK17  BANK18  BANK19  BANK20  BANK21  BANK22  BANK23  BANK24  BANK25  BANK26  BANK27  BANK28  BANK29  BANK30  BANK3
      +1  BANK32  BANK33  BANK34  BANK35  BANK36  BANK37
   890 ;;      Params:         0       0       0       0       0       0       0       0       0       0       0       0       
      +0       0       0       0       0       0       0       0       0       0       0       0       0       0       0       
      +0       0       0       0       0       0       0
   891 ;;      Locals:         0       0       0       0       0       0       0       0       0       0       0       0       
      +0       0       0       0       0       0       0       0       0       0       0       0       0       0       0       
      +0       0       0       0       0       0       0
   892 ;;      Temps:          0       2       0       0       0       0       0       0       0       0       0       0       
      +0       0       0       0       0       0       0       0       0       0       0       0       0       0       0       
      +0       0       0       0       0       0       0
   893 ;;      Totals:         0       2       0       0       0       0       0       0       0       0       0       0       
      +0       0       0       0       0       0       0       0       0       0       0       0       0       0       0       
      +0       0       0       0       0       0       0
   894 ;;Total ram usage:        2 bytes
   895 ;; Hardware stack levels used:    1
   896 ;; Hardware stack levels required when called:    8
   897 ;; This function calls:
   898 ;;		_TMR1_SetInterruptHandler
   899 ;; This function is called by:
   900 ;;		_SYSTEM_Initialize
   901 ;; This function uses a non-reentrant model
   902 ;;
   903                           
   904                           	psect	text2
   905  00312C                     __ptext2:
   906                           	callstack 0
   907  00312C                     _TMR1_Initialize:
   908                           	callstack 118
   909  00312C                     
   910                           ;mcc_generated_files/tmr1.c: 69:     T1GCON = 0x00;
   911  00312C  0E00               	movlw	0
   912  00312E  0103               	movlb	3	; () banked
   913  003130  6F1F               	movwf	31,b	;volatile
   914                           
   915                           ;mcc_generated_files/tmr1.c: 72:     T1GATE = 0x00;
   916  003132  0E00               	movlw	0
   917  003134  6F20               	movwf	32,b	;volatile
   918                           
   919                           ;mcc_generated_files/tmr1.c: 75:     T1CLK = 0x01;
   920  003136  0E01               	movlw	1
   921  003138  6F21               	movwf	33,b	;volatile
   922                           
   923                           ;mcc_generated_files/tmr1.c: 78:     TMR1H = 0x0B;
   924  00313A  0E0B               	movlw	11
   925  00313C  6F1D               	movwf	29,b	;volatile
   926                           
   927                           ;mcc_generated_files/tmr1.c: 81:     TMR1L = 0xDC;
   928  00313E  0EDC               	movlw	220
   929  003140  6F1C               	movwf	28,b	;volatile
   930  003142                     
   931                           ; BSR set to: 3
   932                           ;mcc_generated_files/tmr1.c: 84:     PIR3bits.TMR1IF = 0;
   933  003142  98B1               	bcf	177,4,c	;volatile
   934  003144                     
   935                           ; BSR set to: 3
   936                           ;mcc_generated_files/tmr1.c: 87:     timer1ReloadVal=(uint16_t)((TMR1H << 8) | TMR1L);
   937  003144  511C               	movf	28,w,b	;volatile
   938  003146  0060 FC74  F578    	movff	797,??_TMR1_Initialize	;volatile
   939  00314C  0105               	movlb	5	; () banked
   940  00314E  6B79               	clrf	(??_TMR1_Initialize+1)& (0+255),b
   941  003150  C578  F579         	movff	??_TMR1_Initialize,??_TMR1_Initialize+1
   942  003154  6B78               	clrf	??_TMR1_Initialize& (0+255),b
   943  003156  1178               	iorwf	??_TMR1_Initialize& (0+255),w,b
   944  003158  6E5B               	movwf	_timer1ReloadVal^(0+1280),c	;volatile
   945  00315A  5179               	movf	(??_TMR1_Initialize+1)& (0+255),w,b
   946  00315C  6E5C               	movwf	(_timer1ReloadVal+1)^(0+1280),c	;volatile
   947  00315E                     
   948                           ; BSR set to: 5
   949                           ;mcc_generated_files/tmr1.c: 90:     PIE3bits.TMR1IE = 1;
   950  00315E  88A1               	bsf	161,4,c	;volatile
   951  003160                     
   952                           ; BSR set to: 5
   953                           ;mcc_generated_files/tmr1.c: 93:     TMR1_SetInterruptHandler(TMR1_DefaultInterruptHandl
      +                          er);
   954  003160  0E84               	movlw	low _TMR1_DefaultInterruptHandler
   955  003162  6F76               	movwf	TMR1_SetInterruptHandler@InterruptHandler& (0+255),b
   956  003164  0E34               	movlw	high _TMR1_DefaultInterruptHandler
   957  003166  6F77               	movwf	(TMR1_SetInterruptHandler@InterruptHandler+1)& (0+255),b
   958  003168  EC07  F01A         	call	_TMR1_SetInterruptHandler	;wreg free
   959  00316C                     
   960                           ;mcc_generated_files/tmr1.c: 96:     T1CON = 0x21;
   961  00316C  0E21               	movlw	33
   962  00316E  0103               	movlb	3	; () banked
   963  003170  6F1E               	movwf	30,b	;volatile
   964  003172                     
   965                           ; BSR set to: 3
   966  003172  0012               	return		;funcret
   967  003174                     __end_of_TMR1_Initialize:
   968                           	callstack 0
   969                           
   970 ;; *************** function _TMR1_SetInterruptHandler *****************
   971 ;; Defined at:
   972 ;;		line 195 in file "mcc_generated_files/tmr1.c"
   973 ;; Parameters:    Size  Location     Type
   974 ;;  InterruptHan    2    0[BANK5 ] PTR FTN()void 
   975 ;;		 -> TMR1_DefaultInterruptHandler(1), 
   976 ;; Auto vars:     Size  Location     Type
   977 ;;		None
   978 ;; Return value:  Size  Location     Type
   979 ;;                  1    wreg      void 
   980 ;; Registers used:
   981 ;;		wreg, status,2, status,0
   982 ;; Tracked objects:
   983 ;;		On entry : 0/0
   984 ;;		On exit  : 0/0
   985 ;;		Unchanged: 0/0
   986 ;; Data sizes:     COMRAM   BANK5   BANK6   BANK7   BANK8   BANK9  BANK10  BANK11  BANK12  BANK13  BANK14  BANK15  BANK1
      +6  BANK17  BANK18  BANK19  BANK20  BANK21  BANK22  BANK23  BANK24  BANK25  BANK26  BANK27  BANK28  BANK29  BANK30  BANK3
      +1  BANK32  BANK33  BANK34  BANK35  BANK36  BANK37
   987 ;;      Params:         0       2       0       0       0       0       0       0       0       0       0       0       
      +0       0       0       0       0       0       0       0       0       0       0       0       0       0       0       
      +0       0       0       0       0       0       0
   988 ;;      Locals:         0       0       0       0       0       0       0       0       0       0       0       0       
      +0       0       0       0       0       0       0       0       0       0       0       0       0       0       0       
      +0       0       0       0       0       0       0
   989 ;;      Temps:          0       0       0       0       0       0       0       0       0       0       0       0       
      +0       0       0       0       0       0       0       0       0       0       0       0       0       0       0       
      +0       0       0       0       0       0       0
   990 ;;      Totals:         0       2       0       0       0       0       0       0       0       0       0       0       
      +0       0       0       0       0       0       0       0       0       0       0       0       0       0       0       
      +0       0       0       0       0       0       0
   991 ;;Total ram usage:        2 bytes
   992 ;; Hardware stack levels used:    1
   993 ;; Hardware stack levels required when called:    7
   994 ;; This function calls:
   995 ;;		Nothing
   996 ;; This function is called by:
   997 ;;		_TMR1_Initialize
   998 ;; This function uses a non-reentrant model
   999 ;;
  1000                           
  1001                           	psect	text3
  1002  00340E                     __ptext3:
  1003                           	callstack 0
  1004  00340E                     _TMR1_SetInterruptHandler:
  1005                           	callstack 118
  1006  00340E                     
  1007                           ;mcc_generated_files/tmr1.c: 196:     TMR1_InterruptHandler = InterruptHandler;
  1008  00340E  C576  F57D         	movff	TMR1_SetInterruptHandler@InterruptHandler,_TMR1_InterruptHandler
  1009  003412  C577  F57E         	movff	TMR1_SetInterruptHandler@InterruptHandler+1,_TMR1_InterruptHandler+1
  1010  003416  0012               	return		;funcret
  1011  003418                     __end_of_TMR1_SetInterruptHandler:
  1012                           	callstack 0
  1013                           
  1014 ;; *************** function _TMR0_Initialize *****************
  1015 ;; Defined at:
  1016 ;;		line 61 in file "mcc_generated_files/tmr0.c"
  1017 ;; Parameters:    Size  Location     Type
  1018 ;;		None
  1019 ;; Auto vars:     Size  Location     Type
  1020 ;;		None
  1021 ;; Return value:  Size  Location     Type
  1022 ;;                  1    wreg      void 
  1023 ;; Registers used:
  1024 ;;		wreg, status,2, status,0, cstack
  1025 ;; Tracked objects:
  1026 ;;		On entry : 0/0
  1027 ;;		On exit  : 0/0
  1028 ;;		Unchanged: 0/0
  1029 ;; Data sizes:     COMRAM   BANK5   BANK6   BANK7   BANK8   BANK9  BANK10  BANK11  BANK12  BANK13  BANK14  BANK15  BANK1
      +6  BANK17  BANK18  BANK19  BANK20  BANK21  BANK22  BANK23  BANK24  BANK25  BANK26  BANK27  BANK28  BANK29  BANK30  BANK3
      +1  BANK32  BANK33  BANK34  BANK35  BANK36  BANK37
  1030 ;;      Params:         0       0       0       0       0       0       0       0       0       0       0       0       
      +0       0       0       0       0       0       0       0       0       0       0       0       0       0       0       
      +0       0       0       0       0       0       0
  1031 ;;      Locals:         0       0       0       0       0       0       0       0       0       0       0       0       
      +0       0       0       0       0       0       0       0       0       0       0       0       0       0       0       
      +0       0       0       0       0       0       0
  1032 ;;      Temps:          0       0       0       0       0       0       0       0       0       0       0       0       
      +0       0       0       0       0       0       0       0       0       0       0       0       0       0       0       
      +0       0       0       0       0       0       0
  1033 ;;      Totals:         0       0       0       0       0       0       0       0       0       0       0       0       
      +0       0       0       0       0       0       0       0       0       0       0       0       0       0       0       
      +0       0       0       0       0       0       0
  1034 ;;Total ram usage:        0 bytes
  1035 ;; Hardware stack levels used:    1
  1036 ;; Hardware stack levels required when called:    8
  1037 ;; This function calls:
  1038 ;;		_TMR0_SetInterruptHandler
  1039 ;; This function is called by:
  1040 ;;		_SYSTEM_Initialize
  1041 ;; This function uses a non-reentrant model
  1042 ;;
  1043                           
  1044                           	psect	text4
  1045  003328                     __ptext4:
  1046                           	callstack 0
  1047  003328                     _TMR0_Initialize:
  1048                           	callstack 118
  1049  003328                     
  1050                           ;mcc_generated_files/tmr0.c: 66:     T0CON1 = 0x4C;
  1051  003328  0E4C               	movlw	76
  1052  00332A  0103               	movlb	3	; () banked
  1053  00332C  6F1B               	movwf	27,b	;volatile
  1054                           
  1055                           ;mcc_generated_files/tmr0.c: 69:     TMR0H = 0x98;
  1056  00332E  0E98               	movlw	152
  1057  003330  6F19               	movwf	25,b	;volatile
  1058                           
  1059                           ;mcc_generated_files/tmr0.c: 72:     TMR0L = 0x00;
  1060  003332  0E00               	movlw	0
  1061  003334  6F18               	movwf	24,b	;volatile
  1062  003336                     
  1063                           ; BSR set to: 3
  1064                           ;mcc_generated_files/tmr0.c: 75:     PIR3bits.TMR0IF = 0;
  1065  003336  9EB1               	bcf	177,7,c	;volatile
  1066  003338                     
  1067                           ; BSR set to: 3
  1068                           ;mcc_generated_files/tmr0.c: 78:     PIE3bits.TMR0IE = 1;
  1069  003338  8EA1               	bsf	161,7,c	;volatile
  1070  00333A                     
  1071                           ; BSR set to: 3
  1072                           ;mcc_generated_files/tmr0.c: 81:     TMR0_SetInterruptHandler(TMR0_DefaultInterruptHandl
      +                          er);
  1073  00333A  0E86               	movlw	low _TMR0_DefaultInterruptHandler
  1074  00333C  0105               	movlb	5	; () banked
  1075  00333E  6F76               	movwf	TMR0_SetInterruptHandler@InterruptHandler& (0+255),b
  1076  003340  0E34               	movlw	high _TMR0_DefaultInterruptHandler
  1077  003342  6F77               	movwf	(TMR0_SetInterruptHandler@InterruptHandler+1)& (0+255),b
  1078  003344  EC0C  F01A         	call	_TMR0_SetInterruptHandler	;wreg free
  1079  003348                     
  1080                           ;mcc_generated_files/tmr0.c: 84:     T0CON0 = 0x80;
  1081  003348  0E80               	movlw	128
  1082  00334A  0103               	movlb	3	; () banked
  1083  00334C  6F1A               	movwf	26,b	;volatile
  1084  00334E                     
  1085                           ; BSR set to: 3
  1086  00334E  0012               	return		;funcret
  1087  003350                     __end_of_TMR0_Initialize:
  1088                           	callstack 0
  1089                           
  1090 ;; *************** function _TMR0_SetInterruptHandler *****************
  1091 ;; Defined at:
  1092 ;;		line 164 in file "mcc_generated_files/tmr0.c"
  1093 ;; Parameters:    Size  Location     Type
  1094 ;;  InterruptHan    2    0[BANK5 ] PTR FTN()void 
  1095 ;;		 -> TMR0_DefaultInterruptHandler(1), 
  1096 ;; Auto vars:     Size  Location     Type
  1097 ;;		None
  1098 ;; Return value:  Size  Location     Type
  1099 ;;                  1    wreg      void 
  1100 ;; Registers used:
  1101 ;;		wreg, status,2, status,0
  1102 ;; Tracked objects:
  1103 ;;		On entry : 0/0
  1104 ;;		On exit  : 0/0
  1105 ;;		Unchanged: 0/0
  1106 ;; Data sizes:     COMRAM   BANK5   BANK6   BANK7   BANK8   BANK9  BANK10  BANK11  BANK12  BANK13  BANK14  BANK15  BANK1
      +6  BANK17  BANK18  BANK19  BANK20  BANK21  BANK22  BANK23  BANK24  BANK25  BANK26  BANK27  BANK28  BANK29  BANK30  BANK3
      +1  BANK32  BANK33  BANK34  BANK35  BANK36  BANK37
  1107 ;;      Params:         0       2       0       0       0       0       0       0       0       0       0       0       
      +0       0       0       0       0       0       0       0       0       0       0       0       0       0       0       
      +0       0       0       0       0       0       0
  1108 ;;      Locals:         0       0       0       0       0       0       0       0       0       0       0       0       
      +0       0       0       0       0       0       0       0       0       0       0       0       0       0       0       
      +0       0       0       0       0       0       0
  1109 ;;      Temps:          0       0       0       0       0       0       0       0       0       0       0       0       
      +0       0       0       0       0       0       0       0       0       0       0       0       0       0       0       
      +0       0       0       0       0       0       0
  1110 ;;      Totals:         0       2       0       0       0       0       0       0       0       0       0       0       
      +0       0       0       0       0       0       0       0       0       0       0       0       0       0       0       
      +0       0       0       0       0       0       0
  1111 ;;Total ram usage:        2 bytes
  1112 ;; Hardware stack levels used:    1
  1113 ;; Hardware stack levels required when called:    7
  1114 ;; This function calls:
  1115 ;;		Nothing
  1116 ;; This function is called by:
  1117 ;;		_TMR0_Initialize
  1118 ;; This function uses a non-reentrant model
  1119 ;;
  1120                           
  1121                           	psect	text5
  1122  003418                     __ptext5:
  1123                           	callstack 0
  1124  003418                     _TMR0_SetInterruptHandler:
  1125                           	callstack 118
  1126  003418                     
  1127                           ;mcc_generated_files/tmr0.c: 165:     TMR0_InterruptHandler = InterruptHandler;
  1128  003418  C576  F57B         	movff	TMR0_SetInterruptHandler@InterruptHandler,_TMR0_InterruptHandler
  1129  00341C  C577  F57C         	movff	TMR0_SetInterruptHandler@InterruptHandler+1,_TMR0_InterruptHandler+1
  1130  003420  0012               	return		;funcret
  1131  003422                     __end_of_TMR0_SetInterruptHandler:
  1132                           	callstack 0
  1133                           
  1134 ;; *************** function _PMD_Initialize *****************
  1135 ;; Defined at:
  1136 ;;		line 76 in file "mcc_generated_files/mcc.c"
  1137 ;; Parameters:    Size  Location     Type
  1138 ;;		None
  1139 ;; Auto vars:     Size  Location     Type
  1140 ;;		None
  1141 ;; Return value:  Size  Location     Type
  1142 ;;                  1    wreg      void 
  1143 ;; Registers used:
  1144 ;;		wreg, status,2
  1145 ;; Tracked objects:
  1146 ;;		On entry : 0/0
  1147 ;;		On exit  : 0/0
  1148 ;;		Unchanged: 0/0
  1149 ;; Data sizes:     COMRAM   BANK5   BANK6   BANK7   BANK8   BANK9  BANK10  BANK11  BANK12  BANK13  BANK14  BANK15  BANK1
      +6  BANK17  BANK18  BANK19  BANK20  BANK21  BANK22  BANK23  BANK24  BANK25  BANK26  BANK27  BANK28  BANK29  BANK30  BANK3
      +1  BANK32  BANK33  BANK34  BANK35  BANK36  BANK37
  1150 ;;      Params:         0       0       0       0       0       0       0       0       0       0       0       0       
      +0       0       0       0       0       0       0       0       0       0       0       0       0       0       0       
      +0       0       0       0       0       0       0
  1151 ;;      Locals:         0       0       0       0       0       0       0       0       0       0       0       0       
      +0       0       0       0       0       0       0       0       0       0       0       0       0       0       0       
      +0       0       0       0       0       0       0
  1152 ;;      Temps:          0       0       0       0       0       0       0       0       0       0       0       0       
      +0       0       0       0       0       0       0       0       0       0       0       0       0       0       0       
      +0       0       0       0       0       0       0
  1153 ;;      Totals:         0       0       0       0       0       0       0       0       0       0       0       0       
      +0       0       0       0       0       0       0       0       0       0       0       0       0       0       0       
      +0       0       0       0       0       0       0
  1154 ;;Total ram usage:        0 bytes
  1155 ;; Hardware stack levels used:    1
  1156 ;; Hardware stack levels required when called:    7
  1157 ;; This function calls:
  1158 ;;		Nothing
  1159 ;; This function is called by:
  1160 ;;		_SYSTEM_Initialize
  1161 ;; This function uses a non-reentrant model
  1162 ;;
  1163                           
  1164                           	psect	text6
  1165  003350                     __ptext6:
  1166                           	callstack 0
  1167  003350                     _PMD_Initialize:
  1168                           	callstack 119
  1169  003350                     
  1170                           ;mcc_generated_files/mcc.c: 79:     PMD0 = 0x00;
  1171  003350  0E00               	movlw	0
  1172  003352  0100               	movlb	0	; () banked
  1173  003354  6F60               	movwf	96,b	;volatile
  1174                           
  1175                           ;mcc_generated_files/mcc.c: 81:     PMD1 = 0x00;
  1176  003356  0E00               	movlw	0
  1177  003358  6F61               	movwf	97,b	;volatile
  1178                           
  1179                           ;mcc_generated_files/mcc.c: 83:     PMD2 = 0x00;
  1180  00335A  0E00               	movlw	0
  1181  00335C  6F62               	movwf	98,b	;volatile
  1182                           
  1183                           ;mcc_generated_files/mcc.c: 85:     PMD3 = 0x00;
  1184  00335E  0E00               	movlw	0
  1185  003360  6F63               	movwf	99,b	;volatile
  1186                           
  1187                           ;mcc_generated_files/mcc.c: 87:     PMD4 = 0x00;
  1188  003362  0E00               	movlw	0
  1189  003364  6F64               	movwf	100,b	;volatile
  1190                           
  1191                           ;mcc_generated_files/mcc.c: 89:     PMD5 = 0x00;
  1192  003366  0E00               	movlw	0
  1193  003368  6F65               	movwf	101,b	;volatile
  1194                           
  1195                           ;mcc_generated_files/mcc.c: 91:     PMD6 = 0x00;
  1196  00336A  0E00               	movlw	0
  1197  00336C  6F66               	movwf	102,b	;volatile
  1198                           
  1199                           ;mcc_generated_files/mcc.c: 93:     PMD7 = 0x00;
  1200  00336E  0E00               	movlw	0
  1201  003370  6F67               	movwf	103,b	;volatile
  1202                           
  1203                           ;mcc_generated_files/mcc.c: 95:     PMD8 = 0x00;
  1204  003372  0E00               	movlw	0
  1205  003374  6F68               	movwf	104,b	;volatile
  1206  003376                     
  1207                           ; BSR set to: 0
  1208  003376  0012               	return		;funcret
  1209  003378                     __end_of_PMD_Initialize:
  1210                           	callstack 0
  1211                           
  1212 ;; *************** function _PIN_MANAGER_Initialize *****************
  1213 ;; Defined at:
  1214 ;;		line 55 in file "mcc_generated_files/pin_manager.c"
  1215 ;; Parameters:    Size  Location     Type
  1216 ;;		None
  1217 ;; Auto vars:     Size  Location     Type
  1218 ;;		None
  1219 ;; Return value:  Size  Location     Type
  1220 ;;                  1    wreg      void 
  1221 ;; Registers used:
  1222 ;;		wreg, status,2
  1223 ;; Tracked objects:
  1224 ;;		On entry : 0/0
  1225 ;;		On exit  : 0/0
  1226 ;;		Unchanged: 0/0
  1227 ;; Data sizes:     COMRAM   BANK5   BANK6   BANK7   BANK8   BANK9  BANK10  BANK11  BANK12  BANK13  BANK14  BANK15  BANK1
      +6  BANK17  BANK18  BANK19  BANK20  BANK21  BANK22  BANK23  BANK24  BANK25  BANK26  BANK27  BANK28  BANK29  BANK30  BANK3
      +1  BANK32  BANK33  BANK34  BANK35  BANK36  BANK37
  1228 ;;      Params:         0       0       0       0       0       0       0       0       0       0       0       0       
      +0       0       0       0       0       0       0       0       0       0       0       0       0       0       0       
      +0       0       0       0       0       0       0
  1229 ;;      Locals:         0       0       0       0       0       0       0       0       0       0       0       0       
      +0       0       0       0       0       0       0       0       0       0       0       0       0       0       0       
      +0       0       0       0       0       0       0
  1230 ;;      Temps:          0       0       0       0       0       0       0       0       0       0       0       0       
      +0       0       0       0       0       0       0       0       0       0       0       0       0       0       0       
      +0       0       0       0       0       0       0
  1231 ;;      Totals:         0       0       0       0       0       0       0       0       0       0       0       0       
      +0       0       0       0       0       0       0       0       0       0       0       0       0       0       0       
      +0       0       0       0       0       0       0
  1232 ;;Total ram usage:        0 bytes
  1233 ;; Hardware stack levels used:    1
  1234 ;; Hardware stack levels required when called:    7
  1235 ;; This function calls:
  1236 ;;		Nothing
  1237 ;; This function is called by:
  1238 ;;		_SYSTEM_Initialize
  1239 ;; This function uses a non-reentrant model
  1240 ;;
  1241                           
  1242                           	psect	text7
  1243  002F2A                     __ptext7:
  1244                           	callstack 0
  1245  002F2A                     _PIN_MANAGER_Initialize:
  1246                           	callstack 119
  1247  002F2A                     
  1248                           ;mcc_generated_files/pin_manager.c: 60:     LATA = 0x00;
  1249  002F2A  0E00               	movlw	0
  1250  002F2C  6EBE               	movwf	190,c	;volatile
  1251                           
  1252                           ;mcc_generated_files/pin_manager.c: 61:     LATB = 0x00;
  1253  002F2E  0E00               	movlw	0
  1254  002F30  6EBF               	movwf	191,c	;volatile
  1255                           
  1256                           ;mcc_generated_files/pin_manager.c: 62:     LATC = 0x00;
  1257  002F32  0E00               	movlw	0
  1258  002F34  6EC0               	movwf	192,c	;volatile
  1259                           
  1260                           ;mcc_generated_files/pin_manager.c: 67:     TRISE = 0x08;
  1261  002F36  0E08               	movlw	8
  1262  002F38  6ECA               	movwf	202,c	;volatile
  1263  002F3A                     
  1264                           ;mcc_generated_files/pin_manager.c: 68:     TRISA = 0xFF;
  1265  002F3A  68C6               	setf	198,c	;volatile
  1266                           
  1267                           ;mcc_generated_files/pin_manager.c: 69:     TRISB = 0xE9;
  1268  002F3C  0EE9               	movlw	233
  1269  002F3E  6EC7               	movwf	199,c	;volatile
  1270                           
  1271                           ;mcc_generated_files/pin_manager.c: 70:     TRISC = 0xE7;
  1272  002F40  0EE7               	movlw	231
  1273  002F42  6EC8               	movwf	200,c	;volatile
  1274  002F44                     
  1275                           ;mcc_generated_files/pin_manager.c: 75:     ANSELC = 0xFF;
  1276  002F44  0104               	movlb	4	; () banked
  1277  002F46  6910               	setf	16,b	;volatile
  1278                           
  1279                           ;mcc_generated_files/pin_manager.c: 76:     ANSELB = 0xF1;
  1280  002F48  0EF1               	movlw	241
  1281  002F4A  6F08               	movwf	8,b	;volatile
  1282  002F4C                     
  1283                           ; BSR set to: 4
  1284                           ;mcc_generated_files/pin_manager.c: 77:     ANSELA = 0xFF;
  1285  002F4C  6900               	setf	0,b	;volatile
  1286                           
  1287                           ;mcc_generated_files/pin_manager.c: 82:     WPUE = 0x00;
  1288  002F4E  0E00               	movlw	0
  1289  002F50  6F21               	movwf	33,b	;volatile
  1290                           
  1291                           ;mcc_generated_files/pin_manager.c: 83:     WPUB = 0x00;
  1292  002F52  0E00               	movlw	0
  1293  002F54  6F09               	movwf	9,b	;volatile
  1294                           
  1295                           ;mcc_generated_files/pin_manager.c: 84:     WPUA = 0x00;
  1296  002F56  0E00               	movlw	0
  1297  002F58  6F01               	movwf	1,b	;volatile
  1298                           
  1299                           ;mcc_generated_files/pin_manager.c: 85:     WPUC = 0x00;
  1300  002F5A  0E00               	movlw	0
  1301  002F5C  6F11               	movwf	17,b	;volatile
  1302                           
  1303                           ;mcc_generated_files/pin_manager.c: 90:     ODCONA = 0x00;
  1304  002F5E  0E00               	movlw	0
  1305  002F60  6F02               	movwf	2,b	;volatile
  1306                           
  1307                           ;mcc_generated_files/pin_manager.c: 91:     ODCONB = 0x00;
  1308  002F62  0E00               	movlw	0
  1309  002F64  6F0A               	movwf	10,b	;volatile
  1310                           
  1311                           ;mcc_generated_files/pin_manager.c: 92:     ODCONC = 0x00;
  1312  002F66  0E00               	movlw	0
  1313  002F68  6F12               	movwf	18,b	;volatile
  1314  002F6A                     
  1315                           ; BSR set to: 4
  1316                           ;mcc_generated_files/pin_manager.c: 97:     SLRCONA = 0xFF;
  1317  002F6A  6903               	setf	3,b	;volatile
  1318  002F6C                     
  1319                           ; BSR set to: 4
  1320                           ;mcc_generated_files/pin_manager.c: 98:     SLRCONB = 0xFF;
  1321  002F6C  690B               	setf	11,b	;volatile
  1322  002F6E                     
  1323                           ; BSR set to: 4
  1324                           ;mcc_generated_files/pin_manager.c: 99:     SLRCONC = 0xFF;
  1325  002F6E  6913               	setf	19,b	;volatile
  1326  002F70                     
  1327                           ; BSR set to: 4
  1328                           ;mcc_generated_files/pin_manager.c: 104:     INLVLA = 0xFF;
  1329  002F70  6904               	setf	4,b	;volatile
  1330  002F72                     
  1331                           ; BSR set to: 4
  1332                           ;mcc_generated_files/pin_manager.c: 105:     INLVLB = 0xFF;
  1333  002F72  690C               	setf	12,b	;volatile
  1334  002F74                     
  1335                           ; BSR set to: 4
  1336                           ;mcc_generated_files/pin_manager.c: 106:     INLVLC = 0xFF;
  1337  002F74  6914               	setf	20,b	;volatile
  1338                           
  1339                           ;mcc_generated_files/pin_manager.c: 107:     INLVLE = 0x08;
  1340  002F76  0E08               	movlw	8
  1341  002F78  6F24               	movwf	36,b	;volatile
  1342                           
  1343                           ;mcc_generated_files/pin_manager.c: 116:     CANRXPPS = 0x0B;
  1344  002F7A  0E0B               	movlw	11
  1345  002F7C  0102               	movlb	2	; () banked
  1346  002F7E  6F3D               	movwf	61,b	;volatile
  1347                           
  1348                           ;mcc_generated_files/pin_manager.c: 117:     RB4PPS = 0x46;
  1349  002F80  0E46               	movlw	70
  1350  002F82  6F0D               	movwf	13,b	;volatile
  1351  002F84                     
  1352                           ; BSR set to: 2
  1353  002F84  0012               	return		;funcret
  1354  002F86                     __end_of_PIN_MANAGER_Initialize:
  1355                           	callstack 0
  1356                           
  1357 ;; *************** function _OSCILLATOR_Initialize *****************
  1358 ;; Defined at:
  1359 ;;		line 62 in file "mcc_generated_files/mcc.c"
  1360 ;; Parameters:    Size  Location     Type
  1361 ;;		None
  1362 ;; Auto vars:     Size  Location     Type
  1363 ;;		None
  1364 ;; Return value:  Size  Location     Type
  1365 ;;                  1    wreg      void 
  1366 ;; Registers used:
  1367 ;;		wreg, status,2
  1368 ;; Tracked objects:
  1369 ;;		On entry : 0/0
  1370 ;;		On exit  : 0/0
  1371 ;;		Unchanged: 0/0
  1372 ;; Data sizes:     COMRAM   BANK5   BANK6   BANK7   BANK8   BANK9  BANK10  BANK11  BANK12  BANK13  BANK14  BANK15  BANK1
      +6  BANK17  BANK18  BANK19  BANK20  BANK21  BANK22  BANK23  BANK24  BANK25  BANK26  BANK27  BANK28  BANK29  BANK30  BANK3
      +1  BANK32  BANK33  BANK34  BANK35  BANK36  BANK37
  1373 ;;      Params:         0       0       0       0       0       0       0       0       0       0       0       0       
      +0       0       0       0       0       0       0       0       0       0       0       0       0       0       0       
      +0       0       0       0       0       0       0
  1374 ;;      Locals:         0       0       0       0       0       0       0       0       0       0       0       0       
      +0       0       0       0       0       0       0       0       0       0       0       0       0       0       0       
      +0       0       0       0       0       0       0
  1375 ;;      Temps:          0       0       0       0       0       0       0       0       0       0       0       0       
      +0       0       0       0       0       0       0       0       0       0       0       0       0       0       0       
      +0       0       0       0       0       0       0
  1376 ;;      Totals:         0       0       0       0       0       0       0       0       0       0       0       0       
      +0       0       0       0       0       0       0       0       0       0       0       0       0       0       0       
      +0       0       0       0       0       0       0
  1377 ;;Total ram usage:        0 bytes
  1378 ;; Hardware stack levels used:    1
  1379 ;; Hardware stack levels required when called:    7
  1380 ;; This function calls:
  1381 ;;		Nothing
  1382 ;; This function is called by:
  1383 ;;		_SYSTEM_Initialize
  1384 ;; This function uses a non-reentrant model
  1385 ;;
  1386                           
  1387                           	psect	text8
  1388  0033B6                     __ptext8:
  1389                           	callstack 0
  1390  0033B6                     _OSCILLATOR_Initialize:
  1391                           	callstack 119
  1392  0033B6                     
  1393                           ;mcc_generated_files/mcc.c: 65:     OSCCON1 = 0x70;
  1394  0033B6  0E70               	movlw	112
  1395  0033B8  0100               	movlb	0	; () banked
  1396  0033BA  6FAD               	movwf	173,b	;volatile
  1397                           
  1398                           ;mcc_generated_files/mcc.c: 67:     OSCCON3 = 0x00;
  1399  0033BC  0E00               	movlw	0
  1400  0033BE  6FAF               	movwf	175,b	;volatile
  1401                           
  1402                           ;mcc_generated_files/mcc.c: 69:     OSCEN = 0x00;
  1403  0033C0  0E00               	movlw	0
  1404  0033C2  6FB3               	movwf	179,b	;volatile
  1405                           
  1406                           ;mcc_generated_files/mcc.c: 71:     OSCFRQ = 0x02;
  1407  0033C4  0E02               	movlw	2
  1408  0033C6  6FB1               	movwf	177,b	;volatile
  1409                           
  1410                           ;mcc_generated_files/mcc.c: 73:     OSCTUNE = 0x00;
  1411  0033C8  0E00               	movlw	0
  1412  0033CA  6FB0               	movwf	176,b	;volatile
  1413  0033CC                     
  1414                           ; BSR set to: 0
  1415  0033CC  0012               	return		;funcret
  1416  0033CE                     __end_of_OSCILLATOR_Initialize:
  1417                           	callstack 0
  1418                           
  1419 ;; *************** function _INTERRUPT_Initialize *****************
  1420 ;; Defined at:
  1421 ;;		line 52 in file "mcc_generated_files/interrupt_manager.c"
  1422 ;; Parameters:    Size  Location     Type
  1423 ;;		None
  1424 ;; Auto vars:     Size  Location     Type
  1425 ;;		None
  1426 ;; Return value:  Size  Location     Type
  1427 ;;                  1    wreg      void 
  1428 ;; Registers used:
  1429 ;;		None
  1430 ;; Tracked objects:
  1431 ;;		On entry : 0/0
  1432 ;;		On exit  : 0/0
  1433 ;;		Unchanged: 0/0
  1434 ;; Data sizes:     COMRAM   BANK5   BANK6   BANK7   BANK8   BANK9  BANK10  BANK11  BANK12  BANK13  BANK14  BANK15  BANK1
      +6  BANK17  BANK18  BANK19  BANK20  BANK21  BANK22  BANK23  BANK24  BANK25  BANK26  BANK27  BANK28  BANK29  BANK30  BANK3
      +1  BANK32  BANK33  BANK34  BANK35  BANK36  BANK37
  1435 ;;      Params:         0       0       0       0       0       0       0       0       0       0       0       0       
      +0       0       0       0       0       0       0       0       0       0       0       0       0       0       0       
      +0       0       0       0       0       0       0
  1436 ;;      Locals:         0       0       0       0       0       0       0       0       0       0       0       0       
      +0       0       0       0       0       0       0       0       0       0       0       0       0       0       0       
      +0       0       0       0       0       0       0
  1437 ;;      Temps:          0       0       0       0       0       0       0       0       0       0       0       0       
      +0       0       0       0       0       0       0       0       0       0       0       0       0       0       0       
      +0       0       0       0       0       0       0
  1438 ;;      Totals:         0       0       0       0       0       0       0       0       0       0       0       0       
      +0       0       0       0       0       0       0       0       0       0       0       0       0       0       0       
      +0       0       0       0       0       0       0
  1439 ;;Total ram usage:        0 bytes
  1440 ;; Hardware stack levels used:    1
  1441 ;; Hardware stack levels required when called:    7
  1442 ;; This function calls:
  1443 ;;		Nothing
  1444 ;; This function is called by:
  1445 ;;		_SYSTEM_Initialize
  1446 ;; This function uses a non-reentrant model
  1447 ;;
  1448                           
  1449                           	psect	text9
  1450  00347C                     __ptext9:
  1451                           	callstack 0
  1452  00347C                     _INTERRUPT_Initialize:
  1453                           	callstack 119
  1454  00347C                     
  1455                           ;mcc_generated_files/interrupt_manager.c: 55:     INTCON0bits.IPEN = 0;
  1456  00347C  9AD6               	bcf	214,5,c	;volatile
  1457  00347E  0012               	return		;funcret
  1458  003480                     __end_of_INTERRUPT_Initialize:
  1459                           	callstack 0
  1460                           
  1461 ;; *************** function _CAN1_Initialize *****************
  1462 ;; Defined at:
  1463 ;;		line 245 in file "mcc_generated_files/can1.c"
  1464 ;; Parameters:    Size  Location     Type
  1465 ;;		None
  1466 ;; Auto vars:     Size  Location     Type
  1467 ;;		None
  1468 ;; Return value:  Size  Location     Type
  1469 ;;                  1    wreg      void 
  1470 ;; Registers used:
  1471 ;;		wreg, fsr2l, fsr2h, status,2, status,0, prodl, prodh, cstack
  1472 ;; Tracked objects:
  1473 ;;		On entry : 0/0
  1474 ;;		On exit  : 0/0
  1475 ;;		Unchanged: 0/0
  1476 ;; Data sizes:     COMRAM   BANK5   BANK6   BANK7   BANK8   BANK9  BANK10  BANK11  BANK12  BANK13  BANK14  BANK15  BANK1
      +6  BANK17  BANK18  BANK19  BANK20  BANK21  BANK22  BANK23  BANK24  BANK25  BANK26  BANK27  BANK28  BANK29  BANK30  BANK3
      +1  BANK32  BANK33  BANK34  BANK35  BANK36  BANK37
  1477 ;;      Params:         0       0       0       0       0       0       0       0       0       0       0       0       
      +0       0       0       0       0       0       0       0       0       0       0       0       0       0       0       
      +0       0       0       0       0       0       0
  1478 ;;      Locals:         0       0       0       0       0       0       0       0       0       0       0       0       
      +0       0       0       0       0       0       0       0       0       0       0       0       0       0       0       
      +0       0       0       0       0       0       0
  1479 ;;      Temps:          0       0       0       0       0       0       0       0       0       0       0       0       
      +0       0       0       0       0       0       0       0       0       0       0       0       0       0       0       
      +0       0       0       0       0       0       0
  1480 ;;      Totals:         0       0       0       0       0       0       0       0       0       0       0       0       
      +0       0       0       0       0       0       0       0       0       0       0       0       0       0       0       
      +0       0       0       0       0       0       0
  1481 ;;Total ram usage:        0 bytes
  1482 ;; Hardware stack levels used:    1
  1483 ;; Hardware stack levels required when called:    9
  1484 ;; This function calls:
  1485 ;;		_CAN1_BitRateConfiguration
  1486 ;;		_CAN1_ErrorNotificationInterruptEnable
  1487 ;;		_CAN1_OperationModeSet
  1488 ;;		_CAN1_RX_FIFO_Configuration
  1489 ;;		_CAN1_RX_FIFO_FilterMaskConfiguration
  1490 ;;		_CAN1_RX_FIFO_ResetInfo
  1491 ;;		_CAN1_TX_FIFO_Configuration
  1492 ;; This function is called by:
  1493 ;;		_SYSTEM_Initialize
  1494 ;; This function uses a non-reentrant model
  1495 ;;
  1496                           
  1497                           	psect	text10
  1498  00303A                     __ptext10:
  1499                           	callstack 0
  1500  00303A                     _CAN1_Initialize:
  1501                           	callstack 117
  1502  00303A                     
  1503                           ;mcc_generated_files/can1.c: 248:     C1CONHbits.ON = 1;
  1504  00303A  0101               	movlb	1	; () banked
  1505  00303C  8F01               	bsf	1,7,b	;volatile
  1506  00303E                     
  1507                           ; BSR set to: 1
  1508                           ;mcc_generated_files/can1.c: 250:     if (CAN_OP_MODE_REQUEST_SUCCESS == CAN1_OperationM
      +                          odeSet(CAN_CONFIGURATION_MODE))
  1509  00303E  0E04               	movlw	4
  1510  003040  EC0C  F017         	call	_CAN1_OperationModeSet
  1511  003044  0900               	iorlw	0
  1512  003046  A4D8               	btfss	status,2,c
  1513  003048  EF28  F018         	goto	u1471
  1514  00304C  EF2A  F018         	goto	u1470
  1515  003050                     u1471:
  1516  003050  EF48  F018         	goto	l170
  1517  003054                     u1470:
  1518  003054                     
  1519                           ;mcc_generated_files/can1.c: 251:     {;mcc_generated_files/can1.c: 253:         C1FIFOB
      +                          A = 0x2600;
  1520  003054  0E00               	movlw	0
  1521  003056  0101               	movlb	1	; () banked
  1522  003058  6F4C               	movwf	76,b	;volatile
  1523  00305A  0E26               	movlw	38
  1524  00305C  6F4D               	movwf	77,b	;volatile
  1525  00305E  0E00               	movlw	0
  1526  003060  6F4E               	movwf	78,b	;volatile
  1527  003062  0E00               	movlw	0
  1528  003064  6F4F               	movwf	79,b	;volatile
  1529                           
  1530                           ;mcc_generated_files/can1.c: 256:         C1CONL = 0x60;
  1531  003066  0E60               	movlw	96
  1532  003068  6F00               	movwf	0,b	;volatile
  1533                           
  1534                           ;mcc_generated_files/can1.c: 259:         C1CONH = 0x97;
  1535  00306A  0E97               	movlw	151
  1536  00306C  6F01               	movwf	1,b	;volatile
  1537                           
  1538                           ;mcc_generated_files/can1.c: 262:         C1CONU = 0x10;
  1539  00306E  0E10               	movlw	16
  1540  003070  6F02               	movwf	2,b	;volatile
  1541  003072                     
  1542                           ; BSR set to: 1
  1543                           ;mcc_generated_files/can1.c: 264:         CAN1_BitRateConfiguration();
  1544  003072  ECFD  F019         	call	_CAN1_BitRateConfiguration	;wreg free
  1545  003076                     
  1546                           ;mcc_generated_files/can1.c: 265:         CAN1_TX_FIFO_Configuration();
  1547  003076  ECF3  F019         	call	_CAN1_TX_FIFO_Configuration	;wreg free
  1548  00307A                     
  1549                           ;mcc_generated_files/can1.c: 266:         CAN1_RX_FIFO_Configuration();
  1550  00307A  EC7F  F019         	call	_CAN1_RX_FIFO_Configuration	;wreg free
  1551  00307E                     
  1552                           ;mcc_generated_files/can1.c: 267:         CAN1_RX_FIFO_FilterMaskConfiguration();
  1553  00307E  EC41  F01A         	call	_CAN1_RX_FIFO_FilterMaskConfiguration	;wreg free
  1554  003082                     
  1555                           ;mcc_generated_files/can1.c: 268:         CAN1_RX_FIFO_ResetInfo();
  1556  003082  EC0C  F019         	call	_CAN1_RX_FIFO_ResetInfo	;wreg free
  1557  003086                     
  1558                           ;mcc_generated_files/can1.c: 269:         CAN1_ErrorNotificationInterruptEnable();
  1559  003086  EC58  F017         	call	_CAN1_ErrorNotificationInterruptEnable	;wreg free
  1560  00308A                     
  1561                           ;mcc_generated_files/can1.c: 270:         CAN1_OperationModeSet(CAN_NORMAL_2_0_MODE);
  1562  00308A  0E06               	movlw	6
  1563  00308C  EC0C  F017         	call	_CAN1_OperationModeSet
  1564  003090                     l170:
  1565  003090  0012               	return		;funcret
  1566  003092                     __end_of_CAN1_Initialize:
  1567                           	callstack 0
  1568                           
  1569 ;; *************** function _CAN1_TX_FIFO_Configuration *****************
  1570 ;; Defined at:
  1571 ;;		line 187 in file "mcc_generated_files/can1.c"
  1572 ;; Parameters:    Size  Location     Type
  1573 ;;		None
  1574 ;; Auto vars:     Size  Location     Type
  1575 ;;		None
  1576 ;; Return value:  Size  Location     Type
  1577 ;;                  1    wreg      void 
  1578 ;; Registers used:
  1579 ;;		wreg, status,2
  1580 ;; Tracked objects:
  1581 ;;		On entry : 0/0
  1582 ;;		On exit  : 0/0
  1583 ;;		Unchanged: 0/0
  1584 ;; Data sizes:     COMRAM   BANK5   BANK6   BANK7   BANK8   BANK9  BANK10  BANK11  BANK12  BANK13  BANK14  BANK15  BANK1
      +6  BANK17  BANK18  BANK19  BANK20  BANK21  BANK22  BANK23  BANK24  BANK25  BANK26  BANK27  BANK28  BANK29  BANK30  BANK3
      +1  BANK32  BANK33  BANK34  BANK35  BANK36  BANK37
  1585 ;;      Params:         0       0       0       0       0       0       0       0       0       0       0       0       
      +0       0       0       0       0       0       0       0       0       0       0       0       0       0       0       
      +0       0       0       0       0       0       0
  1586 ;;      Locals:         0       0       0       0       0       0       0       0       0       0       0       0       
      +0       0       0       0       0       0       0       0       0       0       0       0       0       0       0       
      +0       0       0       0       0       0       0
  1587 ;;      Temps:          0       0       0       0       0       0       0       0       0       0       0       0       
      +0       0       0       0       0       0       0       0       0       0       0       0       0       0       0       
      +0       0       0       0       0       0       0
  1588 ;;      Totals:         0       0       0       0       0       0       0       0       0       0       0       0       
      +0       0       0       0       0       0       0       0       0       0       0       0       0       0       0       
      +0       0       0       0       0       0       0
  1589 ;;Total ram usage:        0 bytes
  1590 ;; Hardware stack levels used:    1
  1591 ;; Hardware stack levels required when called:    7
  1592 ;; This function calls:
  1593 ;;		Nothing
  1594 ;; This function is called by:
  1595 ;;		_CAN1_Initialize
  1596 ;; This function uses a non-reentrant model
  1597 ;;
  1598                           
  1599                           	psect	text11
  1600  0033E6                     __ptext11:
  1601                           	callstack 0
  1602  0033E6                     _CAN1_TX_FIFO_Configuration:
  1603                           	callstack 118
  1604  0033E6                     
  1605                           ;mcc_generated_files/can1.c: 190:     C1TXQCONL = 0x10;
  1606  0033E6  0E10               	movlw	16
  1607  0033E8  0101               	movlb	1	; () banked
  1608  0033EA  6F50               	movwf	80,b	;volatile
  1609                           
  1610                           ;mcc_generated_files/can1.c: 193:     C1TXQCONH = 0x04;
  1611  0033EC  0E04               	movlw	4
  1612  0033EE  6F51               	movwf	81,b	;volatile
  1613                           
  1614                           ;mcc_generated_files/can1.c: 196:     C1TXQCONU = 0x60;
  1615  0033F0  0E60               	movlw	96
  1616  0033F2  6F52               	movwf	82,b	;volatile
  1617                           
  1618                           ;mcc_generated_files/can1.c: 199:     C1TXQCONT = 0x05;
  1619  0033F4  0E05               	movlw	5
  1620  0033F6  6F53               	movwf	83,b	;volatile
  1621  0033F8                     
  1622                           ; BSR set to: 1
  1623  0033F8  0012               	return		;funcret
  1624  0033FA                     __end_of_CAN1_TX_FIFO_Configuration:
  1625                           	callstack 0
  1626                           
  1627 ;; *************** function _CAN1_RX_FIFO_ResetInfo *****************
  1628 ;; Defined at:
  1629 ;;		line 151 in file "mcc_generated_files/can1.c"
  1630 ;; Parameters:    Size  Location     Type
  1631 ;;		None
  1632 ;; Auto vars:     Size  Location     Type
  1633 ;;  index           1    0[BANK5 ] unsigned char 
  1634 ;; Return value:  Size  Location     Type
  1635 ;;                  1    wreg      void 
  1636 ;; Registers used:
  1637 ;;		wreg, fsr2l, fsr2h, status,2, status,0, prodl, prodh
  1638 ;; Tracked objects:
  1639 ;;		On entry : 0/0
  1640 ;;		On exit  : 0/0
  1641 ;;		Unchanged: 0/0
  1642 ;; Data sizes:     COMRAM   BANK5   BANK6   BANK7   BANK8   BANK9  BANK10  BANK11  BANK12  BANK13  BANK14  BANK15  BANK1
      +6  BANK17  BANK18  BANK19  BANK20  BANK21  BANK22  BANK23  BANK24  BANK25  BANK26  BANK27  BANK28  BANK29  BANK30  BANK3
      +1  BANK32  BANK33  BANK34  BANK35  BANK36  BANK37
  1643 ;;      Params:         0       0       0       0       0       0       0       0       0       0       0       0       
      +0       0       0       0       0       0       0       0       0       0       0       0       0       0       0       
      +0       0       0       0       0       0       0
  1644 ;;      Locals:         0       1       0       0       0       0       0       0       0       0       0       0       
      +0       0       0       0       0       0       0       0       0       0       0       0       0       0       0       
      +0       0       0       0       0       0       0
  1645 ;;      Temps:          0       0       0       0       0       0       0       0       0       0       0       0       
      +0       0       0       0       0       0       0       0       0       0       0       0       0       0       0       
      +0       0       0       0       0       0       0
  1646 ;;      Totals:         0       1       0       0       0       0       0       0       0       0       0       0       
      +0       0       0       0       0       0       0       0       0       0       0       0       0       0       0       
      +0       0       0       0       0       0       0
  1647 ;;Total ram usage:        1 bytes
  1648 ;; Hardware stack levels used:    1
  1649 ;; Hardware stack levels required when called:    7
  1650 ;; This function calls:
  1651 ;;		Nothing
  1652 ;; This function is called by:
  1653 ;;		_CAN1_Initialize
  1654 ;; This function uses a non-reentrant model
  1655 ;;
  1656                           
  1657                           	psect	text12
  1658  003218                     __ptext12:
  1659                           	callstack 0
  1660  003218                     _CAN1_RX_FIFO_ResetInfo:
  1661                           	callstack 118
  1662  003218                     
  1663                           ;mcc_generated_files/can1.c: 153:     uint8_t index;;mcc_generated_files/can1.c: 155:   
      +                            for (index = 0; index < (1U); index++)
  1664  003218  0E00               	movlw	0
  1665  00321A  0105               	movlb	5	; () banked
  1666  00321C  6F76               	movwf	CAN1_RX_FIFO_ResetInfo@index& (0+255),b
  1667  00321E                     l2386:
  1668                           
  1669                           ; BSR set to: 5
  1670                           ;mcc_generated_files/can1.c: 156:     {;mcc_generated_files/can1.c: 157:         rxFifos
      +                          [index].fifoHead = 0;
  1671  00321E  5176               	movf	CAN1_RX_FIFO_ResetInfo@index& (0+255),w,b
  1672  003220  0D02               	mullw	2
  1673  003222  0E80               	movlw	low (_rxFifos+1)
  1674  003224  24F3               	addwf	243,w,c
  1675  003226  6ED9               	movwf	fsr2l,c
  1676  003228  0E05               	movlw	high (_rxFifos+1)
  1677  00322A  20F4               	addwfc	prodh,w,c
  1678  00322C  6EDA               	movwf	fsr2h,c
  1679  00322E  0E00               	movlw	0
  1680  003230  6EDF               	movwf	indf2,c
  1681  003232                     
  1682                           ; BSR set to: 5
  1683                           ;mcc_generated_files/can1.c: 158:     }
  1684  003232  2B76               	incf	CAN1_RX_FIFO_ResetInfo@index& (0+255),f,b
  1685  003234                     
  1686                           ; BSR set to: 5
  1687  003234  5176               	movf	CAN1_RX_FIFO_ResetInfo@index& (0+255),w,b
  1688  003236  B4D8               	btfsc	status,2,c
  1689  003238  EF20  F019         	goto	u1341
  1690  00323C  EF22  F019         	goto	u1340
  1691  003240                     u1341:
  1692  003240  EF0F  F019         	goto	l2386
  1693  003244                     u1340:
  1694  003244                     
  1695                           ; BSR set to: 5
  1696  003244  0012               	return		;funcret
  1697  003246                     __end_of_CAN1_RX_FIFO_ResetInfo:
  1698                           	callstack 0
  1699                           
  1700 ;; *************** function _CAN1_RX_FIFO_FilterMaskConfiguration *****************
  1701 ;; Defined at:
  1702 ;;		line 183 in file "mcc_generated_files/can1.c"
  1703 ;; Parameters:    Size  Location     Type
  1704 ;;		None
  1705 ;; Auto vars:     Size  Location     Type
  1706 ;;		None
  1707 ;; Return value:  Size  Location     Type
  1708 ;;                  1    wreg      void 
  1709 ;; Registers used:
  1710 ;;		None
  1711 ;; Tracked objects:
  1712 ;;		On entry : 0/0
  1713 ;;		On exit  : 0/0
  1714 ;;		Unchanged: 0/0
  1715 ;; Data sizes:     COMRAM   BANK5   BANK6   BANK7   BANK8   BANK9  BANK10  BANK11  BANK12  BANK13  BANK14  BANK15  BANK1
      +6  BANK17  BANK18  BANK19  BANK20  BANK21  BANK22  BANK23  BANK24  BANK25  BANK26  BANK27  BANK28  BANK29  BANK30  BANK3
      +1  BANK32  BANK33  BANK34  BANK35  BANK36  BANK37
  1716 ;;      Params:         0       0       0       0       0       0       0       0       0       0       0       0       
      +0       0       0       0       0       0       0       0       0       0       0       0       0       0       0       
      +0       0       0       0       0       0       0
  1717 ;;      Locals:         0       0       0       0       0       0       0       0       0       0       0       0       
      +0       0       0       0       0       0       0       0       0       0       0       0       0       0       0       
      +0       0       0       0       0       0       0
  1718 ;;      Temps:          0       0       0       0       0       0       0       0       0       0       0       0       
      +0       0       0       0       0       0       0       0       0       0       0       0       0       0       0       
      +0       0       0       0       0       0       0
  1719 ;;      Totals:         0       0       0       0       0       0       0       0       0       0       0       0       
      +0       0       0       0       0       0       0       0       0       0       0       0       0       0       0       
      +0       0       0       0       0       0       0
  1720 ;;Total ram usage:        0 bytes
  1721 ;; Hardware stack levels used:    1
  1722 ;; Hardware stack levels required when called:    7
  1723 ;; This function calls:
  1724 ;;		Nothing
  1725 ;; This function is called by:
  1726 ;;		_CAN1_Initialize
  1727 ;; This function uses a non-reentrant model
  1728 ;;
  1729                           
  1730                           	psect	text13
  1731  003482                     __ptext13:
  1732                           	callstack 0
  1733  003482                     _CAN1_RX_FIFO_FilterMaskConfiguration:
  1734                           	callstack 118
  1735  003482  0012               	return		;funcret
  1736  003484                     __end_of_CAN1_RX_FIFO_FilterMaskConfiguration:
  1737                           	callstack 0
  1738                           
  1739 ;; *************** function _CAN1_RX_FIFO_Configuration *****************
  1740 ;; Defined at:
  1741 ;;		line 161 in file "mcc_generated_files/can1.c"
  1742 ;; Parameters:    Size  Location     Type
  1743 ;;		None
  1744 ;; Auto vars:     Size  Location     Type
  1745 ;;		None
  1746 ;; Return value:  Size  Location     Type
  1747 ;;                  1    wreg      void 
  1748 ;; Registers used:
  1749 ;;		wreg, status,2, status,0, cstack
  1750 ;; Tracked objects:
  1751 ;;		On entry : 0/0
  1752 ;;		On exit  : 0/0
  1753 ;;		Unchanged: 0/0
  1754 ;; Data sizes:     COMRAM   BANK5   BANK6   BANK7   BANK8   BANK9  BANK10  BANK11  BANK12  BANK13  BANK14  BANK15  BANK1
      +6  BANK17  BANK18  BANK19  BANK20  BANK21  BANK22  BANK23  BANK24  BANK25  BANK26  BANK27  BANK28  BANK29  BANK30  BANK3
      +1  BANK32  BANK33  BANK34  BANK35  BANK36  BANK37
  1755 ;;      Params:         0       0       0       0       0       0       0       0       0       0       0       0       
      +0       0       0       0       0       0       0       0       0       0       0       0       0       0       0       
      +0       0       0       0       0       0       0
  1756 ;;      Locals:         0       0       0       0       0       0       0       0       0       0       0       0       
      +0       0       0       0       0       0       0       0       0       0       0       0       0       0       0       
      +0       0       0       0       0       0       0
  1757 ;;      Temps:          0       0       0       0       0       0       0       0       0       0       0       0       
      +0       0       0       0       0       0       0       0       0       0       0       0       0       0       0       
      +0       0       0       0       0       0       0
  1758 ;;      Totals:         0       0       0       0       0       0       0       0       0       0       0       0       
      +0       0       0       0       0       0       0       0       0       0       0       0       0       0       0       
      +0       0       0       0       0       0       0
  1759 ;;Total ram usage:        0 bytes
  1760 ;; Hardware stack levels used:    1
  1761 ;; Hardware stack levels required when called:    8
  1762 ;; This function calls:
  1763 ;;		_CAN1_SetFIFO1NotEmptyHandler
  1764 ;; This function is called by:
  1765 ;;		_CAN1_Initialize
  1766 ;; This function uses a non-reentrant model
  1767 ;;
  1768                           
  1769                           	psect	text14
  1770  0032FE                     __ptext14:
  1771                           	callstack 0
  1772  0032FE                     _CAN1_RX_FIFO_Configuration:
  1773                           	callstack 117
  1774  0032FE                     
  1775                           ;mcc_generated_files/can1.c: 164:     C1FIFOCON1L = 0x19;
  1776  0032FE  0E19               	movlw	25
  1777  003300  0101               	movlb	1	; () banked
  1778  003302  6F5C               	movwf	92,b	;volatile
  1779                           
  1780                           ;mcc_generated_files/can1.c: 167:     C1FIFOCON1H = 0x04;
  1781  003304  0E04               	movlw	4
  1782  003306  6F5D               	movwf	93,b	;volatile
  1783                           
  1784                           ;mcc_generated_files/can1.c: 170:     C1FIFOCON1U = 0x60;
  1785  003308  0E60               	movlw	96
  1786  00330A  6F5E               	movwf	94,b	;volatile
  1787                           
  1788                           ;mcc_generated_files/can1.c: 173:     C1FIFOCON1T = 0x05;
  1789  00330C  0E05               	movlw	5
  1790  00330E  6F5F               	movwf	95,b	;volatile
  1791  003310                     
  1792                           ; BSR set to: 1
  1793                           ;mcc_generated_files/can1.c: 175:     CAN1_SetFIFO1NotEmptyHandler(DefaultFIFO1NotEmptyH
      +                          andler);
  1794  003310  0E88               	movlw	low _DefaultFIFO1NotEmptyHandler
  1795  003312  0105               	movlb	5	; () banked
  1796  003314  6F76               	movwf	CAN1_SetFIFO1NotEmptyHandler@handler& (0+255),b
  1797  003316  0E34               	movlw	high _DefaultFIFO1NotEmptyHandler
  1798  003318  6F77               	movwf	(CAN1_SetFIFO1NotEmptyHandler@handler+1)& (0+255),b
  1799  00331A  EC11  F01A         	call	_CAN1_SetFIFO1NotEmptyHandler	;wreg free
  1800  00331E                     
  1801                           ;mcc_generated_files/can1.c: 177:     C1INTUbits.RXIE = 1;
  1802  00331E  0101               	movlb	1	; () banked
  1803  003320  831E               	bsf	30,1,b	;volatile
  1804  003322                     
  1805                           ; BSR set to: 1
  1806                           ;mcc_generated_files/can1.c: 179:     PIR4bits.CANRXIF = 0;
  1807  003322  98B2               	bcf	178,4,c	;volatile
  1808  003324                     
  1809                           ; BSR set to: 1
  1810                           ;mcc_generated_files/can1.c: 180:     PIE4bits.CANRXIE = 1;
  1811  003324  88A2               	bsf	162,4,c	;volatile
  1812  003326                     
  1813                           ; BSR set to: 1
  1814  003326  0012               	return		;funcret
  1815  003328                     __end_of_CAN1_RX_FIFO_Configuration:
  1816                           	callstack 0
  1817                           
  1818 ;; *************** function _CAN1_SetFIFO1NotEmptyHandler *****************
  1819 ;; Defined at:
  1820 ;;		line 707 in file "mcc_generated_files/can1.c"
  1821 ;; Parameters:    Size  Location     Type
  1822 ;;  handler         2    0[BANK5 ] PTR FTN()void 
  1823 ;;		 -> DefaultFIFO1NotEmptyHandler(1), 
  1824 ;; Auto vars:     Size  Location     Type
  1825 ;;		None
  1826 ;; Return value:  Size  Location     Type
  1827 ;;                  1    wreg      void 
  1828 ;; Registers used:
  1829 ;;		wreg, status,2, status,0
  1830 ;; Tracked objects:
  1831 ;;		On entry : 0/0
  1832 ;;		On exit  : 0/0
  1833 ;;		Unchanged: 0/0
  1834 ;; Data sizes:     COMRAM   BANK5   BANK6   BANK7   BANK8   BANK9  BANK10  BANK11  BANK12  BANK13  BANK14  BANK15  BANK1
      +6  BANK17  BANK18  BANK19  BANK20  BANK21  BANK22  BANK23  BANK24  BANK25  BANK26  BANK27  BANK28  BANK29  BANK30  BANK3
      +1  BANK32  BANK33  BANK34  BANK35  BANK36  BANK37
  1835 ;;      Params:         0       2       0       0       0       0       0       0       0       0       0       0       
      +0       0       0       0       0       0       0       0       0       0       0       0       0       0       0       
      +0       0       0       0       0       0       0
  1836 ;;      Locals:         0       0       0       0       0       0       0       0       0       0       0       0       
      +0       0       0       0       0       0       0       0       0       0       0       0       0       0       0       
      +0       0       0       0       0       0       0
  1837 ;;      Temps:          0       0       0       0       0       0       0       0       0       0       0       0       
      +0       0       0       0       0       0       0       0       0       0       0       0       0       0       0       
      +0       0       0       0       0       0       0
  1838 ;;      Totals:         0       2       0       0       0       0       0       0       0       0       0       0       
      +0       0       0       0       0       0       0       0       0       0       0       0       0       0       0       
      +0       0       0       0       0       0       0
  1839 ;;Total ram usage:        2 bytes
  1840 ;; Hardware stack levels used:    1
  1841 ;; Hardware stack levels required when called:    7
  1842 ;; This function calls:
  1843 ;;		Nothing
  1844 ;; This function is called by:
  1845 ;;		_CAN1_RX_FIFO_Configuration
  1846 ;; This function uses a non-reentrant model
  1847 ;;
  1848                           
  1849                           	psect	text15
  1850  003422                     __ptext15:
  1851                           	callstack 0
  1852  003422                     _CAN1_SetFIFO1NotEmptyHandler:
  1853                           	callstack 117
  1854  003422                     
  1855                           ;mcc_generated_files/can1.c: 707: void CAN1_SetFIFO1NotEmptyHandler(void (*handler)(void
      +                          ));mcc_generated_files/can1.c: 708: {;mcc_generated_files/can1.c: 709:     CAN1_FIFO1Not
      +                          EmptyHandler = handler;
  1856  003422  C576  F540         	movff	CAN1_SetFIFO1NotEmptyHandler@handler,_CAN1_FIFO1NotEmptyHandler
  1857  003426  C577  F541         	movff	CAN1_SetFIFO1NotEmptyHandler@handler+1,_CAN1_FIFO1NotEmptyHandler+1
  1858  00342A  0012               	return		;funcret
  1859  00342C                     __end_of_CAN1_SetFIFO1NotEmptyHandler:
  1860                           	callstack 0
  1861                           
  1862 ;; *************** function _CAN1_OperationModeSet *****************
  1863 ;; Defined at:
  1864 ;;		line 274 in file "mcc_generated_files/can1.c"
  1865 ;; Parameters:    Size  Location     Type
  1866 ;;  requestMode     1    wreg     const enum E22346
  1867 ;; Auto vars:     Size  Location     Type
  1868 ;;  requestMode     1    2[BANK5 ] const enum E22346
  1869 ;;  status          1    1[BANK5 ] enum E22356
  1870 ;;  opMode          1    0[BANK5 ] enum E22346
  1871 ;; Return value:  Size  Location     Type
  1872 ;;                  1    wreg      enum E22356
  1873 ;; Registers used:
  1874 ;;		wreg, status,2, status,0, cstack
  1875 ;; Tracked objects:
  1876 ;;		On entry : 0/0
  1877 ;;		On exit  : 0/0
  1878 ;;		Unchanged: 0/0
  1879 ;; Data sizes:     COMRAM   BANK5   BANK6   BANK7   BANK8   BANK9  BANK10  BANK11  BANK12  BANK13  BANK14  BANK15  BANK1
      +6  BANK17  BANK18  BANK19  BANK20  BANK21  BANK22  BANK23  BANK24  BANK25  BANK26  BANK27  BANK28  BANK29  BANK30  BANK3
      +1  BANK32  BANK33  BANK34  BANK35  BANK36  BANK37
  1880 ;;      Params:         0       0       0       0       0       0       0       0       0       0       0       0       
      +0       0       0       0       0       0       0       0       0       0       0       0       0       0       0       
      +0       0       0       0       0       0       0
  1881 ;;      Locals:         0       3       0       0       0       0       0       0       0       0       0       0       
      +0       0       0       0       0       0       0       0       0       0       0       0       0       0       0       
      +0       0       0       0       0       0       0
  1882 ;;      Temps:          0       0       0       0       0       0       0       0       0       0       0       0       
      +0       0       0       0       0       0       0       0       0       0       0       0       0       0       0       
      +0       0       0       0       0       0       0
  1883 ;;      Totals:         0       3       0       0       0       0       0       0       0       0       0       0       
      +0       0       0       0       0       0       0       0       0       0       0       0       0       0       0       
      +0       0       0       0       0       0       0
  1884 ;;Total ram usage:        3 bytes
  1885 ;; Hardware stack levels used:    1
  1886 ;; Hardware stack levels required when called:    8
  1887 ;; This function calls:
  1888 ;;		_CAN1_OperationModeGet
  1889 ;; This function is called by:
  1890 ;;		_CAN1_Initialize
  1891 ;;		_CAN1_Sleep
  1892 ;; This function uses a non-reentrant model
  1893 ;;
  1894                           
  1895                           	psect	text16
  1896  002E18                     __ptext16:
  1897                           	callstack 0
  1898  002E18                     _CAN1_OperationModeSet:
  1899                           	callstack 117
  1900                           
  1901                           ;incstack = 0
  1902                           ;CAN1_OperationModeSet@requestMode stored from wreg
  1903  002E18  0105               	movlb	5	; () banked
  1904  002E1A  6F78               	movwf	CAN1_OperationModeSet@requestMode& (0+255),b
  1905  002E1C                     
  1906                           ;mcc_generated_files/can1.c: 274: CAN_OP_MODE_STATUS CAN1_OperationModeSet(const CAN_OP_
      +                          MODES requestMode);mcc_generated_files/can1.c: 275: {;mcc_generated_files/can1.c: 276:  
      +                             CAN_OP_MODE_STATUS status = CAN_OP_MODE_REQUEST_SUCCESS;
  1907  002E1C  0E00               	movlw	0
  1908  002E1E  0105               	movlb	5	; () banked
  1909  002E20  6F77               	movwf	CAN1_OperationModeSet@status& (0+255),b
  1910  002E22                     
  1911                           ; BSR set to: 5
  1912                           ;mcc_generated_files/can1.c: 277:     CAN_OP_MODES opMode = CAN1_OperationModeGet();
  1913  002E22  EC16  F01A         	call	_CAN1_OperationModeGet	;wreg free
  1914  002E26  0105               	movlb	5	; () banked
  1915  002E28  6F76               	movwf	CAN1_OperationModeSet@opMode& (0+255),b
  1916  002E2A                     
  1917                           ; BSR set to: 5
  1918                           ;mcc_generated_files/can1.c: 279:     if (CAN_CONFIGURATION_MODE == opMode
  1919  002E2A  0E04               	movlw	4
  1920  002E2C  1976               	xorwf	CAN1_OperationModeSet@opMode& (0+255),w,b
  1921  002E2E  B4D8               	btfsc	status,2,c
  1922  002E30  EF1C  F017         	goto	u1351
  1923  002E34  EF1E  F017         	goto	u1350
  1924  002E38                     u1351:
  1925  002E38  EF2F  F017         	goto	l2430
  1926  002E3C                     u1350:
  1927  002E3C                     
  1928                           ; BSR set to: 5
  1929  002E3C  0578               	decf	CAN1_OperationModeSet@requestMode& (0+255),w,b
  1930  002E3E  B4D8               	btfsc	status,2,c
  1931  002E40  EF24  F017         	goto	u1361
  1932  002E44  EF26  F017         	goto	u1360
  1933  002E48                     u1361:
  1934  002E48  EF2F  F017         	goto	l2430
  1935  002E4C                     u1360:
  1936  002E4C                     
  1937                           ; BSR set to: 5
  1938  002E4C  0E04               	movlw	4
  1939  002E4E  1978               	xorwf	CAN1_OperationModeSet@requestMode& (0+255),w,b
  1940  002E50  A4D8               	btfss	status,2,c
  1941  002E52  EF2D  F017         	goto	u1371
  1942  002E56  EF2F  F017         	goto	u1370
  1943  002E5A                     u1371:
  1944  002E5A  EF54  F017         	goto	l2436
  1945  002E5E                     u1370:
  1946  002E5E                     l2430:
  1947                           
  1948                           ; BSR set to: 5
  1949                           ;mcc_generated_files/can1.c: 282:     {;mcc_generated_files/can1.c: 283:         C1CONTb
      +                          its.REQOP = requestMode;
  1950  002E5E  0101               	movlb	1	; () banked
  1951  002E60  5103               	movf	3,w,b	;volatile
  1952  002E62  0105               	movlb	5	; () banked
  1953  002E64  1978               	xorwf	CAN1_OperationModeSet@requestMode& (0+255),w,b
  1954  002E66  0BF8               	andlw	-8
  1955  002E68  1978               	xorwf	CAN1_OperationModeSet@requestMode& (0+255),w,b
  1956  002E6A  0101               	movlb	1	; () banked
  1957  002E6C  6F03               	movwf	3,b	;volatile
  1958                           
  1959                           ;mcc_generated_files/can1.c: 285:         while (C1CONUbits.OPMOD != requestMode)
  1960  002E6E  EF46  F017         	goto	l2434
  1961  002E72                     l177:
  1962                           
  1963                           ; BSR set to: 5
  1964                           ;mcc_generated_files/can1.c: 286:         {;mcc_generated_files/can1.c: 288:            
      +                           if (1 == C1INTHbits.SERRIF)
  1965  002E72  0101               	movlb	1	; () banked
  1966  002E74  A91D               	btfss	29,4,b	;volatile
  1967  002E76  EF3F  F017         	goto	u1381
  1968  002E7A  EF41  F017         	goto	u1380
  1969  002E7E                     u1381:
  1970  002E7E  EF46  F017         	goto	l2434
  1971  002E82                     u1380:
  1972  002E82                     
  1973                           ; BSR set to: 1
  1974                           ;mcc_generated_files/can1.c: 289:             {;mcc_generated_files/can1.c: 290:        
      +                                   status = CAN_OP_MODE_SYS_ERROR_OCCURED;
  1975  002E82  0E02               	movlw	2
  1976  002E84  0105               	movlb	5	; () banked
  1977  002E86  6F77               	movwf	CAN1_OperationModeSet@status& (0+255),b
  1978                           
  1979                           ;mcc_generated_files/can1.c: 291:                 break;
  1980  002E88  EF56  F017         	goto	l180
  1981  002E8C                     l2434:
  1982                           
  1983                           ; BSR set to: 1
  1984                           ;mcc_generated_files/can1.c: 285:         while (C1CONUbits.OPMOD != requestMode)
  1985  002E8C  3902               	swapf	2,w,b	;volatile
  1986  002E8E  32E8               	rrcf	wreg,f,c
  1987  002E90  0B07               	andlw	7
  1988  002E92  0105               	movlb	5	; () banked
  1989  002E94  1978               	xorwf	CAN1_OperationModeSet@requestMode& (0+255),w,b
  1990  002E96  A4D8               	btfss	status,2,c
  1991  002E98  EF50  F017         	goto	u1391
  1992  002E9C  EF52  F017         	goto	u1390
  1993  002EA0                     u1391:
  1994  002EA0  EF39  F017         	goto	l177
  1995  002EA4                     u1390:
  1996  002EA4  EF56  F017         	goto	l180
  1997  002EA8                     l2436:
  1998                           
  1999                           ; BSR set to: 5
  2000                           ;mcc_generated_files/can1.c: 296:     {;mcc_generated_files/can1.c: 297:         status 
      +                          = CAN_OP_MODE_REQUEST_FAIL;
  2001  002EA8  0E01               	movlw	1
  2002  002EAA  6F77               	movwf	CAN1_OperationModeSet@status& (0+255),b
  2003  002EAC                     l180:
  2004                           
  2005                           ; BSR set to: 5
  2006                           ;mcc_generated_files/can1.c: 300:     return status;
  2007  002EAC  5177               	movf	CAN1_OperationModeSet@status& (0+255),w,b
  2008  002EAE                     
  2009                           ; BSR set to: 5
  2010  002EAE  0012               	return		;funcret
  2011  002EB0                     __end_of_CAN1_OperationModeSet:
  2012                           	callstack 0
  2013                           
  2014 ;; *************** function _CAN1_OperationModeGet *****************
  2015 ;; Defined at:
  2016 ;;		line 303 in file "mcc_generated_files/can1.c"
  2017 ;; Parameters:    Size  Location     Type
  2018 ;;		None
  2019 ;; Auto vars:     Size  Location     Type
  2020 ;;		None
  2021 ;; Return value:  Size  Location     Type
  2022 ;;                  1    wreg      enum E22346
  2023 ;; Registers used:
  2024 ;;		wreg, status,2, status,0
  2025 ;; Tracked objects:
  2026 ;;		On entry : 0/0
  2027 ;;		On exit  : 0/0
  2028 ;;		Unchanged: 0/0
  2029 ;; Data sizes:     COMRAM   BANK5   BANK6   BANK7   BANK8   BANK9  BANK10  BANK11  BANK12  BANK13  BANK14  BANK15  BANK1
      +6  BANK17  BANK18  BANK19  BANK20  BANK21  BANK22  BANK23  BANK24  BANK25  BANK26  BANK27  BANK28  BANK29  BANK30  BANK3
      +1  BANK32  BANK33  BANK34  BANK35  BANK36  BANK37
  2030 ;;      Params:         0       0       0       0       0       0       0       0       0       0       0       0       
      +0       0       0       0       0       0       0       0       0       0       0       0       0       0       0       
      +0       0       0       0       0       0       0
  2031 ;;      Locals:         0       0       0       0       0       0       0       0       0       0       0       0       
      +0       0       0       0       0       0       0       0       0       0       0       0       0       0       0       
      +0       0       0       0       0       0       0
  2032 ;;      Temps:          0       0       0       0       0       0       0       0       0       0       0       0       
      +0       0       0       0       0       0       0       0       0       0       0       0       0       0       0       
      +0       0       0       0       0       0       0
  2033 ;;      Totals:         0       0       0       0       0       0       0       0       0       0       0       0       
      +0       0       0       0       0       0       0       0       0       0       0       0       0       0       0       
      +0       0       0       0       0       0       0
  2034 ;;Total ram usage:        0 bytes
  2035 ;; Hardware stack levels used:    1
  2036 ;; Hardware stack levels required when called:    7
  2037 ;; This function calls:
  2038 ;;		Nothing
  2039 ;; This function is called by:
  2040 ;;		_CAN1_OperationModeSet
  2041 ;;		_ValidateTransmission
  2042 ;; This function uses a non-reentrant model
  2043 ;;
  2044                           
  2045                           	psect	text17
  2046  00342C                     __ptext17:
  2047                           	callstack 0
  2048  00342C                     _CAN1_OperationModeGet:
  2049                           	callstack 117
  2050  00342C                     
  2051                           ;mcc_generated_files/can1.c: 305:     return C1CONUbits.OPMOD;
  2052  00342C  0101               	movlb	1	; () banked
  2053  00342E  3902               	swapf	2,w,b	;volatile
  2054  003430  32E8               	rrcf	wreg,f,c
  2055  003432  0B07               	andlw	7
  2056  003434                     
  2057                           ; BSR set to: 1
  2058  003434  0012               	return		;funcret
  2059  003436                     __end_of_CAN1_OperationModeGet:
  2060                           	callstack 0
  2061                           
  2062 ;; *************** function _CAN1_ErrorNotificationInterruptEnable *****************
  2063 ;; Defined at:
  2064 ;;		line 219 in file "mcc_generated_files/can1.c"
  2065 ;; Parameters:    Size  Location     Type
  2066 ;;		None
  2067 ;; Auto vars:     Size  Location     Type
  2068 ;;		None
  2069 ;; Return value:  Size  Location     Type
  2070 ;;                  1    wreg      void 
  2071 ;; Registers used:
  2072 ;;		wreg, status,2, status,0, cstack
  2073 ;; Tracked objects:
  2074 ;;		On entry : 0/0
  2075 ;;		On exit  : 0/0
  2076 ;;		Unchanged: 0/0
  2077 ;; Data sizes:     COMRAM   BANK5   BANK6   BANK7   BANK8   BANK9  BANK10  BANK11  BANK12  BANK13  BANK14  BANK15  BANK1
      +6  BANK17  BANK18  BANK19  BANK20  BANK21  BANK22  BANK23  BANK24  BANK25  BANK26  BANK27  BANK28  BANK29  BANK30  BANK3
      +1  BANK32  BANK33  BANK34  BANK35  BANK36  BANK37
  2078 ;;      Params:         0       0       0       0       0       0       0       0       0       0       0       0       
      +0       0       0       0       0       0       0       0       0       0       0       0       0       0       0       
      +0       0       0       0       0       0       0
  2079 ;;      Locals:         0       0       0       0       0       0       0       0       0       0       0       0       
      +0       0       0       0       0       0       0       0       0       0       0       0       0       0       0       
      +0       0       0       0       0       0       0
  2080 ;;      Temps:          0       0       0       0       0       0       0       0       0       0       0       0       
      +0       0       0       0       0       0       0       0       0       0       0       0       0       0       0       
      +0       0       0       0       0       0       0
  2081 ;;      Totals:         0       0       0       0       0       0       0       0       0       0       0       0       
      +0       0       0       0       0       0       0       0       0       0       0       0       0       0       0       
      +0       0       0       0       0       0       0
  2082 ;;Total ram usage:        0 bytes
  2083 ;; Hardware stack levels used:    1
  2084 ;; Hardware stack levels required when called:    8
  2085 ;; This function calls:
  2086 ;;		_CAN1_SetBusErrorInterruptHandler
  2087 ;;		_CAN1_SetBusWakeUpActivityInterruptHandler
  2088 ;;		_CAN1_SetInvalidMessageInterruptHandler
  2089 ;;		_CAN1_SetModeChangeInterruptHandler
  2090 ;;		_CAN1_SetRxBufferOverFlowInterruptHandler
  2091 ;;		_CAN1_SetSystemErrorInterruptHandler
  2092 ;;		_CAN1_SetTxAttemptInterruptHandler
  2093 ;; This function is called by:
  2094 ;;		_CAN1_Initialize
  2095 ;; This function uses a non-reentrant model
  2096 ;;
  2097                           
  2098                           	psect	text18
  2099  002EB0                     __ptext18:
  2100                           	callstack 0
  2101  002EB0                     _CAN1_ErrorNotificationInterruptEnable:
  2102                           	callstack 117
  2103  002EB0                     
  2104                           ;mcc_generated_files/can1.c: 221:     CAN1_SetInvalidMessageInterruptHandler(DefaultInva
      +                          lidMessageHandler);
  2105  002EB0  0E92               	movlw	low _DefaultInvalidMessageHandler
  2106  002EB2  0105               	movlb	5	; () banked
  2107  002EB4  6F76               	movwf	CAN1_SetInvalidMessageInterruptHandler@handler& (0+255),b
  2108  002EB6  0E34               	movlw	high _DefaultInvalidMessageHandler
  2109  002EB8  6F77               	movwf	(CAN1_SetInvalidMessageInterruptHandler@handler+1)& (0+255),b
  2110  002EBA  EC2F  F01A         	call	_CAN1_SetInvalidMessageInterruptHandler	;wreg free
  2111                           
  2112                           ;mcc_generated_files/can1.c: 222:     CAN1_SetBusWakeUpActivityInterruptHandler(DefaultB
      +                          usWakeUpActivityHandler);
  2113  002EBE  0E94               	movlw	low _DefaultBusWakeUpActivityHandler
  2114  002EC0  0105               	movlb	5	; () banked
  2115  002EC2  6F76               	movwf	CAN1_SetBusWakeUpActivityInterruptHandler@handler& (0+255),b
  2116  002EC4  0E34               	movlw	high _DefaultBusWakeUpActivityHandler
  2117  002EC6  6F77               	movwf	(CAN1_SetBusWakeUpActivityInterruptHandler@handler+1)& (0+255),b
  2118  002EC8  EC34  F01A         	call	_CAN1_SetBusWakeUpActivityInterruptHandler	;wreg free
  2119                           
  2120                           ;mcc_generated_files/can1.c: 223:     CAN1_SetBusErrorInterruptHandler(DefaultBusErrorHa
      +                          ndler);
  2121  002ECC  0E96               	movlw	low _DefaultBusErrorHandler
  2122  002ECE  0105               	movlb	5	; () banked
  2123  002ED0  6F76               	movwf	CAN1_SetBusErrorInterruptHandler@handler& (0+255),b
  2124  002ED2  0E34               	movlw	high _DefaultBusErrorHandler
  2125  002ED4  6F77               	movwf	(CAN1_SetBusErrorInterruptHandler@handler+1)& (0+255),b
  2126  002ED6  EC39  F01A         	call	_CAN1_SetBusErrorInterruptHandler	;wreg free
  2127                           
  2128                           ;mcc_generated_files/can1.c: 224:     CAN1_SetModeChangeInterruptHandler(DefaultModeChan
      +                          geHandler);
  2129  002EDA  0E90               	movlw	low _DefaultModeChangeHandler
  2130  002EDC  0105               	movlb	5	; () banked
  2131  002EDE  6F76               	movwf	CAN1_SetModeChangeInterruptHandler@handler& (0+255),b
  2132  002EE0  0E34               	movlw	high _DefaultModeChangeHandler
  2133  002EE2  6F77               	movwf	(CAN1_SetModeChangeInterruptHandler@handler+1)& (0+255),b
  2134  002EE4  EC2A  F01A         	call	_CAN1_SetModeChangeInterruptHandler	;wreg free
  2135                           
  2136                           ;mcc_generated_files/can1.c: 225:     CAN1_SetSystemErrorInterruptHandler(DefaultSystemE
      +                          rrorHandler);
  2137  002EE8  0E8C               	movlw	low _DefaultSystemErrorHandler
  2138  002EEA  0105               	movlb	5	; () banked
  2139  002EEC  6F76               	movwf	CAN1_SetSystemErrorInterruptHandler@handler& (0+255),b
  2140  002EEE  0E34               	movlw	high _DefaultSystemErrorHandler
  2141  002EF0  6F77               	movwf	(CAN1_SetSystemErrorInterruptHandler@handler+1)& (0+255),b
  2142  002EF2  EC20  F01A         	call	_CAN1_SetSystemErrorInterruptHandler	;wreg free
  2143                           
  2144                           ;mcc_generated_files/can1.c: 226:     CAN1_SetTxAttemptInterruptHandler(DefaultTxAttempt
      +                          Handler);
  2145  002EF6  0E8A               	movlw	low _DefaultTxAttemptHandler
  2146  002EF8  0105               	movlb	5	; () banked
  2147  002EFA  6F76               	movwf	CAN1_SetTxAttemptInterruptHandler@handler& (0+255),b
  2148  002EFC  0E34               	movlw	high _DefaultTxAttemptHandler
  2149  002EFE  6F77               	movwf	(CAN1_SetTxAttemptInterruptHandler@handler+1)& (0+255),b
  2150  002F00  EC1B  F01A         	call	_CAN1_SetTxAttemptInterruptHandler	;wreg free
  2151                           
  2152                           ;mcc_generated_files/can1.c: 227:     CAN1_SetRxBufferOverFlowInterruptHandler(DefaultRx
      +                          BufferOverflowHandler);
  2153  002F04  0E8E               	movlw	low _DefaultRxBufferOverflowHandler
  2154  002F06  0105               	movlb	5	; () banked
  2155  002F08  6F76               	movwf	CAN1_SetRxBufferOverFlowInterruptHandler@handler& (0+255),b
  2156  002F0A  0E34               	movlw	high _DefaultRxBufferOverflowHandler
  2157  002F0C  6F77               	movwf	(CAN1_SetRxBufferOverFlowInterruptHandler@handler+1)& (0+255),b
  2158  002F0E  EC25  F01A         	call	_CAN1_SetRxBufferOverFlowInterruptHandler	;wreg free
  2159  002F12                     
  2160                           ;mcc_generated_files/can1.c: 228:     PIR0bits.CANIF = 0;
  2161  002F12  9CAE               	bcf	174,6,c	;volatile
  2162  002F14                     
  2163                           ;mcc_generated_files/can1.c: 231:     C1INTL = 0x00;
  2164  002F14  0E00               	movlw	0
  2165  002F16  0101               	movlb	1	; () banked
  2166  002F18  6F1C               	movwf	28,b	;volatile
  2167  002F1A                     
  2168                           ; BSR set to: 1
  2169                           ;mcc_generated_files/can1.c: 234:     C1INTH = 0x00;
  2170  002F1A  0E00               	movlw	0
  2171  002F1C  6F1D               	movwf	29,b	;volatile
  2172  002F1E                     
  2173                           ; BSR set to: 1
  2174                           ;mcc_generated_files/can1.c: 237:     C1INTU = 0x0A;
  2175  002F1E  0E0A               	movlw	10
  2176  002F20  6F1E               	movwf	30,b	;volatile
  2177  002F22                     
  2178                           ; BSR set to: 1
  2179                           ;mcc_generated_files/can1.c: 240:     C1INTT = 0xFC;
  2180  002F22  0EFC               	movlw	252
  2181  002F24  6F1F               	movwf	31,b	;volatile
  2182  002F26                     
  2183                           ; BSR set to: 1
  2184                           ;mcc_generated_files/can1.c: 242:     PIE0bits.CANIE = 1;
  2185  002F26  8C9E               	bsf	158,6,c	;volatile
  2186  002F28                     
  2187                           ; BSR set to: 1
  2188  002F28  0012               	return		;funcret
  2189  002F2A                     __end_of_CAN1_ErrorNotificationInterruptEnable:
  2190                           	callstack 0
  2191                           
  2192 ;; *************** function _CAN1_SetTxAttemptInterruptHandler *****************
  2193 ;; Defined at:
  2194 ;;		line 644 in file "mcc_generated_files/can1.c"
  2195 ;; Parameters:    Size  Location     Type
  2196 ;;  handler         2    0[BANK5 ] PTR FTN()void 
  2197 ;;		 -> DefaultTxAttemptHandler(1), 
  2198 ;; Auto vars:     Size  Location     Type
  2199 ;;		None
  2200 ;; Return value:  Size  Location     Type
  2201 ;;                  1    wreg      void 
  2202 ;; Registers used:
  2203 ;;		wreg, status,2, status,0
  2204 ;; Tracked objects:
  2205 ;;		On entry : 0/0
  2206 ;;		On exit  : 0/0
  2207 ;;		Unchanged: 0/0
  2208 ;; Data sizes:     COMRAM   BANK5   BANK6   BANK7   BANK8   BANK9  BANK10  BANK11  BANK12  BANK13  BANK14  BANK15  BANK1
      +6  BANK17  BANK18  BANK19  BANK20  BANK21  BANK22  BANK23  BANK24  BANK25  BANK26  BANK27  BANK28  BANK29  BANK30  BANK3
      +1  BANK32  BANK33  BANK34  BANK35  BANK36  BANK37
  2209 ;;      Params:         0       2       0       0       0       0       0       0       0       0       0       0       
      +0       0       0       0       0       0       0       0       0       0       0       0       0       0       0       
      +0       0       0       0       0       0       0
  2210 ;;      Locals:         0       0       0       0       0       0       0       0       0       0       0       0       
      +0       0       0       0       0       0       0       0       0       0       0       0       0       0       0       
      +0       0       0       0       0       0       0
  2211 ;;      Temps:          0       0       0       0       0       0       0       0       0       0       0       0       
      +0       0       0       0       0       0       0       0       0       0       0       0       0       0       0       
      +0       0       0       0       0       0       0
  2212 ;;      Totals:         0       2       0       0       0       0       0       0       0       0       0       0       
      +0       0       0       0       0       0       0       0       0       0       0       0       0       0       0       
      +0       0       0       0       0       0       0
  2213 ;;Total ram usage:        2 bytes
  2214 ;; Hardware stack levels used:    1
  2215 ;; Hardware stack levels required when called:    7
  2216 ;; This function calls:
  2217 ;;		Nothing
  2218 ;; This function is called by:
  2219 ;;		_CAN1_ErrorNotificationInterruptEnable
  2220 ;; This function uses a non-reentrant model
  2221 ;;
  2222                           
  2223                           	psect	text19
  2224  003436                     __ptext19:
  2225                           	callstack 0
  2226  003436                     _CAN1_SetTxAttemptInterruptHandler:
  2227                           	callstack 117
  2228  003436                     
  2229                           ;mcc_generated_files/can1.c: 644: void CAN1_SetTxAttemptInterruptHandler(void (*handler)
      +                          (void));mcc_generated_files/can1.c: 645: {;mcc_generated_files/can1.c: 646:     CAN1_TxA
      +                          ttemptHandler = handler;
  2230  003436  C576  F562         	movff	CAN1_SetTxAttemptInterruptHandler@handler,_CAN1_TxAttemptHandler
  2231  00343A  C577  F563         	movff	CAN1_SetTxAttemptInterruptHandler@handler+1,_CAN1_TxAttemptHandler+1
  2232  00343E  0012               	return		;funcret
  2233  003440                     __end_of_CAN1_SetTxAttemptInterruptHandler:
  2234                           	callstack 0
  2235                           
  2236 ;; *************** function _CAN1_SetSystemErrorInterruptHandler *****************
  2237 ;; Defined at:
  2238 ;;		line 639 in file "mcc_generated_files/can1.c"
  2239 ;; Parameters:    Size  Location     Type
  2240 ;;  handler         2    0[BANK5 ] PTR FTN()void 
  2241 ;;		 -> DefaultSystemErrorHandler(1), 
  2242 ;; Auto vars:     Size  Location     Type
  2243 ;;		None
  2244 ;; Return value:  Size  Location     Type
  2245 ;;                  1    wreg      void 
  2246 ;; Registers used:
  2247 ;;		wreg, status,2, status,0
  2248 ;; Tracked objects:
  2249 ;;		On entry : 0/0
  2250 ;;		On exit  : 0/0
  2251 ;;		Unchanged: 0/0
  2252 ;; Data sizes:     COMRAM   BANK5   BANK6   BANK7   BANK8   BANK9  BANK10  BANK11  BANK12  BANK13  BANK14  BANK15  BANK1
      +6  BANK17  BANK18  BANK19  BANK20  BANK21  BANK22  BANK23  BANK24  BANK25  BANK26  BANK27  BANK28  BANK29  BANK30  BANK3
      +1  BANK32  BANK33  BANK34  BANK35  BANK36  BANK37
  2253 ;;      Params:         0       2       0       0       0       0       0       0       0       0       0       0       
      +0       0       0       0       0       0       0       0       0       0       0       0       0       0       0       
      +0       0       0       0       0       0       0
  2254 ;;      Locals:         0       0       0       0       0       0       0       0       0       0       0       0       
      +0       0       0       0       0       0       0       0       0       0       0       0       0       0       0       
      +0       0       0       0       0       0       0
  2255 ;;      Temps:          0       0       0       0       0       0       0       0       0       0       0       0       
      +0       0       0       0       0       0       0       0       0       0       0       0       0       0       0       
      +0       0       0       0       0       0       0
  2256 ;;      Totals:         0       2       0       0       0       0       0       0       0       0       0       0       
      +0       0       0       0       0       0       0       0       0       0       0       0       0       0       0       
      +0       0       0       0       0       0       0
  2257 ;;Total ram usage:        2 bytes
  2258 ;; Hardware stack levels used:    1
  2259 ;; Hardware stack levels required when called:    7
  2260 ;; This function calls:
  2261 ;;		Nothing
  2262 ;; This function is called by:
  2263 ;;		_CAN1_ErrorNotificationInterruptEnable
  2264 ;; This function uses a non-reentrant model
  2265 ;;
  2266                           
  2267                           	psect	text20
  2268  003440                     __ptext20:
  2269                           	callstack 0
  2270  003440                     _CAN1_SetSystemErrorInterruptHandler:
  2271                           	callstack 117
  2272  003440                     
  2273                           ;mcc_generated_files/can1.c: 639: void CAN1_SetSystemErrorInterruptHandler(void (*handle
      +                          r)(void));mcc_generated_files/can1.c: 640: {;mcc_generated_files/can1.c: 641:     CAN1_S
      +                          ystemErrorHandler = handler;
  2274  003440  C576  F564         	movff	CAN1_SetSystemErrorInterruptHandler@handler,_CAN1_SystemErrorHandler
  2275  003444  C577  F565         	movff	CAN1_SetSystemErrorInterruptHandler@handler+1,_CAN1_SystemErrorHandler+1
  2276  003448  0012               	return		;funcret
  2277  00344A                     __end_of_CAN1_SetSystemErrorInterruptHandler:
  2278                           	callstack 0
  2279                           
  2280 ;; *************** function _CAN1_SetRxBufferOverFlowInterruptHandler *****************
  2281 ;; Defined at:
  2282 ;;		line 649 in file "mcc_generated_files/can1.c"
  2283 ;; Parameters:    Size  Location     Type
  2284 ;;  handler         2    0[BANK5 ] PTR FTN()void 
  2285 ;;		 -> DefaultRxBufferOverflowHandler(1), 
  2286 ;; Auto vars:     Size  Location     Type
  2287 ;;		None
  2288 ;; Return value:  Size  Location     Type
  2289 ;;                  1    wreg      void 
  2290 ;; Registers used:
  2291 ;;		wreg, status,2, status,0
  2292 ;; Tracked objects:
  2293 ;;		On entry : 0/0
  2294 ;;		On exit  : 0/0
  2295 ;;		Unchanged: 0/0
  2296 ;; Data sizes:     COMRAM   BANK5   BANK6   BANK7   BANK8   BANK9  BANK10  BANK11  BANK12  BANK13  BANK14  BANK15  BANK1
      +6  BANK17  BANK18  BANK19  BANK20  BANK21  BANK22  BANK23  BANK24  BANK25  BANK26  BANK27  BANK28  BANK29  BANK30  BANK3
      +1  BANK32  BANK33  BANK34  BANK35  BANK36  BANK37
  2297 ;;      Params:         0       2       0       0       0       0       0       0       0       0       0       0       
      +0       0       0       0       0       0       0       0       0       0       0       0       0       0       0       
      +0       0       0       0       0       0       0
  2298 ;;      Locals:         0       0       0       0       0       0       0       0       0       0       0       0       
      +0       0       0       0       0       0       0       0       0       0       0       0       0       0       0       
      +0       0       0       0       0       0       0
  2299 ;;      Temps:          0       0       0       0       0       0       0       0       0       0       0       0       
      +0       0       0       0       0       0       0       0       0       0       0       0       0       0       0       
      +0       0       0       0       0       0       0
  2300 ;;      Totals:         0       2       0       0       0       0       0       0       0       0       0       0       
      +0       0       0       0       0       0       0       0       0       0       0       0       0       0       0       
      +0       0       0       0       0       0       0
  2301 ;;Total ram usage:        2 bytes
  2302 ;; Hardware stack levels used:    1
  2303 ;; Hardware stack levels required when called:    7
  2304 ;; This function calls:
  2305 ;;		Nothing
  2306 ;; This function is called by:
  2307 ;;		_CAN1_ErrorNotificationInterruptEnable
  2308 ;; This function uses a non-reentrant model
  2309 ;;
  2310                           
  2311                           	psect	text21
  2312  00344A                     __ptext21:
  2313                           	callstack 0
  2314  00344A                     _CAN1_SetRxBufferOverFlowInterruptHandler:
  2315                           	callstack 117
  2316  00344A                     
  2317                           ;mcc_generated_files/can1.c: 649: void CAN1_SetRxBufferOverFlowInterruptHandler(void (*h
      +                          andler)(void));mcc_generated_files/can1.c: 650: {;mcc_generated_files/can1.c: 651:     C
      +                          AN1_RxBufferOverflowHandler = handler;
  2318  00344A  C576  F560         	movff	CAN1_SetRxBufferOverFlowInterruptHandler@handler,_CAN1_RxBufferOverflowHandler
  2319  00344E  C577  F561         	movff	CAN1_SetRxBufferOverFlowInterruptHandler@handler+1,_CAN1_RxBufferOverflowHandler+
      +                          1
  2320  003452  0012               	return		;funcret
  2321  003454                     __end_of_CAN1_SetRxBufferOverFlowInterruptHandler:
  2322                           	callstack 0
  2323                           
  2324 ;; *************** function _CAN1_SetModeChangeInterruptHandler *****************
  2325 ;; Defined at:
  2326 ;;		line 634 in file "mcc_generated_files/can1.c"
  2327 ;; Parameters:    Size  Location     Type
  2328 ;;  handler         2    0[BANK5 ] PTR FTN()void 
  2329 ;;		 -> DefaultModeChangeHandler(1), 
  2330 ;; Auto vars:     Size  Location     Type
  2331 ;;		None
  2332 ;; Return value:  Size  Location     Type
  2333 ;;                  1    wreg      void 
  2334 ;; Registers used:
  2335 ;;		wreg, status,2, status,0
  2336 ;; Tracked objects:
  2337 ;;		On entry : 0/0
  2338 ;;		On exit  : 0/0
  2339 ;;		Unchanged: 0/0
  2340 ;; Data sizes:     COMRAM   BANK5   BANK6   BANK7   BANK8   BANK9  BANK10  BANK11  BANK12  BANK13  BANK14  BANK15  BANK1
      +6  BANK17  BANK18  BANK19  BANK20  BANK21  BANK22  BANK23  BANK24  BANK25  BANK26  BANK27  BANK28  BANK29  BANK30  BANK3
      +1  BANK32  BANK33  BANK34  BANK35  BANK36  BANK37
  2341 ;;      Params:         0       2       0       0       0       0       0       0       0       0       0       0       
      +0       0       0       0       0       0       0       0       0       0       0       0       0       0       0       
      +0       0       0       0       0       0       0
  2342 ;;      Locals:         0       0       0       0       0       0       0       0       0       0       0       0       
      +0       0       0       0       0       0       0       0       0       0       0       0       0       0       0       
      +0       0       0       0       0       0       0
  2343 ;;      Temps:          0       0       0       0       0       0       0       0       0       0       0       0       
      +0       0       0       0       0       0       0       0       0       0       0       0       0       0       0       
      +0       0       0       0       0       0       0
  2344 ;;      Totals:         0       2       0       0       0       0       0       0       0       0       0       0       
      +0       0       0       0       0       0       0       0       0       0       0       0       0       0       0       
      +0       0       0       0       0       0       0
  2345 ;;Total ram usage:        2 bytes
  2346 ;; Hardware stack levels used:    1
  2347 ;; Hardware stack levels required when called:    7
  2348 ;; This function calls:
  2349 ;;		Nothing
  2350 ;; This function is called by:
  2351 ;;		_CAN1_ErrorNotificationInterruptEnable
  2352 ;; This function uses a non-reentrant model
  2353 ;;
  2354                           
  2355                           	psect	text22
  2356  003454                     __ptext22:
  2357                           	callstack 0
  2358  003454                     _CAN1_SetModeChangeInterruptHandler:
  2359                           	callstack 117
  2360  003454                     
  2361                           ;mcc_generated_files/can1.c: 634: void CAN1_SetModeChangeInterruptHandler(void (*handler
      +                          )(void));mcc_generated_files/can1.c: 635: {;mcc_generated_files/can1.c: 636:     CAN1_Mo
      +                          deChangeHandler = handler;
  2362  003454  C576  F566         	movff	CAN1_SetModeChangeInterruptHandler@handler,_CAN1_ModeChangeHandler
  2363  003458  C577  F567         	movff	CAN1_SetModeChangeInterruptHandler@handler+1,_CAN1_ModeChangeHandler+1
  2364  00345C  0012               	return		;funcret
  2365  00345E                     __end_of_CAN1_SetModeChangeInterruptHandler:
  2366                           	callstack 0
  2367                           
  2368 ;; *************** function _CAN1_SetInvalidMessageInterruptHandler *****************
  2369 ;; Defined at:
  2370 ;;		line 619 in file "mcc_generated_files/can1.c"
  2371 ;; Parameters:    Size  Location     Type
  2372 ;;  handler         2    0[BANK5 ] PTR FTN()void 
  2373 ;;		 -> DefaultInvalidMessageHandler(1), 
  2374 ;; Auto vars:     Size  Location     Type
  2375 ;;		None
  2376 ;; Return value:  Size  Location     Type
  2377 ;;                  1    wreg      void 
  2378 ;; Registers used:
  2379 ;;		wreg, status,2, status,0
  2380 ;; Tracked objects:
  2381 ;;		On entry : 0/0
  2382 ;;		On exit  : 0/0
  2383 ;;		Unchanged: 0/0
  2384 ;; Data sizes:     COMRAM   BANK5   BANK6   BANK7   BANK8   BANK9  BANK10  BANK11  BANK12  BANK13  BANK14  BANK15  BANK1
      +6  BANK17  BANK18  BANK19  BANK20  BANK21  BANK22  BANK23  BANK24  BANK25  BANK26  BANK27  BANK28  BANK29  BANK30  BANK3
      +1  BANK32  BANK33  BANK34  BANK35  BANK36  BANK37
  2385 ;;      Params:         0       2       0       0       0       0       0       0       0       0       0       0       
      +0       0       0       0       0       0       0       0       0       0       0       0       0       0       0       
      +0       0       0       0       0       0       0
  2386 ;;      Locals:         0       0       0       0       0       0       0       0       0       0       0       0       
      +0       0       0       0       0       0       0       0       0       0       0       0       0       0       0       
      +0       0       0       0       0       0       0
  2387 ;;      Temps:          0       0       0       0       0       0       0       0       0       0       0       0       
      +0       0       0       0       0       0       0       0       0       0       0       0       0       0       0       
      +0       0       0       0       0       0       0
  2388 ;;      Totals:         0       2       0       0       0       0       0       0       0       0       0       0       
      +0       0       0       0       0       0       0       0       0       0       0       0       0       0       0       
      +0       0       0       0       0       0       0
  2389 ;;Total ram usage:        2 bytes
  2390 ;; Hardware stack levels used:    1
  2391 ;; Hardware stack levels required when called:    7
  2392 ;; This function calls:
  2393 ;;		Nothing
  2394 ;; This function is called by:
  2395 ;;		_CAN1_ErrorNotificationInterruptEnable
  2396 ;; This function uses a non-reentrant model
  2397 ;;
  2398                           
  2399                           	psect	text23
  2400  00345E                     __ptext23:
  2401                           	callstack 0
  2402  00345E                     _CAN1_SetInvalidMessageInterruptHandler:
  2403                           	callstack 117
  2404  00345E                     
  2405                           ;mcc_generated_files/can1.c: 619: void CAN1_SetInvalidMessageInterruptHandler(void (*han
      +                          dler)(void));mcc_generated_files/can1.c: 620: {;mcc_generated_files/can1.c: 621:     CAN
      +                          1_InvalidMessageHandler = handler;
  2406  00345E  C576  F56C         	movff	CAN1_SetInvalidMessageInterruptHandler@handler,_CAN1_InvalidMessageHandler
  2407  003462  C577  F56D         	movff	CAN1_SetInvalidMessageInterruptHandler@handler+1,_CAN1_InvalidMessageHandler+1
  2408  003466  0012               	return		;funcret
  2409  003468                     __end_of_CAN1_SetInvalidMessageInterruptHandler:
  2410                           	callstack 0
  2411                           
  2412 ;; *************** function _CAN1_SetBusWakeUpActivityInterruptHandler *****************
  2413 ;; Defined at:
  2414 ;;		line 624 in file "mcc_generated_files/can1.c"
  2415 ;; Parameters:    Size  Location     Type
  2416 ;;  handler         2    0[BANK5 ] PTR FTN()void 
  2417 ;;		 -> DefaultBusWakeUpActivityHandler(1), 
  2418 ;; Auto vars:     Size  Location     Type
  2419 ;;		None
  2420 ;; Return value:  Size  Location     Type
  2421 ;;                  1    wreg      void 
  2422 ;; Registers used:
  2423 ;;		wreg, status,2, status,0
  2424 ;; Tracked objects:
  2425 ;;		On entry : 0/0
  2426 ;;		On exit  : 0/0
  2427 ;;		Unchanged: 0/0
  2428 ;; Data sizes:     COMRAM   BANK5   BANK6   BANK7   BANK8   BANK9  BANK10  BANK11  BANK12  BANK13  BANK14  BANK15  BANK1
      +6  BANK17  BANK18  BANK19  BANK20  BANK21  BANK22  BANK23  BANK24  BANK25  BANK26  BANK27  BANK28  BANK29  BANK30  BANK3
      +1  BANK32  BANK33  BANK34  BANK35  BANK36  BANK37
  2429 ;;      Params:         0       2       0       0       0       0       0       0       0       0       0       0       
      +0       0       0       0       0       0       0       0       0       0       0       0       0       0       0       
      +0       0       0       0       0       0       0
  2430 ;;      Locals:         0       0       0       0       0       0       0       0       0       0       0       0       
      +0       0       0       0       0       0       0       0       0       0       0       0       0       0       0       
      +0       0       0       0       0       0       0
  2431 ;;      Temps:          0       0       0       0       0       0       0       0       0       0       0       0       
      +0       0       0       0       0       0       0       0       0       0       0       0       0       0       0       
      +0       0       0       0       0       0       0
  2432 ;;      Totals:         0       2       0       0       0       0       0       0       0       0       0       0       
      +0       0       0       0       0       0       0       0       0       0       0       0       0       0       0       
      +0       0       0       0       0       0       0
  2433 ;;Total ram usage:        2 bytes
  2434 ;; Hardware stack levels used:    1
  2435 ;; Hardware stack levels required when called:    7
  2436 ;; This function calls:
  2437 ;;		Nothing
  2438 ;; This function is called by:
  2439 ;;		_CAN1_ErrorNotificationInterruptEnable
  2440 ;; This function uses a non-reentrant model
  2441 ;;
  2442                           
  2443                           	psect	text24
  2444  003468                     __ptext24:
  2445                           	callstack 0
  2446  003468                     _CAN1_SetBusWakeUpActivityInterruptHandler:
  2447                           	callstack 117
  2448  003468                     
  2449                           ;mcc_generated_files/can1.c: 624: void CAN1_SetBusWakeUpActivityInterruptHandler(void (*
      +                          handler)(void));mcc_generated_files/can1.c: 625: {;mcc_generated_files/can1.c: 626:     
      +                          CAN1_BusWakeUpActivityHandler = handler;
  2450  003468  C576  F56A         	movff	CAN1_SetBusWakeUpActivityInterruptHandler@handler,_CAN1_BusWakeUpActivityHandler
  2451  00346C  C577  F56B         	movff	CAN1_SetBusWakeUpActivityInterruptHandler@handler+1,_CAN1_BusWakeUpActivityHandle
      +                          r+1
  2452  003470  0012               	return		;funcret
  2453  003472                     __end_of_CAN1_SetBusWakeUpActivityInterruptHandler:
  2454                           	callstack 0
  2455                           
  2456 ;; *************** function _CAN1_SetBusErrorInterruptHandler *****************
  2457 ;; Defined at:
  2458 ;;		line 629 in file "mcc_generated_files/can1.c"
  2459 ;; Parameters:    Size  Location     Type
  2460 ;;  handler         2    0[BANK5 ] PTR FTN()void 
  2461 ;;		 -> DefaultBusErrorHandler(1), 
  2462 ;; Auto vars:     Size  Location     Type
  2463 ;;		None
  2464 ;; Return value:  Size  Location     Type
  2465 ;;                  1    wreg      void 
  2466 ;; Registers used:
  2467 ;;		wreg, status,2, status,0
  2468 ;; Tracked objects:
  2469 ;;		On entry : 0/0
  2470 ;;		On exit  : 0/0
  2471 ;;		Unchanged: 0/0
  2472 ;; Data sizes:     COMRAM   BANK5   BANK6   BANK7   BANK8   BANK9  BANK10  BANK11  BANK12  BANK13  BANK14  BANK15  BANK1
      +6  BANK17  BANK18  BANK19  BANK20  BANK21  BANK22  BANK23  BANK24  BANK25  BANK26  BANK27  BANK28  BANK29  BANK30  BANK3
      +1  BANK32  BANK33  BANK34  BANK35  BANK36  BANK37
  2473 ;;      Params:         0       2       0       0       0       0       0       0       0       0       0       0       
      +0       0       0       0       0       0       0       0       0       0       0       0       0       0       0       
      +0       0       0       0       0       0       0
  2474 ;;      Locals:         0       0       0       0       0       0       0       0       0       0       0       0       
      +0       0       0       0       0       0       0       0       0       0       0       0       0       0       0       
      +0       0       0       0       0       0       0
  2475 ;;      Temps:          0       0       0       0       0       0       0       0       0       0       0       0       
      +0       0       0       0       0       0       0       0       0       0       0       0       0       0       0       
      +0       0       0       0       0       0       0
  2476 ;;      Totals:         0       2       0       0       0       0       0       0       0       0       0       0       
      +0       0       0       0       0       0       0       0       0       0       0       0       0       0       0       
      +0       0       0       0       0       0       0
  2477 ;;Total ram usage:        2 bytes
  2478 ;; Hardware stack levels used:    1
  2479 ;; Hardware stack levels required when called:    7
  2480 ;; This function calls:
  2481 ;;		Nothing
  2482 ;; This function is called by:
  2483 ;;		_CAN1_ErrorNotificationInterruptEnable
  2484 ;; This function uses a non-reentrant model
  2485 ;;
  2486                           
  2487                           	psect	text25
  2488  003472                     __ptext25:
  2489                           	callstack 0
  2490  003472                     _CAN1_SetBusErrorInterruptHandler:
  2491                           	callstack 117
  2492  003472                     
  2493                           ;mcc_generated_files/can1.c: 629: void CAN1_SetBusErrorInterruptHandler(void (*handler)(
      +                          void));mcc_generated_files/can1.c: 630: {;mcc_generated_files/can1.c: 631:     CAN1_BusE
      +                          rrorHandler = handler;
  2494  003472  C576  F568         	movff	CAN1_SetBusErrorInterruptHandler@handler,_CAN1_BusErrorHandler
  2495  003476  C577  F569         	movff	CAN1_SetBusErrorInterruptHandler@handler+1,_CAN1_BusErrorHandler+1
  2496  00347A  0012               	return		;funcret
  2497  00347C                     __end_of_CAN1_SetBusErrorInterruptHandler:
  2498                           	callstack 0
  2499                           
  2500 ;; *************** function _CAN1_BitRateConfiguration *****************
  2501 ;; Defined at:
  2502 ;;		line 203 in file "mcc_generated_files/can1.c"
  2503 ;; Parameters:    Size  Location     Type
  2504 ;;		None
  2505 ;; Auto vars:     Size  Location     Type
  2506 ;;		None
  2507 ;; Return value:  Size  Location     Type
  2508 ;;                  1    wreg      void 
  2509 ;; Registers used:
  2510 ;;		wreg, status,2
  2511 ;; Tracked objects:
  2512 ;;		On entry : 0/0
  2513 ;;		On exit  : 0/0
  2514 ;;		Unchanged: 0/0
  2515 ;; Data sizes:     COMRAM   BANK5   BANK6   BANK7   BANK8   BANK9  BANK10  BANK11  BANK12  BANK13  BANK14  BANK15  BANK1
      +6  BANK17  BANK18  BANK19  BANK20  BANK21  BANK22  BANK23  BANK24  BANK25  BANK26  BANK27  BANK28  BANK29  BANK30  BANK3
      +1  BANK32  BANK33  BANK34  BANK35  BANK36  BANK37
  2516 ;;      Params:         0       0       0       0       0       0       0       0       0       0       0       0       
      +0       0       0       0       0       0       0       0       0       0       0       0       0       0       0       
      +0       0       0       0       0       0       0
  2517 ;;      Locals:         0       0       0       0       0       0       0       0       0       0       0       0       
      +0       0       0       0       0       0       0       0       0       0       0       0       0       0       0       
      +0       0       0       0       0       0       0
  2518 ;;      Temps:          0       0       0       0       0       0       0       0       0       0       0       0       
      +0       0       0       0       0       0       0       0       0       0       0       0       0       0       0       
      +0       0       0       0       0       0       0
  2519 ;;      Totals:         0       0       0       0       0       0       0       0       0       0       0       0       
      +0       0       0       0       0       0       0       0       0       0       0       0       0       0       0       
      +0       0       0       0       0       0       0
  2520 ;;Total ram usage:        0 bytes
  2521 ;; Hardware stack levels used:    1
  2522 ;; Hardware stack levels required when called:    7
  2523 ;; This function calls:
  2524 ;;		Nothing
  2525 ;; This function is called by:
  2526 ;;		_CAN1_Initialize
  2527 ;; This function uses a non-reentrant model
  2528 ;;
  2529                           
  2530                           	psect	text26
  2531  0033FA                     __ptext26:
  2532                           	callstack 0
  2533  0033FA                     _CAN1_BitRateConfiguration:
  2534                           	callstack 118
  2535  0033FA                     
  2536                           ;mcc_generated_files/can1.c: 206:     C1NBTCFGL = 0x01;
  2537  0033FA  0E01               	movlw	1
  2538  0033FC  0101               	movlb	1	; () banked
  2539  0033FE  6F04               	movwf	4,b	;volatile
  2540                           
  2541                           ;mcc_generated_files/can1.c: 209:     C1NBTCFGH = 0x01;
  2542  003400  0E01               	movlw	1
  2543  003402  6F05               	movwf	5,b	;volatile
  2544                           
  2545                           ;mcc_generated_files/can1.c: 212:     C1NBTCFGU = 0x06;
  2546  003404  0E06               	movlw	6
  2547  003406  6F06               	movwf	6,b	;volatile
  2548                           
  2549                           ;mcc_generated_files/can1.c: 215:     C1NBTCFGT = 0x00;
  2550  003408  0E00               	movlw	0
  2551  00340A  6F07               	movwf	7,b	;volatile
  2552  00340C                     
  2553                           ; BSR set to: 1
  2554  00340C  0012               	return		;funcret
  2555  00340E                     __end_of_CAN1_BitRateConfiguration:
  2556                           	callstack 0
  2557                           
  2558 ;; *************** function _DELAY_milliseconds *****************
  2559 ;; Defined at:
  2560 ;;		line 38 in file "mcc_generated_files/delay.c"
  2561 ;; Parameters:    Size  Location     Type
  2562 ;;  milliseconds    2    0[BANK5 ] unsigned short 
  2563 ;; Auto vars:     Size  Location     Type
  2564 ;;		None
  2565 ;; Return value:  Size  Location     Type
  2566 ;;                  1    wreg      void 
  2567 ;; Registers used:
  2568 ;;		wreg, status,2, status,0
  2569 ;; Tracked objects:
  2570 ;;		On entry : 0/0
  2571 ;;		On exit  : 0/0
  2572 ;;		Unchanged: 0/0
  2573 ;; Data sizes:     COMRAM   BANK5   BANK6   BANK7   BANK8   BANK9  BANK10  BANK11  BANK12  BANK13  BANK14  BANK15  BANK1
      +6  BANK17  BANK18  BANK19  BANK20  BANK21  BANK22  BANK23  BANK24  BANK25  BANK26  BANK27  BANK28  BANK29  BANK30  BANK3
      +1  BANK32  BANK33  BANK34  BANK35  BANK36  BANK37
  2574 ;;      Params:         0       2       0       0       0       0       0       0       0       0       0       0       
      +0       0       0       0       0       0       0       0       0       0       0       0       0       0       0       
      +0       0       0       0       0       0       0
  2575 ;;      Locals:         0       0       0       0       0       0       0       0       0       0       0       0       
      +0       0       0       0       0       0       0       0       0       0       0       0       0       0       0       
      +0       0       0       0       0       0       0
  2576 ;;      Temps:          0       1       0       0       0       0       0       0       0       0       0       0       
      +0       0       0       0       0       0       0       0       0       0       0       0       0       0       0       
      +0       0       0       0       0       0       0
  2577 ;;      Totals:         0       3       0       0       0       0       0       0       0       0       0       0       
      +0       0       0       0       0       0       0       0       0       0       0       0       0       0       0       
      +0       0       0       0       0       0       0
  2578 ;;Total ram usage:        3 bytes
  2579 ;; Hardware stack levels used:    1
  2580 ;; Hardware stack levels required when called:    7
  2581 ;; This function calls:
  2582 ;;		Nothing
  2583 ;; This function is called by:
  2584 ;;		_main
  2585 ;; This function uses a non-reentrant model
  2586 ;;
  2587                           
  2588                           	psect	text27
  2589  0031E4                     __ptext27:
  2590                           	callstack 0
  2591  0031E4                     _DELAY_milliseconds:
  2592                           	callstack 120
  2593  0031E4                     
  2594                           ;mcc_generated_files/delay.c: 39:     while(milliseconds--){
  2595  0031E4  EFFD  F018         	goto	l2826
  2596  0031E8                     l2824:
  2597                           
  2598                           ; BSR set to: 5
  2599                           ;mcc_generated_files/delay.c: 40:         _delay((unsigned long)((1)*(10000000/4000.0)))
      +                          ;
  2600  0031E8  0E04               	movlw	4
  2601  0031EA  0105               	movlb	5	; () banked
  2602  0031EC  6F78               	movwf	??_DELAY_milliseconds& (0+255),b
  2603  0031EE  0E3D               	movlw	61
  2604  0031F0                     u2227:
  2605  0031F0  2EE8               	decfsz	wreg,f,c
  2606  0031F2  D7FE               	bra	u2227
  2607  0031F4  2F78               	decfsz	??_DELAY_milliseconds& (0+255),f,b
  2608  0031F6  D7FC               	bra	u2227
  2609  0031F8  D000               	nop2	
  2610  0031FA                     l2826:
  2611                           
  2612                           ;mcc_generated_files/delay.c: 39:     while(milliseconds--){
  2613  0031FA  0105               	movlb	5	; () banked
  2614  0031FC  0776               	decf	DELAY_milliseconds@milliseconds& (0+255),f,b
  2615  0031FE  A0D8               	btfss	status,0,c
  2616  003200  0777               	decf	(DELAY_milliseconds@milliseconds+1)& (0+255),f,b
  2617  003202  2976               	incf	DELAY_milliseconds@milliseconds& (0+255),w,b
  2618  003204  E106               	bnz	u2001
  2619  003206  2977               	incf	(DELAY_milliseconds@milliseconds+1)& (0+255),w,b
  2620  003208  A4D8               	btfss	status,2,c
  2621  00320A  EF09  F019         	goto	u2001
  2622  00320E  EF0B  F019         	goto	u2000
  2623  003212                     u2001:
  2624  003212  EFF4  F018         	goto	l2824
  2625  003216                     u2000:
  2626  003216                     
  2627                           ; BSR set to: 5
  2628  003216  0012               	return		;funcret
  2629  003218                     __end_of_DELAY_milliseconds:
  2630                           	callstack 0
  2631                           
  2632 ;; *************** function _INTERRUPT_InterruptManager *****************
  2633 ;; Defined at:
  2634 ;;		line 58 in file "mcc_generated_files/interrupt_manager.c"
  2635 ;; Parameters:    Size  Location     Type
  2636 ;;		None
  2637 ;; Auto vars:     Size  Location     Type
  2638 ;;		None
  2639 ;; Return value:  Size  Location     Type
  2640 ;;                  1    wreg      void 
  2641 ;; Registers used:
  2642 ;;		wreg, fsr2l, fsr2h, status,2, status,0, pclath, tosl, tblptrl, tblptrh, tblptru, prodl, prodh, cstack
  2643 ;; Tracked objects:
  2644 ;;		On entry : 0/0
  2645 ;;		On exit  : 0/0
  2646 ;;		Unchanged: 0/0
  2647 ;; Data sizes:     COMRAM   BANK5   BANK6   BANK7   BANK8   BANK9  BANK10  BANK11  BANK12  BANK13  BANK14  BANK15  BANK1
      +6  BANK17  BANK18  BANK19  BANK20  BANK21  BANK22  BANK23  BANK24  BANK25  BANK26  BANK27  BANK28  BANK29  BANK30  BANK3
      +1  BANK32  BANK33  BANK34  BANK35  BANK36  BANK37
  2648 ;;      Params:         0       0       0       0       0       0       0       0       0       0       0       0       
      +0       0       0       0       0       0       0       0       0       0       0       0       0       0       0       
      +0       0       0       0       0       0       0
  2649 ;;      Locals:         0       0       0       0       0       0       0       0       0       0       0       0       
      +0       0       0       0       0       0       0       0       0       0       0       0       0       0       0       
      +0       0       0       0       0       0       0
  2650 ;;      Temps:          4       0       0       0       0       0       0       0       0       0       0       0       
      +0       0       0       0       0       0       0       0       0       0       0       0       0       0       0       
      +0       0       0       0       0       0       0
  2651 ;;      Totals:         4       0       0       0       0       0       0       0       0       0       0       0       
      +0       0       0       0       0       0       0       0       0       0       0       0       0       0       0       
      +0       0       0       0       0       0       0
  2652 ;;Total ram usage:        4 bytes
  2653 ;; Hardware stack levels used:    1
  2654 ;; Hardware stack levels required when called:    6
  2655 ;; This function calls:
  2656 ;;		_CAN1_ISR
  2657 ;;		_CAN1_RXI_ISR
  2658 ;;		_TMR0_ISR
  2659 ;;		_TMR1_ISR
  2660 ;; This function is called by:
  2661 ;;		Interrupt level 2
  2662 ;; This function uses a non-reentrant model
  2663 ;;
  2664                           
  2665                           	psect	text28
  2666  002C96                     __ptext28:
  2667                           	callstack 0
  2668  002C96                     _INTERRUPT_InterruptManager:
  2669                           	callstack 117
  2670                           
  2671                           ; BSR set to: 5
  2672                           ;incstack = 0
  2673  002C96  0061 F3D8  F538    	movff	tblptrl,??_INTERRUPT_InterruptManager
  2674  002C9C  0061 F3DC  F539    	movff	tblptrh,??_INTERRUPT_InterruptManager+1
  2675  002CA2  0061 F3E0  F53A    	movff	tblptru,??_INTERRUPT_InterruptManager+2
  2676  002CA8  0061 F3D4  F53B    	movff	tablat,??_INTERRUPT_InterruptManager+3
  2677  002CAE                     
  2678                           ;mcc_generated_files/interrupt_manager.c: 61:     if(PIE0bits.CANIE == 1 && PIR0bits.CAN
      +                          IF == 1)
  2679  002CAE  AC9E               	btfss	158,6,c	;volatile
  2680  002CB0  EF5C  F016         	goto	i2u203_41
  2681  002CB4  EF5E  F016         	goto	i2u203_40
  2682  002CB8                     i2u203_41:
  2683  002CB8  EF69  F016         	goto	i2l481
  2684  002CBC                     i2u203_40:
  2685  002CBC  ACAE               	btfss	174,6,c	;volatile
  2686  002CBE  EF63  F016         	goto	i2u204_41
  2687  002CC2  EF65  F016         	goto	i2u204_40
  2688  002CC6                     i2u204_41:
  2689  002CC6  EF69  F016         	goto	i2l481
  2690  002CCA                     i2u204_40:
  2691  002CCA                     
  2692                           ;mcc_generated_files/interrupt_manager.c: 62:     {;mcc_generated_files/interrupt_manage
      +                          r.c: 63:         CAN1_ISR();
  2693  002CCA  EC27  F014         	call	_CAN1_ISR	;wreg free
  2694                           
  2695                           ;mcc_generated_files/interrupt_manager.c: 64:     }
  2696  002CCE  EF9F  F016         	goto	i2l489
  2697  002CD2                     i2l481:
  2698  002CD2  A8A2               	btfss	162,4,c	;volatile
  2699  002CD4  EF6E  F016         	goto	i2u205_41
  2700  002CD8  EF70  F016         	goto	i2u205_40
  2701  002CDC                     i2u205_41:
  2702  002CDC  EF7B  F016         	goto	i2l483
  2703  002CE0                     i2u205_40:
  2704  002CE0  A8B2               	btfss	178,4,c	;volatile
  2705  002CE2  EF75  F016         	goto	i2u206_41
  2706  002CE6  EF77  F016         	goto	i2u206_40
  2707  002CEA                     i2u206_41:
  2708  002CEA  EF7B  F016         	goto	i2l483
  2709  002CEE                     i2u206_40:
  2710  002CEE                     
  2711                           ;mcc_generated_files/interrupt_manager.c: 66:     {;mcc_generated_files/interrupt_manage
      +                          r.c: 67:         CAN1_RXI_ISR();
  2712  002CEE  EC68  F019         	call	_CAN1_RXI_ISR	;wreg free
  2713                           
  2714                           ;mcc_generated_files/interrupt_manager.c: 68:     }
  2715  002CF2  EF9F  F016         	goto	i2l489
  2716  002CF6                     i2l483:
  2717  002CF6  AEA1               	btfss	161,7,c	;volatile
  2718  002CF8  EF80  F016         	goto	i2u207_41
  2719  002CFC  EF82  F016         	goto	i2u207_40
  2720  002D00                     i2u207_41:
  2721  002D00  EF8D  F016         	goto	i2l485
  2722  002D04                     i2u207_40:
  2723  002D04  AEB1               	btfss	177,7,c	;volatile
  2724  002D06  EF87  F016         	goto	i2u208_41
  2725  002D0A  EF89  F016         	goto	i2u208_40
  2726  002D0E                     i2u208_41:
  2727  002D0E  EF8D  F016         	goto	i2l485
  2728  002D12                     i2u208_40:
  2729  002D12                     
  2730                           ;mcc_generated_files/interrupt_manager.c: 70:     {;mcc_generated_files/interrupt_manage
      +                          r.c: 71:         TMR0_ISR();
  2731  002D12  ECC3  F017         	call	_TMR0_ISR	;wreg free
  2732                           
  2733                           ;mcc_generated_files/interrupt_manager.c: 72:     }
  2734  002D16  EF9F  F016         	goto	i2l489
  2735  002D1A                     i2l485:
  2736  002D1A  A8A1               	btfss	161,4,c	;volatile
  2737  002D1C  EF92  F016         	goto	i2u209_41
  2738  002D20  EF94  F016         	goto	i2u209_40
  2739  002D24                     i2u209_41:
  2740  002D24  EF9F  F016         	goto	i2l484
  2741  002D28                     i2u209_40:
  2742  002D28  A8B1               	btfss	177,4,c	;volatile
  2743  002D2A  EF99  F016         	goto	i2u210_41
  2744  002D2E  EF9B  F016         	goto	i2u210_40
  2745  002D32                     i2u210_41:
  2746  002D32  EF9F  F016         	goto	i2l484
  2747  002D36                     i2u210_40:
  2748  002D36                     
  2749                           ;mcc_generated_files/interrupt_manager.c: 74:     {;mcc_generated_files/interrupt_manage
      +                          r.c: 75:         TMR1_ISR();
  2750  002D36  ECD7  F018         	call	_TMR1_ISR	;wreg free
  2751                           
  2752                           ;mcc_generated_files/interrupt_manager.c: 76:     }
  2753  002D3A  EF9F  F016         	goto	i2l489
  2754  002D3E                     i2l484:
  2755  002D3E                     i2l489:
  2756  002D3E  0061  F4EC  F4F5   	movff	??_INTERRUPT_InterruptManager+3,tablat
  2757  002D44  0061  F4E8  F4F8   	movff	??_INTERRUPT_InterruptManager+2,tblptru
  2758  002D4A  0061  F4E4  F4F7   	movff	??_INTERRUPT_InterruptManager+1,tblptrh
  2759  002D50  0061  F4E0  F4F6   	movff	??_INTERRUPT_InterruptManager,tblptrl
  2760  002D56  0011               	retfie		f
  2761  002D58                     __end_of_INTERRUPT_InterruptManager:
  2762                           	callstack 0
  2763                           
  2764 ;; *************** function _TMR1_ISR *****************
  2765 ;; Defined at:
  2766 ;;		line 164 in file "mcc_generated_files/tmr1.c"
  2767 ;; Parameters:    Size  Location     Type
  2768 ;;		None
  2769 ;; Auto vars:     Size  Location     Type
  2770 ;;		None
  2771 ;; Return value:  Size  Location     Type
  2772 ;;                  1    wreg      void 
  2773 ;; Registers used:
  2774 ;;		wreg, status,2, status,0, pclath, tosl, cstack
  2775 ;; Tracked objects:
  2776 ;;		On entry : 0/0
  2777 ;;		On exit  : 0/0
  2778 ;;		Unchanged: 0/0
  2779 ;; Data sizes:     COMRAM   BANK5   BANK6   BANK7   BANK8   BANK9  BANK10  BANK11  BANK12  BANK13  BANK14  BANK15  BANK1
      +6  BANK17  BANK18  BANK19  BANK20  BANK21  BANK22  BANK23  BANK24  BANK25  BANK26  BANK27  BANK28  BANK29  BANK30  BANK3
      +1  BANK32  BANK33  BANK34  BANK35  BANK36  BANK37
  2780 ;;      Params:         0       0       0       0       0       0       0       0       0       0       0       0       
      +0       0       0       0       0       0       0       0       0       0       0       0       0       0       0       
      +0       0       0       0       0       0       0
  2781 ;;      Locals:         0       0       0       0       0       0       0       0       0       0       0       0       
      +0       0       0       0       0       0       0       0       0       0       0       0       0       0       0       
      +0       0       0       0       0       0       0
  2782 ;;      Temps:          0       0       0       0       0       0       0       0       0       0       0       0       
      +0       0       0       0       0       0       0       0       0       0       0       0       0       0       0       
      +0       0       0       0       0       0       0
  2783 ;;      Totals:         0       0       0       0       0       0       0       0       0       0       0       0       
      +0       0       0       0       0       0       0       0       0       0       0       0       0       0       0       
      +0       0       0       0       0       0       0
  2784 ;;Total ram usage:        0 bytes
  2785 ;; Hardware stack levels used:    1
  2786 ;; Hardware stack levels required when called:    2
  2787 ;; This function calls:
  2788 ;;		_TMR1_CallBack
  2789 ;;		_TMR1_WriteTimer
  2790 ;; This function is called by:
  2791 ;;		_INTERRUPT_InterruptManager
  2792 ;; This function uses a non-reentrant model
  2793 ;;
  2794                           
  2795                           	psect	text29
  2796  0031AE                     __ptext29:
  2797                           	callstack 0
  2798  0031AE                     _TMR1_ISR:
  2799                           	callstack 120
  2800  0031AE                     
  2801                           ;mcc_generated_files/tmr1.c: 166:     static volatile unsigned int CountCallBack = 0;;mc
      +                          c_generated_files/tmr1.c: 169:     PIR3bits.TMR1IF = 0;
  2802  0031AE  98B1               	bcf	177,4,c	;volatile
  2803  0031B0                     
  2804                           ;mcc_generated_files/tmr1.c: 170:     TMR1_WriteTimer(timer1ReloadVal);
  2805  0031B0  C55B  F501         	movff	_timer1ReloadVal,TMR1_WriteTimer@timerVal	;volatile
  2806  0031B4  C55C  F502         	movff	_timer1ReloadVal+1,TMR1_WriteTimer@timerVal+1	;volatile
  2807  0031B8  EC23  F019         	call	_TMR1_WriteTimer	;wreg free
  2808  0031BC                     
  2809                           ;mcc_generated_files/tmr1.c: 173:     if (++CountCallBack >= 5)
  2810  0031BC  4A3E               	infsnz	TMR1_ISR@CountCallBack^(0+1280),f,c	;volatile
  2811  0031BE  2A3F               	incf	(TMR1_ISR@CountCallBack+1)^(0+1280),f,c	;volatile
  2812  0031C0  503F               	movf	(TMR1_ISR@CountCallBack+1)^(0+1280),w,c	;volatile
  2813  0031C2  E109               	bnz	i2u196_40
  2814  0031C4  0E05               	movlw	5
  2815  0031C6  5C3E               	subwf	TMR1_ISR@CountCallBack^(0+1280),w,c	;volatile
  2816  0031C8  A0D8               	btfss	status,0,c
  2817  0031CA  EFE9  F018         	goto	i2u196_41
  2818  0031CE  EFEB  F018         	goto	i2u196_40
  2819  0031D2                     i2u196_41:
  2820  0031D2  EFF1  F018         	goto	i2l441
  2821  0031D6                     i2u196_40:
  2822  0031D6                     
  2823                           ;mcc_generated_files/tmr1.c: 177:         TMR1_CallBack();
  2824  0031D6  EC3A  F019         	call	_TMR1_CallBack	;wreg free
  2825  0031DA                     
  2826                           ;mcc_generated_files/tmr1.c: 180:         CountCallBack = 0;
  2827  0031DA  0E00               	movlw	0
  2828  0031DC  6E3F               	movwf	(TMR1_ISR@CountCallBack+1)^(0+1280),c	;volatile
  2829  0031DE  0E00               	movlw	0
  2830  0031E0  6E3E               	movwf	TMR1_ISR@CountCallBack^(0+1280),c	;volatile
  2831  0031E2                     i2l441:
  2832  0031E2  0012               	return		;funcret
  2833  0031E4                     __end_of_TMR1_ISR:
  2834                           	callstack 0
  2835                           
  2836 ;; *************** function _TMR1_WriteTimer *****************
  2837 ;; Defined at:
  2838 ;;		line 127 in file "mcc_generated_files/tmr1.c"
  2839 ;; Parameters:    Size  Location     Type
  2840 ;;  timerVal        2    0[COMRAM] unsigned short 
  2841 ;; Auto vars:     Size  Location     Type
  2842 ;;		None
  2843 ;; Return value:  Size  Location     Type
  2844 ;;                  1    wreg      void 
  2845 ;; Registers used:
  2846 ;;		wreg, status,2
  2847 ;; Tracked objects:
  2848 ;;		On entry : 0/0
  2849 ;;		On exit  : 0/0
  2850 ;;		Unchanged: 0/0
  2851 ;; Data sizes:     COMRAM   BANK5   BANK6   BANK7   BANK8   BANK9  BANK10  BANK11  BANK12  BANK13  BANK14  BANK15  BANK1
      +6  BANK17  BANK18  BANK19  BANK20  BANK21  BANK22  BANK23  BANK24  BANK25  BANK26  BANK27  BANK28  BANK29  BANK30  BANK3
      +1  BANK32  BANK33  BANK34  BANK35  BANK36  BANK37
  2852 ;;      Params:         2       0       0       0       0       0       0       0       0       0       0       0       
      +0       0       0       0       0       0       0       0       0       0       0       0       0       0       0       
      +0       0       0       0       0       0       0
  2853 ;;      Locals:         0       0       0       0       0       0       0       0       0       0       0       0       
      +0       0       0       0       0       0       0       0       0       0       0       0       0       0       0       
      +0       0       0       0       0       0       0
  2854 ;;      Temps:          0       0       0       0       0       0       0       0       0       0       0       0       
      +0       0       0       0       0       0       0       0       0       0       0       0       0       0       0       
      +0       0       0       0       0       0       0
  2855 ;;      Totals:         2       0       0       0       0       0       0       0       0       0       0       0       
      +0       0       0       0       0       0       0       0       0       0       0       0       0       0       0       
      +0       0       0       0       0       0       0
  2856 ;;Total ram usage:        2 bytes
  2857 ;; Hardware stack levels used:    1
  2858 ;; This function calls:
  2859 ;;		Nothing
  2860 ;; This function is called by:
  2861 ;;		_TMR1_ISR
  2862 ;;		_TMR1_Reload
  2863 ;; This function uses a non-reentrant model
  2864 ;;
  2865                           
  2866                           	psect	text30
  2867  003246                     __ptext30:
  2868                           	callstack 0
  2869  003246                     _TMR1_WriteTimer:
  2870                           	callstack 121
  2871  003246                     
  2872                           ;mcc_generated_files/tmr1.c: 127: void TMR1_WriteTimer(uint16_t timerVal);mcc_generated_
      +                          files/tmr1.c: 128: {;mcc_generated_files/tmr1.c: 129:     if (T1CONbits.NOT_SYNC == 1)
  2873  003246  0103               	movlb	3	; () banked
  2874  003248  A51E               	btfss	30,2,b	;volatile
  2875  00324A  EF29  F019         	goto	i2u168_41
  2876  00324E  EF2B  F019         	goto	i2u168_40
  2877  003252                     i2u168_41:
  2878  003252  EF34  F019         	goto	i2l2694
  2879  003256                     i2u168_40:
  2880  003256                     
  2881                           ; BSR set to: 3
  2882                           ;mcc_generated_files/tmr1.c: 130:     {;mcc_generated_files/tmr1.c: 132:         T1CONbi
      +                          ts.TMR1ON = 0;
  2883  003256  911E               	bcf	30,0,b	;volatile
  2884  003258                     
  2885                           ; BSR set to: 3
  2886                           ;mcc_generated_files/tmr1.c: 135:         TMR1H = (uint8_t)(timerVal >> 8);
  2887  003258  5002               	movf	(TMR1_WriteTimer@timerVal+1)^(0+1280),w,c
  2888  00325A  6F1D               	movwf	29,b	;volatile
  2889  00325C                     
  2890                           ; BSR set to: 3
  2891                           ;mcc_generated_files/tmr1.c: 136:         TMR1L = (uint8_t)timerVal;
  2892  00325C  0061  F404  F31C   	movff	TMR1_WriteTimer@timerVal,796	;volatile
  2893  003262                     
  2894                           ; BSR set to: 3
  2895                           ;mcc_generated_files/tmr1.c: 139:         T1CONbits.TMR1ON =1;
  2896  003262  811E               	bsf	30,0,b	;volatile
  2897                           
  2898                           ;mcc_generated_files/tmr1.c: 140:     }
  2899  003264  EF39  F019         	goto	i2l426
  2900  003268                     i2l2694:
  2901                           
  2902                           ; BSR set to: 3
  2903                           ;mcc_generated_files/tmr1.c: 142:     {;mcc_generated_files/tmr1.c: 144:         TMR1H =
      +                           (uint8_t)(timerVal >> 8);
  2904  003268  5002               	movf	(TMR1_WriteTimer@timerVal+1)^(0+1280),w,c
  2905  00326A  6F1D               	movwf	29,b	;volatile
  2906  00326C                     
  2907                           ; BSR set to: 3
  2908                           ;mcc_generated_files/tmr1.c: 145:         TMR1L = (uint8_t)timerVal;
  2909  00326C  0061  F404  F31C   	movff	TMR1_WriteTimer@timerVal,796	;volatile
  2910  003272                     i2l426:
  2911                           
  2912                           ; BSR set to: 3
  2913  003272  0012               	return		;funcret
  2914  003274                     __end_of_TMR1_WriteTimer:
  2915                           	callstack 0
  2916                           
  2917 ;; *************** function _TMR1_CallBack *****************
  2918 ;; Defined at:
  2919 ;;		line 186 in file "mcc_generated_files/tmr1.c"
  2920 ;; Parameters:    Size  Location     Type
  2921 ;;		None
  2922 ;; Auto vars:     Size  Location     Type
  2923 ;;		None
  2924 ;; Return value:  Size  Location     Type
  2925 ;;                  1    wreg      void 
  2926 ;; Registers used:
  2927 ;;		wreg, status,2, status,0, pclath, tosl, cstack
  2928 ;; Tracked objects:
  2929 ;;		On entry : 0/0
  2930 ;;		On exit  : 0/0
  2931 ;;		Unchanged: 0/0
  2932 ;; Data sizes:     COMRAM   BANK5   BANK6   BANK7   BANK8   BANK9  BANK10  BANK11  BANK12  BANK13  BANK14  BANK15  BANK1
      +6  BANK17  BANK18  BANK19  BANK20  BANK21  BANK22  BANK23  BANK24  BANK25  BANK26  BANK27  BANK28  BANK29  BANK30  BANK3
      +1  BANK32  BANK33  BANK34  BANK35  BANK36  BANK37
  2933 ;;      Params:         0       0       0       0       0       0       0       0       0       0       0       0       
      +0       0       0       0       0       0       0       0       0       0       0       0       0       0       0       
      +0       0       0       0       0       0       0
  2934 ;;      Locals:         0       0       0       0       0       0       0       0       0       0       0       0       
      +0       0       0       0       0       0       0       0       0       0       0       0       0       0       0       
      +0       0       0       0       0       0       0
  2935 ;;      Temps:          0       0       0       0       0       0       0       0       0       0       0       0       
      +0       0       0       0       0       0       0       0       0       0       0       0       0       0       0       
      +0       0       0       0       0       0       0
  2936 ;;      Totals:         0       0       0       0       0       0       0       0       0       0       0       0       
      +0       0       0       0       0       0       0       0       0       0       0       0       0       0       0       
      +0       0       0       0       0       0       0
  2937 ;;Total ram usage:        0 bytes
  2938 ;; Hardware stack levels used:    1
  2939 ;; Hardware stack levels required when called:    1
  2940 ;; This function calls:
  2941 ;;		Absolute function
  2942 ;;		_TMR1_DefaultInterruptHandler
  2943 ;; This function is called by:
  2944 ;;		_TMR1_ISR
  2945 ;; This function uses a non-reentrant model
  2946 ;;
  2947                           
  2948                           	psect	text31
  2949  003274                     __ptext31:
  2950                           	callstack 0
  2951  003274                     _TMR1_CallBack:
  2952                           	callstack 120
  2953  003274                     
  2954                           ;mcc_generated_files/tmr1.c: 189:     if(TMR1_InterruptHandler)
  2955  003274  0105               	movlb	5	; () banked
  2956  003276  517D               	movf	_TMR1_InterruptHandler& (0+255),w,b
  2957  003278  117E               	iorwf	(_TMR1_InterruptHandler+1)& (0+255),w,b
  2958  00327A  B4D8               	btfsc	status,2,c
  2959  00327C  EF42  F019         	goto	i2u169_41
  2960  003280  EF44  F019         	goto	i2u169_40
  2961  003284                     i2u169_41:
  2962  003284  EF50  F019         	goto	i2l445
  2963  003288                     i2u169_40:
  2964  003288                     
  2965                           ; BSR set to: 5
  2966                           ;mcc_generated_files/tmr1.c: 190:     {;mcc_generated_files/tmr1.c: 191:         TMR1_In
      +                          terruptHandler();
  2967  003288  D802               	call	i2u170_48
  2968  00328A  EF50  F019         	goto	i2u170_49
  2969  00328E                     i2u170_48:
  2970  00328E  0005               	push	
  2971  003290  6EFA               	movwf	pclath,c
  2972  003292  517D               	movf	_TMR1_InterruptHandler& (0+255),w,b
  2973  003294  6EFD               	movwf	tosl,c
  2974  003296  517E               	movf	(_TMR1_InterruptHandler+1)& (0+255),w,b
  2975  003298  6EFE               	movwf	tosh,c
  2976  00329A  6AFF               	clrf	tosu,c
  2977  00329C  50FA               	movf	pclath,w,c
  2978  00329E  0012               	return		;indir
  2979  0032A0                     i2u170_49:
  2980  0032A0                     i2l445:
  2981  0032A0  0012               	return		;funcret
  2982  0032A2                     __end_of_TMR1_CallBack:
  2983                           	callstack 0
  2984                           
  2985 ;; *************** function _TMR1_DefaultInterruptHandler *****************
  2986 ;; Defined at:
  2987 ;;		line 199 in file "mcc_generated_files/tmr1.c"
  2988 ;; Parameters:    Size  Location     Type
  2989 ;;		None
  2990 ;; Auto vars:     Size  Location     Type
  2991 ;;		None
  2992 ;; Return value:  Size  Location     Type
  2993 ;;                  1    wreg      void 
  2994 ;; Registers used:
  2995 ;;		None
  2996 ;; Tracked objects:
  2997 ;;		On entry : 0/0
  2998 ;;		On exit  : 0/0
  2999 ;;		Unchanged: 0/0
  3000 ;; Data sizes:     COMRAM   BANK5   BANK6   BANK7   BANK8   BANK9  BANK10  BANK11  BANK12  BANK13  BANK14  BANK15  BANK1
      +6  BANK17  BANK18  BANK19  BANK20  BANK21  BANK22  BANK23  BANK24  BANK25  BANK26  BANK27  BANK28  BANK29  BANK30  BANK3
      +1  BANK32  BANK33  BANK34  BANK35  BANK36  BANK37
  3001 ;;      Params:         0       0       0       0       0       0       0       0       0       0       0       0       
      +0       0       0       0       0       0       0       0       0       0       0       0       0       0       0       
      +0       0       0       0       0       0       0
  3002 ;;      Locals:         0       0       0       0       0       0       0       0       0       0       0       0       
      +0       0       0       0       0       0       0       0       0       0       0       0       0       0       0       
      +0       0       0       0       0       0       0
  3003 ;;      Temps:          0       0       0       0       0       0       0       0       0       0       0       0       
      +0       0       0       0       0       0       0       0       0       0       0       0       0       0       0       
      +0       0       0       0       0       0       0
  3004 ;;      Totals:         0       0       0       0       0       0       0       0       0       0       0       0       
      +0       0       0       0       0       0       0       0       0       0       0       0       0       0       0       
      +0       0       0       0       0       0       0
  3005 ;;Total ram usage:        0 bytes
  3006 ;; Hardware stack levels used:    1
  3007 ;; This function calls:
  3008 ;;		Nothing
  3009 ;; This function is called by:
  3010 ;;		_TMR1_Initialize
  3011 ;;		_TMR1_CallBack
  3012 ;; This function uses a non-reentrant model
  3013 ;;
  3014                           
  3015                           	psect	text32
  3016  003484                     __ptext32:
  3017                           	callstack 0
  3018  003484                     _TMR1_DefaultInterruptHandler:
  3019                           	callstack 120
  3020  003484  0012               	return		;funcret
  3021  003486                     __end_of_TMR1_DefaultInterruptHandler:
  3022                           	callstack 0
  3023                           
  3024 ;; *************** function _TMR0_ISR *****************
  3025 ;; Defined at:
  3026 ;;		line 121 in file "mcc_generated_files/tmr0.c"
  3027 ;; Parameters:    Size  Location     Type
  3028 ;;		None
  3029 ;; Auto vars:     Size  Location     Type
  3030 ;;		None
  3031 ;; Return value:  Size  Location     Type
  3032 ;;                  1    wreg      void 
  3033 ;; Registers used:
  3034 ;;		wreg, status,2, status,0, pclath, tosl, cstack
  3035 ;; Tracked objects:
  3036 ;;		On entry : 0/0
  3037 ;;		On exit  : 0/0
  3038 ;;		Unchanged: 0/0
  3039 ;; Data sizes:     COMRAM   BANK5   BANK6   BANK7   BANK8   BANK9  BANK10  BANK11  BANK12  BANK13  BANK14  BANK15  BANK1
      +6  BANK17  BANK18  BANK19  BANK20  BANK21  BANK22  BANK23  BANK24  BANK25  BANK26  BANK27  BANK28  BANK29  BANK30  BANK3
      +1  BANK32  BANK33  BANK34  BANK35  BANK36  BANK37
  3040 ;;      Params:         0       0       0       0       0       0       0       0       0       0       0       0       
      +0       0       0       0       0       0       0       0       0       0       0       0       0       0       0       
      +0       0       0       0       0       0       0
  3041 ;;      Locals:         0       0       0       0       0       0       0       0       0       0       0       0       
      +0       0       0       0       0       0       0       0       0       0       0       0       0       0       0       
      +0       0       0       0       0       0       0
  3042 ;;      Temps:          0       0       0       0       0       0       0       0       0       0       0       0       
      +0       0       0       0       0       0       0       0       0       0       0       0       0       0       0       
      +0       0       0       0       0       0       0
  3043 ;;      Totals:         0       0       0       0       0       0       0       0       0       0       0       0       
      +0       0       0       0       0       0       0       0       0       0       0       0       0       0       0       
      +0       0       0       0       0       0       0
  3044 ;;Total ram usage:        0 bytes
  3045 ;; Hardware stack levels used:    1
  3046 ;; Hardware stack levels required when called:    2
  3047 ;; This function calls:
  3048 ;;		_SPEAKER
  3049 ;;		_TMR0_CallBack
  3050 ;; This function is called by:
  3051 ;;		_INTERRUPT_InterruptManager
  3052 ;; This function uses a non-reentrant model
  3053 ;;
  3054                           
  3055                           	psect	text33
  3056  002F86                     __ptext33:
  3057                           	callstack 0
  3058  002F86                     _TMR0_ISR:
  3059                           	callstack 120
  3060  002F86                     
  3061                           ;mcc_generated_files/tmr0.c: 123:     static volatile uint16_t CountCallBack = 0;;mcc_ge
      +                          nerated_files/tmr0.c: 126:     PIR3bits.TMR0IF = 0;
  3062  002F86  9EB1               	bcf	177,7,c	;volatile
  3063  002F88                     
  3064                           ;mcc_generated_files/tmr0.c: 128:     if (++CountCallBack >= 36)
  3065  002F88  4A3C               	infsnz	TMR0_ISR@CountCallBack^(0+1280),f,c	;volatile
  3066  002F8A  2A3D               	incf	(TMR0_ISR@CountCallBack+1)^(0+1280),f,c	;volatile
  3067  002F8C  503D               	movf	(TMR0_ISR@CountCallBack+1)^(0+1280),w,c	;volatile
  3068  002F8E  E109               	bnz	i2u197_40
  3069  002F90  0E24               	movlw	36
  3070  002F92  5C3C               	subwf	TMR0_ISR@CountCallBack^(0+1280),w,c	;volatile
  3071  002F94  A0D8               	btfss	status,0,c
  3072  002F96  EFCF  F017         	goto	i2u197_41
  3073  002F9A  EFD1  F017         	goto	i2u197_40
  3074  002F9E                     i2u197_41:
  3075  002F9E  EFD7  F017         	goto	i2l2812
  3076  002FA2                     i2u197_40:
  3077  002FA2                     
  3078                           ;mcc_generated_files/tmr0.c: 129:     {;mcc_generated_files/tmr0.c: 133:         TMR0_Ca
      +                          llBack();
  3079  002FA2  EC51  F019         	call	_TMR0_CallBack	;wreg free
  3080  002FA6                     
  3081                           ;mcc_generated_files/tmr0.c: 136:         CountCallBack = 0;
  3082  002FA6  0E00               	movlw	0
  3083  002FA8  6E3D               	movwf	(TMR0_ISR@CountCallBack+1)^(0+1280),c	;volatile
  3084  002FAA  0E00               	movlw	0
  3085  002FAC  6E3C               	movwf	TMR0_ISR@CountCallBack^(0+1280),c	;volatile
  3086  002FAE                     i2l2812:
  3087                           
  3088                           ;mcc_generated_files/tmr0.c: 142:     if (ucFlagEmergencySpeaker == 1)
  3089  002FAE  0444               	decf	_ucFlagEmergencySpeaker^(0+1280),w,c
  3090  002FB0  A4D8               	btfss	status,2,c
  3091  002FB2  EFDD  F017         	goto	i2u198_41
  3092  002FB6  EFDF  F017         	goto	i2u198_40
  3093  002FBA                     i2u198_41:
  3094  002FBA  EFEF  F017         	goto	i2l547
  3095  002FBE                     i2u198_40:
  3096  002FBE                     
  3097                           ;mcc_generated_files/tmr0.c: 143:     {;mcc_generated_files/tmr0.c: 144:         if ( ++
      +                          ucSpeakerCount >= 36)
  3098  002FBE  2A43               	incf	_ucSpeakerCount^(0+1280),f,c
  3099  002FC0  0E23               	movlw	35
  3100  002FC2  6443               	cpfsgt	_ucSpeakerCount^(0+1280),c
  3101  002FC4  EFE6  F017         	goto	i2u199_41
  3102  002FC8  EFE8  F017         	goto	i2u199_40
  3103  002FCC                     i2u199_41:
  3104  002FCC  EFED  F017         	goto	i2l2820
  3105  002FD0                     i2u199_40:
  3106  002FD0                     
  3107                           ;mcc_generated_files/tmr0.c: 145:         {;mcc_generated_files/tmr0.c: 146:            
      +                           ucFlagEmergencySpeaker = 0;
  3108  002FD0  0E00               	movlw	0
  3109  002FD2  6E44               	movwf	_ucFlagEmergencySpeaker^(0+1280),c
  3110                           
  3111                           ;mcc_generated_files/tmr0.c: 147:             ucSpeakerCount = 0;
  3112  002FD4  0E00               	movlw	0
  3113  002FD6  6E43               	movwf	_ucSpeakerCount^(0+1280),c
  3114  002FD8  96C0               	bcf	192,3,c	;volatile
  3115  002FDA                     i2l2820:
  3116                           
  3117                           ;mcc_generated_files/tmr0.c: 150:         SPEAKER();
  3118  002FDA  ECBA  F018         	call	_SPEAKER	;wreg free
  3119  002FDE                     i2l547:
  3120  002FDE  0012               	return		;funcret
  3121  002FE0                     __end_of_TMR0_ISR:
  3122                           	callstack 0
  3123                           
  3124 ;; *************** function _TMR0_CallBack *****************
  3125 ;; Defined at:
  3126 ;;		line 154 in file "mcc_generated_files/tmr0.c"
  3127 ;; Parameters:    Size  Location     Type
  3128 ;;		None
  3129 ;; Auto vars:     Size  Location     Type
  3130 ;;		None
  3131 ;; Return value:  Size  Location     Type
  3132 ;;                  1    wreg      void 
  3133 ;; Registers used:
  3134 ;;		wreg, status,2, status,0, pclath, tosl, cstack
  3135 ;; Tracked objects:
  3136 ;;		On entry : 0/0
  3137 ;;		On exit  : 0/0
  3138 ;;		Unchanged: 0/0
  3139 ;; Data sizes:     COMRAM   BANK5   BANK6   BANK7   BANK8   BANK9  BANK10  BANK11  BANK12  BANK13  BANK14  BANK15  BANK1
      +6  BANK17  BANK18  BANK19  BANK20  BANK21  BANK22  BANK23  BANK24  BANK25  BANK26  BANK27  BANK28  BANK29  BANK30  BANK3
      +1  BANK32  BANK33  BANK34  BANK35  BANK36  BANK37
  3140 ;;      Params:         0       0       0       0       0       0       0       0       0       0       0       0       
      +0       0       0       0       0       0       0       0       0       0       0       0       0       0       0       
      +0       0       0       0       0       0       0
  3141 ;;      Locals:         0       0       0       0       0       0       0       0       0       0       0       0       
      +0       0       0       0       0       0       0       0       0       0       0       0       0       0       0       
      +0       0       0       0       0       0       0
  3142 ;;      Temps:          0       0       0       0       0       0       0       0       0       0       0       0       
      +0       0       0       0       0       0       0       0       0       0       0       0       0       0       0       
      +0       0       0       0       0       0       0
  3143 ;;      Totals:         0       0       0       0       0       0       0       0       0       0       0       0       
      +0       0       0       0       0       0       0       0       0       0       0       0       0       0       0       
      +0       0       0       0       0       0       0
  3144 ;;Total ram usage:        0 bytes
  3145 ;; Hardware stack levels used:    1
  3146 ;; Hardware stack levels required when called:    1
  3147 ;; This function calls:
  3148 ;;		Absolute function
  3149 ;;		_TMR0_DefaultInterruptHandler
  3150 ;; This function is called by:
  3151 ;;		_TMR0_ISR
  3152 ;; This function uses a non-reentrant model
  3153 ;;
  3154                           
  3155                           	psect	text34
  3156  0032A2                     __ptext34:
  3157                           	callstack 0
  3158  0032A2                     _TMR0_CallBack:
  3159                           	callstack 120
  3160  0032A2                     
  3161                           ;mcc_generated_files/tmr0.c: 158:     if(TMR0_InterruptHandler)
  3162  0032A2  0105               	movlb	5	; () banked
  3163  0032A4  517B               	movf	_TMR0_InterruptHandler& (0+255),w,b
  3164  0032A6  117C               	iorwf	(_TMR0_InterruptHandler+1)& (0+255),w,b
  3165  0032A8  B4D8               	btfsc	status,2,c
  3166  0032AA  EF59  F019         	goto	i2u171_41
  3167  0032AE  EF5B  F019         	goto	i2u171_40
  3168  0032B2                     i2u171_41:
  3169  0032B2  EF67  F019         	goto	i2l551
  3170  0032B6                     i2u171_40:
  3171  0032B6                     
  3172                           ; BSR set to: 5
  3173                           ;mcc_generated_files/tmr0.c: 159:     {;mcc_generated_files/tmr0.c: 160:         TMR0_In
      +                          terruptHandler();
  3174  0032B6  D802               	call	i2u172_48
  3175  0032B8  EF67  F019         	goto	i2u172_49
  3176  0032BC                     i2u172_48:
  3177  0032BC  0005               	push	
  3178  0032BE  6EFA               	movwf	pclath,c
  3179  0032C0  517B               	movf	_TMR0_InterruptHandler& (0+255),w,b
  3180  0032C2  6EFD               	movwf	tosl,c
  3181  0032C4  517C               	movf	(_TMR0_InterruptHandler+1)& (0+255),w,b
  3182  0032C6  6EFE               	movwf	tosh,c
  3183  0032C8  6AFF               	clrf	tosu,c
  3184  0032CA  50FA               	movf	pclath,w,c
  3185  0032CC  0012               	return		;indir
  3186  0032CE                     i2u172_49:
  3187  0032CE                     i2l551:
  3188  0032CE  0012               	return		;funcret
  3189  0032D0                     __end_of_TMR0_CallBack:
  3190                           	callstack 0
  3191                           
  3192 ;; *************** function _TMR0_DefaultInterruptHandler *****************
  3193 ;; Defined at:
  3194 ;;		line 168 in file "mcc_generated_files/tmr0.c"
  3195 ;; Parameters:    Size  Location     Type
  3196 ;;		None
  3197 ;; Auto vars:     Size  Location     Type
  3198 ;;		None
  3199 ;; Return value:  Size  Location     Type
  3200 ;;                  1    wreg      void 
  3201 ;; Registers used:
  3202 ;;		None
  3203 ;; Tracked objects:
  3204 ;;		On entry : 0/0
  3205 ;;		On exit  : 0/0
  3206 ;;		Unchanged: 0/0
  3207 ;; Data sizes:     COMRAM   BANK5   BANK6   BANK7   BANK8   BANK9  BANK10  BANK11  BANK12  BANK13  BANK14  BANK15  BANK1
      +6  BANK17  BANK18  BANK19  BANK20  BANK21  BANK22  BANK23  BANK24  BANK25  BANK26  BANK27  BANK28  BANK29  BANK30  BANK3
      +1  BANK32  BANK33  BANK34  BANK35  BANK36  BANK37
  3208 ;;      Params:         0       0       0       0       0       0       0       0       0       0       0       0       
      +0       0       0       0       0       0       0       0       0       0       0       0       0       0       0       
      +0       0       0       0       0       0       0
  3209 ;;      Locals:         0       0       0       0       0       0       0       0       0       0       0       0       
      +0       0       0       0       0       0       0       0       0       0       0       0       0       0       0       
      +0       0       0       0       0       0       0
  3210 ;;      Temps:          0       0       0       0       0       0       0       0       0       0       0       0       
      +0       0       0       0       0       0       0       0       0       0       0       0       0       0       0       
      +0       0       0       0       0       0       0
  3211 ;;      Totals:         0       0       0       0       0       0       0       0       0       0       0       0       
      +0       0       0       0       0       0       0       0       0       0       0       0       0       0       0       
      +0       0       0       0       0       0       0
  3212 ;;Total ram usage:        0 bytes
  3213 ;; Hardware stack levels used:    1
  3214 ;; This function calls:
  3215 ;;		Nothing
  3216 ;; This function is called by:
  3217 ;;		_TMR0_Initialize
  3218 ;;		_TMR0_CallBack
  3219 ;; This function uses a non-reentrant model
  3220 ;;
  3221                           
  3222                           	psect	text35
  3223  003486                     __ptext35:
  3224                           	callstack 0
  3225  003486                     _TMR0_DefaultInterruptHandler:
  3226                           	callstack 120
  3227  003486  0012               	return		;funcret
  3228  003488                     __end_of_TMR0_DefaultInterruptHandler:
  3229                           	callstack 0
  3230                           
  3231 ;; *************** function _SPEAKER *****************
  3232 ;; Defined at:
  3233 ;;		line 15 in file "SPEAKER.c"
  3234 ;; Parameters:    Size  Location     Type
  3235 ;;		None
  3236 ;; Auto vars:     Size  Location     Type
  3237 ;;		None
  3238 ;; Return value:  Size  Location     Type
  3239 ;;                  1    wreg      void 
  3240 ;; Registers used:
  3241 ;;		wreg, status,2, status,0
  3242 ;; Tracked objects:
  3243 ;;		On entry : 0/0
  3244 ;;		On exit  : 0/0
  3245 ;;		Unchanged: 0/0
  3246 ;; Data sizes:     COMRAM   BANK5   BANK6   BANK7   BANK8   BANK9  BANK10  BANK11  BANK12  BANK13  BANK14  BANK15  BANK1
      +6  BANK17  BANK18  BANK19  BANK20  BANK21  BANK22  BANK23  BANK24  BANK25  BANK26  BANK27  BANK28  BANK29  BANK30  BANK3
      +1  BANK32  BANK33  BANK34  BANK35  BANK36  BANK37
  3247 ;;      Params:         0       0       0       0       0       0       0       0       0       0       0       0       
      +0       0       0       0       0       0       0       0       0       0       0       0       0       0       0       
      +0       0       0       0       0       0       0
  3248 ;;      Locals:         0       0       0       0       0       0       0       0       0       0       0       0       
      +0       0       0       0       0       0       0       0       0       0       0       0       0       0       0       
      +0       0       0       0       0       0       0
  3249 ;;      Temps:          1       0       0       0       0       0       0       0       0       0       0       0       
      +0       0       0       0       0       0       0       0       0       0       0       0       0       0       0       
      +0       0       0       0       0       0       0
  3250 ;;      Totals:         1       0       0       0       0       0       0       0       0       0       0       0       
      +0       0       0       0       0       0       0       0       0       0       0       0       0       0       0       
      +0       0       0       0       0       0       0
  3251 ;;Total ram usage:        1 bytes
  3252 ;; Hardware stack levels used:    1
  3253 ;; This function calls:
  3254 ;;		Nothing
  3255 ;; This function is called by:
  3256 ;;		_TMR0_ISR
  3257 ;; This function uses a non-reentrant model
  3258 ;;
  3259                           
  3260                           	psect	text36
  3261  003174                     __ptext36:
  3262                           	callstack 0
  3263  003174                     _SPEAKER:
  3264                           	callstack 121
  3265  003174                     
  3266                           ;SPEAKER.c: 17:     if (ucASState == 3 )
  3267  003174  0E03               	movlw	3
  3268  003176  1842               	xorwf	_ucASState^(0+1280),w,c
  3269  003178  A4D8               	btfss	status,2,c
  3270  00317A  EFC1  F018         	goto	i2u173_41
  3271  00317E  EFC3  F018         	goto	i2u173_40
  3272  003182                     i2u173_41:
  3273  003182  EFD6  F018         	goto	i2l686
  3274  003186                     i2u173_40:
  3275  003186  B6C0               	btfsc	192,3,c	;volatile
  3276  003188  EFC8  F018         	goto	i2u174_41
  3277  00318C  EFCB  F018         	goto	i2u174_40
  3278  003190                     i2u174_41:
  3279  003190  0E01               	movlw	1
  3280  003192  EFCC  F018         	goto	i2u174_46
  3281  003196                     i2u174_40:
  3282  003196  0E00               	movlw	0
  3283  003198                     i2u174_46:
  3284  003198  0AFF               	xorlw	255
  3285  00319A  6E01               	movwf	??_SPEAKER^(0+1280),c
  3286  00319C  4601               	rlncf	??_SPEAKER^(0+1280),f,c
  3287  00319E  4601               	rlncf	??_SPEAKER^(0+1280),f,c
  3288  0031A0  4601               	rlncf	??_SPEAKER^(0+1280),f,c
  3289  0031A2  50C0               	movf	192,w,c	;volatile
  3290  0031A4  1801               	xorwf	??_SPEAKER^(0+1280),w,c
  3291  0031A6  0BF7               	andlw	-9
  3292  0031A8  1801               	xorwf	??_SPEAKER^(0+1280),w,c
  3293  0031AA  6EC0               	movwf	192,c	;volatile
  3294  0031AC                     i2l686:
  3295  0031AC  0012               	return		;funcret
  3296  0031AE                     __end_of_SPEAKER:
  3297                           	callstack 0
  3298                           
  3299 ;; *************** function _CAN1_RXI_ISR *****************
  3300 ;; Defined at:
  3301 ;;		line 713 in file "mcc_generated_files/can1.c"
  3302 ;; Parameters:    Size  Location     Type
  3303 ;;		None
  3304 ;; Auto vars:     Size  Location     Type
  3305 ;;		None
  3306 ;; Return value:  Size  Location     Type
  3307 ;;                  1    wreg      void 
  3308 ;; Registers used:
  3309 ;;		wreg, fsr2l, fsr2h, status,2, status,0, pclath, tosl, tblptrl, tblptrh, tblptru, prodl, prodh, cstack
  3310 ;; Tracked objects:
  3311 ;;		On entry : 0/0
  3312 ;;		On exit  : 0/0
  3313 ;;		Unchanged: 0/0
  3314 ;; Data sizes:     COMRAM   BANK5   BANK6   BANK7   BANK8   BANK9  BANK10  BANK11  BANK12  BANK13  BANK14  BANK15  BANK1
      +6  BANK17  BANK18  BANK19  BANK20  BANK21  BANK22  BANK23  BANK24  BANK25  BANK26  BANK27  BANK28  BANK29  BANK30  BANK3
      +1  BANK32  BANK33  BANK34  BANK35  BANK36  BANK37
  3315 ;;      Params:         0       0       0       0       0       0       0       0       0       0       0       0       
      +0       0       0       0       0       0       0       0       0       0       0       0       0       0       0       
      +0       0       0       0       0       0       0
  3316 ;;      Locals:         0       0       0       0       0       0       0       0       0       0       0       0       
      +0       0       0       0       0       0       0       0       0       0       0       0       0       0       0       
      +0       0       0       0       0       0       0
  3317 ;;      Temps:          0       0       0       0       0       0       0       0       0       0       0       0       
      +0       0       0       0       0       0       0       0       0       0       0       0       0       0       0       
      +0       0       0       0       0       0       0
  3318 ;;      Totals:         0       0       0       0       0       0       0       0       0       0       0       0       
      +0       0       0       0       0       0       0       0       0       0       0       0       0       0       0       
      +0       0       0       0       0       0       0
  3319 ;;Total ram usage:        0 bytes
  3320 ;; Hardware stack levels used:    1
  3321 ;; Hardware stack levels required when called:    5
  3322 ;; This function calls:
  3323 ;;		Absolute function
  3324 ;;		_CANReadMessage
  3325 ;;		_DefaultFIFO1NotEmptyHandler
  3326 ;; This function is called by:
  3327 ;;		_INTERRUPT_InterruptManager
  3328 ;; This function uses a non-reentrant model
  3329 ;;
  3330                           
  3331                           	psect	text37
  3332  0032D0                     __ptext37:
  3333                           	callstack 0
  3334  0032D0                     _CAN1_RXI_ISR:
  3335                           	callstack 117
  3336  0032D0                     
  3337                           ;mcc_generated_files/can1.c: 715:     if (1 == C1FIFOSTA1Lbits.TFNRFNIF)
  3338  0032D0  0101               	movlb	1	; () banked
  3339  0032D2  A160               	btfss	96,0,b	;volatile
  3340  0032D4  EF6E  F019         	goto	i2u194_41
  3341  0032D8  EF70  F019         	goto	i2u194_40
  3342  0032DC                     i2u194_41:
  3343  0032DC  EF7E  F019         	goto	i2l322
  3344  0032E0                     i2u194_40:
  3345  0032E0                     
  3346                           ; BSR set to: 1
  3347                           ;mcc_generated_files/can1.c: 716:     {;mcc_generated_files/can1.c: 717:         CAN1_FI
      +                          FO1NotEmptyHandler();
  3348  0032E0  D802               	call	i2u195_48
  3349  0032E2  EF7C  F019         	goto	i2u195_49
  3350  0032E6                     i2u195_48:
  3351  0032E6  0005               	push	
  3352  0032E8  6EFA               	movwf	pclath,c
  3353  0032EA  5040               	movf	_CAN1_FIFO1NotEmptyHandler^(0+1280),w,c
  3354  0032EC  6EFD               	movwf	tosl,c
  3355  0032EE  5041               	movf	(_CAN1_FIFO1NotEmptyHandler+1)^(0+1280),w,c
  3356  0032F0  6EFE               	movwf	tosh,c
  3357  0032F2  6AFF               	clrf	tosu,c
  3358  0032F4  50FA               	movf	pclath,w,c
  3359  0032F6  0012               	return		;indir
  3360  0032F8                     i2u195_49:
  3361  0032F8                     
  3362                           ;mcc_generated_files/can1.c: 719:         CANReadMessage();
  3363  0032F8  ECAC  F016         	call	_CANReadMessage	;wreg free
  3364  0032FC                     i2l322:
  3365  0032FC  0012               	return		;funcret
  3366  0032FE                     __end_of_CAN1_RXI_ISR:
  3367                           	callstack 0
  3368                           
  3369 ;; *************** function _DefaultFIFO1NotEmptyHandler *****************
  3370 ;; Defined at:
  3371 ;;		line 119 in file "mcc_generated_files/can1.c"
  3372 ;; Parameters:    Size  Location     Type
  3373 ;;		None
  3374 ;; Auto vars:     Size  Location     Type
  3375 ;;		None
  3376 ;; Return value:  Size  Location     Type
  3377 ;;                  1    wreg      void 
  3378 ;; Registers used:
  3379 ;;		None
  3380 ;; Tracked objects:
  3381 ;;		On entry : 0/0
  3382 ;;		On exit  : 0/0
  3383 ;;		Unchanged: 0/0
  3384 ;; Data sizes:     COMRAM   BANK5   BANK6   BANK7   BANK8   BANK9  BANK10  BANK11  BANK12  BANK13  BANK14  BANK15  BANK1
      +6  BANK17  BANK18  BANK19  BANK20  BANK21  BANK22  BANK23  BANK24  BANK25  BANK26  BANK27  BANK28  BANK29  BANK30  BANK3
      +1  BANK32  BANK33  BANK34  BANK35  BANK36  BANK37
  3385 ;;      Params:         0       0       0       0       0       0       0       0       0       0       0       0       
      +0       0       0       0       0       0       0       0       0       0       0       0       0       0       0       
      +0       0       0       0       0       0       0
  3386 ;;      Locals:         0       0       0       0       0       0       0       0       0       0       0       0       
      +0       0       0       0       0       0       0       0       0       0       0       0       0       0       0       
      +0       0       0       0       0       0       0
  3387 ;;      Temps:          0       0       0       0       0       0       0       0       0       0       0       0       
      +0       0       0       0       0       0       0       0       0       0       0       0       0       0       0       
      +0       0       0       0       0       0       0
  3388 ;;      Totals:         0       0       0       0       0       0       0       0       0       0       0       0       
      +0       0       0       0       0       0       0       0       0       0       0       0       0       0       0       
      +0       0       0       0       0       0       0
  3389 ;;Total ram usage:        0 bytes
  3390 ;; Hardware stack levels used:    1
  3391 ;; This function calls:
  3392 ;;		Nothing
  3393 ;; This function is called by:
  3394 ;;		_CAN1_RX_FIFO_Configuration
  3395 ;;		_CAN1_RXI_ISR
  3396 ;; This function uses a non-reentrant model
  3397 ;;
  3398                           
  3399                           	psect	text38
  3400  003488                     __ptext38:
  3401                           	callstack 0
  3402  003488                     _DefaultFIFO1NotEmptyHandler:
  3403                           	callstack 121
  3404  003488  0012               	return		;funcret
  3405  00348A                     __end_of_DefaultFIFO1NotEmptyHandler:
  3406                           	callstack 0
  3407                           
  3408 ;; *************** function _CANReadMessage *****************
  3409 ;; Defined at:
  3410 ;;		line 67 in file "MESSAGES.c"
  3411 ;; Parameters:    Size  Location     Type
  3412 ;;		None
  3413 ;; Auto vars:     Size  Location     Type
  3414 ;;  id              4   50[COMRAM] unsigned long 
  3415 ;;  data1           1   54[COMRAM] unsigned char 
  3416 ;;  data8           1    0        unsigned char 
  3417 ;;  data7           1    0        unsigned char 
  3418 ;;  data6           1    0        unsigned char 
  3419 ;;  data5           1    0        unsigned char 
  3420 ;;  data4           1    0        unsigned char 
  3421 ;;  data3           1    0        unsigned char 
  3422 ;;  data2           1    0        unsigned char 
  3423 ;;  dlc             1    0        unsigned char 
  3424 ;;  idType          1    0        unsigned char 
  3425 ;; Return value:  Size  Location     Type
  3426 ;;                  1    wreg      void 
  3427 ;; Registers used:
  3428 ;;		wreg, fsr2l, fsr2h, status,2, status,0, tblptrl, tblptrh, tblptru, prodl, prodh, cstack
  3429 ;; Tracked objects:
  3430 ;;		On entry : 0/0
  3431 ;;		On exit  : 0/0
  3432 ;;		Unchanged: 0/0
  3433 ;; Data sizes:     COMRAM   BANK5   BANK6   BANK7   BANK8   BANK9  BANK10  BANK11  BANK12  BANK13  BANK14  BANK15  BANK1
      +6  BANK17  BANK18  BANK19  BANK20  BANK21  BANK22  BANK23  BANK24  BANK25  BANK26  BANK27  BANK28  BANK29  BANK30  BANK3
      +1  BANK32  BANK33  BANK34  BANK35  BANK36  BANK37
  3434 ;;      Params:         0       0       0       0       0       0       0       0       0       0       0       0       
      +0       0       0       0       0       0       0       0       0       0       0       0       0       0       0       
      +0       0       0       0       0       0       0
  3435 ;;      Locals:        14       0       0       0       0       0       0       0       0       0       0       0       
      +0       0       0       0       0       0       0       0       0       0       0       0       0       0       0       
      +0       0       0       0       0       0       0
  3436 ;;      Temps:          4       0       0       0       0       0       0       0       0       0       0       0       
      +0       0       0       0       0       0       0       0       0       0       0       0       0       0       0       
      +0       0       0       0       0       0       0
  3437 ;;      Totals:        18       0       0       0       0       0       0       0       0       0       0       0       
      +0       0       0       0       0       0       0       0       0       0       0       0       0       0       0       
      +0       0       0       0       0       0       0
  3438 ;;Total ram usage:       18 bytes
  3439 ;; Hardware stack levels used:    1
  3440 ;; Hardware stack levels required when called:    4
  3441 ;; This function calls:
  3442 ;;		_CAN1_Receive
  3443 ;;		_CAN1_ReceivedMessageCountGet
  3444 ;; This function is called by:
  3445 ;;		_CAN1_RXI_ISR
  3446 ;; This function uses a non-reentrant model
  3447 ;;
  3448                           
  3449                           	psect	text39
  3450  002D58                     __ptext39:
  3451                           	callstack 0
  3452  002D58                     _CANReadMessage:
  3453                           	callstack 117
  3454  002D58                     
  3455                           ;MESSAGES.c: 69:     uint32_t id;;MESSAGES.c: 70:     unsigned char idType;;MESSAGES.c: 
      +                          71:     unsigned char dlc;;MESSAGES.c: 72:     unsigned char data1;;MESSAGES.c: 73:     
      +                          unsigned char data2;;MESSAGES.c: 74:     unsigned char data3;;MESSAGES.c: 75:     unsign
      +                          ed char data4;;MESSAGES.c: 76:     unsigned char data5;;MESSAGES.c: 77:     unsigned cha
      +                          r data6;;MESSAGES.c: 78:     unsigned char data7;;MESSAGES.c: 79:     unsigned char data
      +                          8;;MESSAGES.c: 81:     if(CAN1_ReceivedMessageCountGet() > 0)
  3456  002D58  ECE6  F015         	call	_CAN1_ReceivedMessageCountGet	;wreg free
  3457  002D5C  0900               	iorlw	0
  3458  002D5E  B4D8               	btfsc	status,2,c
  3459  002D60  EFB4  F016         	goto	i2u166_41
  3460  002D64  EFB6  F016         	goto	i2u166_40
  3461  002D68                     i2u166_41:
  3462  002D68  EF0B  F017         	goto	i2l772
  3463  002D6C                     i2u166_40:
  3464  002D6C                     
  3465                           ;MESSAGES.c: 82:     {;MESSAGES.c: 83:         if(0x01 == CAN1_Receive(&msgReceipt))
  3466  002D6C  0E4D               	movlw	low _msgReceipt
  3467  002D6E  6E22               	movwf	CAN1_Receive@rxCanMsg^(0+1280),c
  3468  002D70  0E05               	movlw	high _msgReceipt
  3469  002D72  6E23               	movwf	(CAN1_Receive@rxCanMsg+1)^(0+1280),c
  3470  002D74  EC49  F018         	call	_CAN1_Receive	;wreg free
  3471  002D78  06E8               	decf	wreg,f,c
  3472  002D7A  A4D8               	btfss	status,2,c
  3473  002D7C  EFC2  F016         	goto	i2u167_41
  3474  002D80  EFC4  F016         	goto	i2u167_40
  3475  002D84                     i2u167_41:
  3476  002D84  EF0B  F017         	goto	i2l772
  3477  002D88                     i2u167_40:
  3478  002D88                     
  3479                           ;MESSAGES.c: 84:         {;MESSAGES.c: 85:             __nop();
  3480  002D88  F000               	nop	
  3481                           
  3482                           ;MESSAGES.c: 86:             id = msgReceipt.msgId;
  3483  002D8A  C54D  F533         	movff	_msgReceipt,CANReadMessage@id
  3484  002D8E  C54E  F534         	movff	_msgReceipt+1,CANReadMessage@id+1
  3485  002D92  C54F  F535         	movff	_msgReceipt+2,CANReadMessage@id+2
  3486  002D96  C550  F536         	movff	_msgReceipt+3,CANReadMessage@id+3
  3487  002D9A                     
  3488                           ;MESSAGES.c: 89:             data1 = msgReceipt.data[0];
  3489  002D9A  0061  F548  F4D9   	movff	_msgReceipt+5,fsr2l
  3490  002DA0  0061  F54C  F4DA   	movff	_msgReceipt+6,fsr2h
  3491  002DA6  50DF               	movf	indf2,w,c
  3492  002DA8  6E37               	movwf	CANReadMessage@data1^(0+1280),c
  3493  002DAA                     
  3494                           ;MESSAGES.c: 98:             switch (id)
  3495  002DAA  EFDF  F016         	goto	i2l2622
  3496  002DAE                     i2l2618:
  3497                           
  3498                           ;MESSAGES.c: 102:                     ucASState = ( data1 & 0x03 );
  3499  002DAE  5037               	movf	CANReadMessage@data1^(0+1280),w,c
  3500  002DB0  0B03               	andlw	3
  3501  002DB2  6E42               	movwf	_ucASState^(0+1280),c
  3502                           
  3503                           ;MESSAGES.c: 103:                     break;
  3504  002DB4  EF0B  F017         	goto	i2l772
  3505  002DB8                     i2l771:
  3506                           
  3507                           ;MESSAGES.c: 111:                     __nop();
  3508  002DB8  F000               	nop	
  3509                           
  3510                           ;MESSAGES.c: 112:                     break;
  3511  002DBA  EF0B  F017         	goto	i2l772
  3512  002DBE                     i2l2622:
  3513  002DBE  C533  F526         	movff	CANReadMessage@id,??_CANReadMessage
  3514  002DC2  C534  F527         	movff	CANReadMessage@id+1,??_CANReadMessage+1
  3515  002DC6  C535  F528         	movff	CANReadMessage@id+2,??_CANReadMessage+2
  3516  002DCA  C536  F529         	movff	CANReadMessage@id+3,??_CANReadMessage+3
  3517                           
  3518                           ; Switch on 2 bytes has been partitioned into a top level switch of size 1, and 2 sub-sw
      +                          itches
  3519                           ; Switch size 1, requested type "simple"
  3520                           ; Number of cases is 1, Range of values is 0 to 0
  3521                           ; switch strategies available:
  3522                           ; Name         Instructions Cycles
  3523                           ; simple_byte            4     3 (average)
  3524                           ;	Chosen strategy is simple_byte
  3525  002DCE  5029               	movf	(??_CANReadMessage+3)^(0+1280),w,c
  3526  002DD0  0A00               	xorlw	0	; case 0
  3527  002DD2  B4D8               	btfsc	status,2,c
  3528  002DD4  EF04  F017         	goto	i2l2990
  3529  002DD8  EFDC  F016         	goto	i2l771
  3530  002DDC                     i2l2988:
  3531                           
  3532                           ; Switch on 2 bytes has been partitioned into a top level switch of size 1, and 1 sub-sw
      +                          itches
  3533                           ; Switch size 1, requested type "simple"
  3534                           ; Number of cases is 1, Range of values is 5 to 5
  3535                           ; switch strategies available:
  3536                           ; Name         Instructions Cycles
  3537                           ; simple_byte            4     3 (average)
  3538                           ;	Chosen strategy is simple_byte
  3539  002DDC  5027               	movf	(??_CANReadMessage+1)^(0+1280),w,c
  3540  002DDE  0A05               	xorlw	5	; case 5
  3541  002DE0  B4D8               	btfsc	status,2,c
  3542  002DE2  EFF5  F016         	goto	i2l2992
  3543  002DE6  EFDC  F016         	goto	i2l771
  3544  002DEA                     i2l2992:
  3545                           
  3546                           ; Switch size 1, requested type "simple"
  3547                           ; Number of cases is 3, Range of values is 0 to 2
  3548                           ; switch strategies available:
  3549                           ; Name         Instructions Cycles
  3550                           ; simple_byte           10     6 (average)
  3551                           ;	Chosen strategy is simple_byte
  3552  002DEA  5026               	movf	??_CANReadMessage^(0+1280),w,c
  3553  002DEC  0A00               	xorlw	0	; case 0
  3554  002DEE  B4D8               	btfsc	status,2,c
  3555  002DF0  EFD7  F016         	goto	i2l2618
  3556  002DF4  0A01               	xorlw	1	; case 1
  3557  002DF6  B4D8               	btfsc	status,2,c
  3558  002DF8  EF0B  F017         	goto	i2l765
  3559  002DFC  0A03               	xorlw	3	; case 2
  3560  002DFE  B4D8               	btfsc	status,2,c
  3561  002E00  EF0B  F017         	goto	i2l765
  3562  002E04  EFDC  F016         	goto	i2l771
  3563  002E08                     i2l2990:
  3564                           
  3565                           ; Switch size 1, requested type "simple"
  3566                           ; Number of cases is 1, Range of values is 0 to 0
  3567                           ; switch strategies available:
  3568                           ; Name         Instructions Cycles
  3569                           ; simple_byte            4     3 (average)
  3570                           ;	Chosen strategy is simple_byte
  3571  002E08  5028               	movf	(??_CANReadMessage+2)^(0+1280),w,c
  3572  002E0A  0A00               	xorlw	0	; case 0
  3573  002E0C  B4D8               	btfsc	status,2,c
  3574  002E0E  EFEE  F016         	goto	i2l2988
  3575  002E12  EFDC  F016         	goto	i2l771
  3576  002E16                     i2l765:
  3577  002E16                     i2l772:
  3578  002E16  0012               	return		;funcret
  3579  002E18                     __end_of_CANReadMessage:
  3580                           	callstack 0
  3581                           
  3582 ;; *************** function _CAN1_ReceivedMessageCountGet *****************
  3583 ;; Defined at:
  3584 ;;		line 419 in file "mcc_generated_files/can1.c"
  3585 ;; Parameters:    Size  Location     Type
  3586 ;;		None
  3587 ;; Auto vars:     Size  Location     Type
  3588 ;;  fifoHead        1    8[COMRAM] unsigned char 
  3589 ;;  fifoTail        1    7[COMRAM] unsigned char 
  3590 ;;  fifoDepth       1    6[COMRAM] unsigned char 
  3591 ;;  numOfMsg        1    3[COMRAM] unsigned char 
  3592 ;;  channel         1    5[COMRAM] enum E22386
  3593 ;;  rxMsgStatus     1    4[COMRAM] enum E22533
  3594 ;;  index           1    9[COMRAM] unsigned char 
  3595 ;;  totalMsgObj     1    2[COMRAM] unsigned char 
  3596 ;; Return value:  Size  Location     Type
  3597 ;;                  1    wreg      unsigned char 
  3598 ;; Registers used:
  3599 ;;		wreg, fsr2l, fsr2h, status,2, status,0, prodl, prodh, cstack
  3600 ;; Tracked objects:
  3601 ;;		On entry : 0/0
  3602 ;;		On exit  : 0/0
  3603 ;;		Unchanged: 0/0
  3604 ;; Data sizes:     COMRAM   BANK5   BANK6   BANK7   BANK8   BANK9  BANK10  BANK11  BANK12  BANK13  BANK14  BANK15  BANK1
      +6  BANK17  BANK18  BANK19  BANK20  BANK21  BANK22  BANK23  BANK24  BANK25  BANK26  BANK27  BANK28  BANK29  BANK30  BANK3
      +1  BANK32  BANK33  BANK34  BANK35  BANK36  BANK37
  3605 ;;      Params:         0       0       0       0       0       0       0       0       0       0       0       0       
      +0       0       0       0       0       0       0       0       0       0       0       0       0       0       0       
      +0       0       0       0       0       0       0
  3606 ;;      Locals:         8       0       0       0       0       0       0       0       0       0       0       0       
      +0       0       0       0       0       0       0       0       0       0       0       0       0       0       0       
      +0       0       0       0       0       0       0
  3607 ;;      Temps:          0       0       0       0       0       0       0       0       0       0       0       0       
      +0       0       0       0       0       0       0       0       0       0       0       0       0       0       0       
      +0       0       0       0       0       0       0
  3608 ;;      Totals:         8       0       0       0       0       0       0       0       0       0       0       0       
      +0       0       0       0       0       0       0       0       0       0       0       0       0       0       0       
      +0       0       0       0       0       0       0
  3609 ;;Total ram usage:        8 bytes
  3610 ;; Hardware stack levels used:    1
  3611 ;; Hardware stack levels required when called:    1
  3612 ;; This function calls:
  3613 ;;		_GetRxFifoDepth
  3614 ;;		_GetRxFifoStatus
  3615 ;; This function is called by:
  3616 ;;		_CANReadMessage
  3617 ;; This function uses a non-reentrant model
  3618 ;;
  3619                           
  3620                           	psect	text40
  3621  002BCC                     __ptext40:
  3622                           	callstack 0
  3623  002BCC                     _CAN1_ReceivedMessageCountGet:
  3624                           	callstack 119
  3625  002BCC                     
  3626                           ;mcc_generated_files/can1.c: 421:     uint8_t index, totalMsgObj = 0;
  3627  002BCC  0E00               	movlw	0
  3628  002BCE  6E03               	movwf	CAN1_ReceivedMessageCountGet@totalMsgObj^(0+1280),c
  3629                           
  3630                           ;mcc_generated_files/can1.c: 423:     for (index = 0; index < (1U); index++)
  3631  002BD0  0E00               	movlw	0
  3632  002BD2  6E0A               	movwf	CAN1_ReceivedMessageCountGet@index^(0+1280),c
  3633  002BD4                     i2l2462:
  3634                           
  3635                           ;mcc_generated_files/can1.c: 424:     {;mcc_generated_files/can1.c: 425:         CAN1_RX
      +                          _FIFO_CHANNELS channel = rxFifos[index].channel;
  3636  002BD4  500A               	movf	CAN1_ReceivedMessageCountGet@index^(0+1280),w,c
  3637  002BD6  0D02               	mullw	2
  3638  002BD8  0E7F               	movlw	low _rxFifos
  3639  002BDA  24F3               	addwf	243,w,c
  3640  002BDC  6ED9               	movwf	fsr2l,c
  3641  002BDE  0E05               	movlw	high _rxFifos
  3642  002BE0  20F4               	addwfc	prodh,w,c
  3643  002BE2  6EDA               	movwf	fsr2h,c
  3644  002BE4  50DF               	movf	indf2,w,c
  3645  002BE6  6E06               	movwf	CAN1_ReceivedMessageCountGet@channel^(0+1280),c
  3646  002BE8                     
  3647                           ;mcc_generated_files/can1.c: 426:         CAN_RX_FIFO_STATUS rxMsgStatus = GetRxFifoStat
      +                          us(channel);
  3648  002BE8  5006               	movf	CAN1_ReceivedMessageCountGet@channel^(0+1280),w,c
  3649  002BEA  ECE7  F019         	call	_GetRxFifoStatus
  3650  002BEE  6E05               	movwf	CAN1_ReceivedMessageCountGet@rxMsgStatus^(0+1280),c
  3651  002BF0                     
  3652                           ;mcc_generated_files/can1.c: 428:         if (CAN_RX_MSG_AVAILABLE == (rxMsgStatus & CAN
      +                          _RX_MSG_AVAILABLE))
  3653  002BF0  A005               	btfss	CAN1_ReceivedMessageCountGet@rxMsgStatus^(0+1280),0,c
  3654  002BF2  EFFD  F015         	goto	i2u142_41
  3655  002BF6  EFFF  F015         	goto	i2u142_40
  3656  002BFA                     i2u142_41:
  3657  002BFA  EF40  F016         	goto	i2l2486
  3658  002BFE                     i2u142_40:
  3659  002BFE                     
  3660                           ;mcc_generated_files/can1.c: 429:         {;mcc_generated_files/can1.c: 430:            
      +                           uint8_t numOfMsg, fifoDepth = GetRxFifoDepth(channel);
  3661  002BFE  5006               	movf	CAN1_ReceivedMessageCountGet@channel^(0+1280),w,c
  3662  002C00  ECCC  F019         	call	_GetRxFifoDepth
  3663  002C04  6E07               	movwf	CAN1_ReceivedMessageCountGet@fifoDepth^(0+1280),c
  3664  002C06                     
  3665                           ;mcc_generated_files/can1.c: 432:             if (CAN_RX_MSG_OVERFLOW == (rxMsgStatus & 
      +                          CAN_RX_MSG_OVERFLOW))
  3666  002C06  A605               	btfss	CAN1_ReceivedMessageCountGet@rxMsgStatus^(0+1280),3,c
  3667  002C08  EF08  F016         	goto	i2u143_41
  3668  002C0C  EF0A  F016         	goto	i2u143_40
  3669  002C10                     i2u143_41:
  3670  002C10  EF0E  F016         	goto	i2l2474
  3671  002C14                     i2u143_40:
  3672  002C14                     i2l2472:
  3673                           
  3674                           ;mcc_generated_files/can1.c: 433:             {;mcc_generated_files/can1.c: 434:        
      +                                   numOfMsg = fifoDepth;
  3675  002C14  C507  F504         	movff	CAN1_ReceivedMessageCountGet@fifoDepth,CAN1_ReceivedMessageCountGet@numOfMsg
  3676                           
  3677                           ;mcc_generated_files/can1.c: 435:             }
  3678  002C18  EF3E  F016         	goto	i2l2484
  3679  002C1C                     i2l2474:
  3680                           
  3681                           ;mcc_generated_files/can1.c: 437:             {;mcc_generated_files/can1.c: 438:        
      +                                   uint8_t fifoTail = FIFO[channel].STAH & 0x1F;
  3682  002C1C  5006               	movf	CAN1_ReceivedMessageCountGet@channel^(0+1280),w,c
  3683  002C1E  0D0C               	mullw	12
  3684  002C20  0E55               	movlw	85
  3685  002C22  24F3               	addwf	243,w,c
  3686  002C24  6ED9               	movwf	fsr2l,c
  3687  002C26  0E01               	movlw	1
  3688  002C28  20F4               	addwfc	prodh,w,c
  3689  002C2A  6EDA               	movwf	fsr2h,c
  3690  002C2C  50DF               	movf	indf2,w,c
  3691  002C2E  0B1F               	andlw	31
  3692  002C30  6E08               	movwf	CAN1_ReceivedMessageCountGet@fifoTail^(0+1280),c
  3693                           
  3694                           ;mcc_generated_files/can1.c: 439:                 uint8_t fifoHead = rxFifos[index].fifo
      +                          Head;
  3695  002C32  500A               	movf	CAN1_ReceivedMessageCountGet@index^(0+1280),w,c
  3696  002C34  0D02               	mullw	2
  3697  002C36  0E80               	movlw	low (_rxFifos+1)
  3698  002C38  24F3               	addwf	243,w,c
  3699  002C3A  6ED9               	movwf	fsr2l,c
  3700  002C3C  0E05               	movlw	high (_rxFifos+1)
  3701  002C3E  20F4               	addwfc	prodh,w,c
  3702  002C40  6EDA               	movwf	fsr2h,c
  3703  002C42  50DF               	movf	indf2,w,c
  3704  002C44  6E09               	movwf	CAN1_ReceivedMessageCountGet@fifoHead^(0+1280),c
  3705  002C46                     
  3706                           ;mcc_generated_files/can1.c: 441:                 if (fifoTail < fifoHead)
  3707  002C46  5009               	movf	CAN1_ReceivedMessageCountGet@fifoHead^(0+1280),w,c
  3708  002C48  5C08               	subwf	CAN1_ReceivedMessageCountGet@fifoTail^(0+1280),w,c
  3709  002C4A  B0D8               	btfsc	status,0,c
  3710  002C4C  EF2A  F016         	goto	i2u144_41
  3711  002C50  EF2C  F016         	goto	i2u144_40
  3712  002C54                     i2u144_41:
  3713  002C54  EF32  F016         	goto	i2l2480
  3714  002C58                     i2u144_40:
  3715  002C58                     
  3716                           ;mcc_generated_files/can1.c: 442:                 {;mcc_generated_files/can1.c: 443:    
      +                                           numOfMsg = ((fifoTail + fifoDepth) - fifoHead);
  3717  002C58  5009               	movf	CAN1_ReceivedMessageCountGet@fifoHead^(0+1280),w,c
  3718  002C5A  5C08               	subwf	CAN1_ReceivedMessageCountGet@fifoTail^(0+1280),w,c
  3719  002C5C  2407               	addwf	CAN1_ReceivedMessageCountGet@fifoDepth^(0+1280),w,c
  3720  002C5E  6E04               	movwf	CAN1_ReceivedMessageCountGet@numOfMsg^(0+1280),c
  3721                           
  3722                           ;mcc_generated_files/can1.c: 444:                 }
  3723  002C60  EF3E  F016         	goto	i2l2484
  3724  002C64                     i2l2480:
  3725  002C64  5008               	movf	CAN1_ReceivedMessageCountGet@fifoTail^(0+1280),w,c
  3726  002C66  5C09               	subwf	CAN1_ReceivedMessageCountGet@fifoHead^(0+1280),w,c
  3727  002C68  B0D8               	btfsc	status,0,c
  3728  002C6A  EF39  F016         	goto	i2u145_41
  3729  002C6E  EF3B  F016         	goto	i2u145_40
  3730  002C72                     i2u145_41:
  3731  002C72  EF0A  F016         	goto	i2l2472
  3732  002C76                     i2u145_40:
  3733  002C76                     
  3734                           ;mcc_generated_files/can1.c: 446:                 {;mcc_generated_files/can1.c: 447:    
      +                                           numOfMsg = fifoTail - fifoHead;
  3735  002C76  5009               	movf	CAN1_ReceivedMessageCountGet@fifoHead^(0+1280),w,c
  3736  002C78  5C08               	subwf	CAN1_ReceivedMessageCountGet@fifoTail^(0+1280),w,c
  3737  002C7A  6E04               	movwf	CAN1_ReceivedMessageCountGet@numOfMsg^(0+1280),c
  3738  002C7C                     i2l2484:
  3739                           
  3740                           ;mcc_generated_files/can1.c: 455:             totalMsgObj += numOfMsg;
  3741  002C7C  5004               	movf	CAN1_ReceivedMessageCountGet@numOfMsg^(0+1280),w,c
  3742  002C7E  2603               	addwf	CAN1_ReceivedMessageCountGet@totalMsgObj^(0+1280),f,c
  3743  002C80                     i2l2486:
  3744                           
  3745                           ;mcc_generated_files/can1.c: 457:     }
  3746  002C80  2A0A               	incf	CAN1_ReceivedMessageCountGet@index^(0+1280),f,c
  3747  002C82  500A               	movf	CAN1_ReceivedMessageCountGet@index^(0+1280),w,c
  3748  002C84  B4D8               	btfsc	status,2,c
  3749  002C86  EF47  F016         	goto	i2u146_41
  3750  002C8A  EF49  F016         	goto	i2u146_40
  3751  002C8E                     i2u146_41:
  3752  002C8E  EFEA  F015         	goto	i2l2462
  3753  002C92                     i2u146_40:
  3754  002C92                     
  3755                           ;mcc_generated_files/can1.c: 459:     return totalMsgObj;
  3756  002C92  5003               	movf	CAN1_ReceivedMessageCountGet@totalMsgObj^(0+1280),w,c
  3757  002C94  0012               	return		;funcret
  3758  002C96                     __end_of_CAN1_ReceivedMessageCountGet:
  3759                           	callstack 0
  3760                           
  3761 ;; *************** function _CAN1_Receive *****************
  3762 ;; Defined at:
  3763 ;;		line 384 in file "mcc_generated_files/can1.c"
  3764 ;; Parameters:    Size  Location     Type
  3765 ;;  rxCanMsg        2   33[COMRAM] PTR struct .
  3766 ;;		 -> msgReceipt(7), 
  3767 ;; Auto vars:     Size  Location     Type
  3768 ;;  index           1   36[COMRAM] unsigned char 
  3769 ;;  status          1   35[COMRAM] _Bool 
  3770 ;; Return value:  Size  Location     Type
  3771 ;;                  1    wreg      _Bool 
  3772 ;; Registers used:
  3773 ;;		wreg, fsr2l, fsr2h, status,2, status,0, tblptrl, tblptrh, tblptru, prodl, prodh, cstack
  3774 ;; Tracked objects:
  3775 ;;		On entry : 0/0
  3776 ;;		On exit  : 0/0
  3777 ;;		Unchanged: 0/0
  3778 ;; Data sizes:     COMRAM   BANK5   BANK6   BANK7   BANK8   BANK9  BANK10  BANK11  BANK12  BANK13  BANK14  BANK15  BANK1
      +6  BANK17  BANK18  BANK19  BANK20  BANK21  BANK22  BANK23  BANK24  BANK25  BANK26  BANK27  BANK28  BANK29  BANK30  BANK3
      +1  BANK32  BANK33  BANK34  BANK35  BANK36  BANK37
  3779 ;;      Params:         2       0       0       0       0       0       0       0       0       0       0       0       
      +0       0       0       0       0       0       0       0       0       0       0       0       0       0       0       
      +0       0       0       0       0       0       0
  3780 ;;      Locals:         2       0       0       0       0       0       0       0       0       0       0       0       
      +0       0       0       0       0       0       0       0       0       0       0       0       0       0       0       
      +0       0       0       0       0       0       0
  3781 ;;      Temps:          0       0       0       0       0       0       0       0       0       0       0       0       
      +0       0       0       0       0       0       0       0       0       0       0       0       0       0       0       
      +0       0       0       0       0       0       0
  3782 ;;      Totals:         4       0       0       0       0       0       0       0       0       0       0       0       
      +0       0       0       0       0       0       0       0       0       0       0       0       0       0       0       
      +0       0       0       0       0       0       0
  3783 ;;Total ram usage:        4 bytes
  3784 ;; Hardware stack levels used:    1
  3785 ;; Hardware stack levels required when called:    3
  3786 ;; This function calls:
  3787 ;;		_Receive
  3788 ;; This function is called by:
  3789 ;;		_CANReadMessage
  3790 ;; This function uses a non-reentrant model
  3791 ;;
  3792                           
  3793                           	psect	text41
  3794  003092                     __ptext41:
  3795                           	callstack 0
  3796  003092                     _CAN1_Receive:
  3797                           	callstack 117
  3798  003092                     
  3799                           ;mcc_generated_files/can1.c: 389:     for (index = 0; index < (1U); index++)
  3800  003092  0E00               	movlw	0
  3801  003094  6E25               	movwf	CAN1_Receive@index^(0+1280),c
  3802  003096                     i2l2444:
  3803                           
  3804                           ;mcc_generated_files/can1.c: 390:     {;mcc_generated_files/can1.c: 391:         status 
      +                          = Receive(index, rxFifos[index].channel, rxCanMsg);
  3805  003096  5025               	movf	CAN1_Receive@index^(0+1280),w,c
  3806  003098  0D02               	mullw	2
  3807  00309A  0E7F               	movlw	low _rxFifos
  3808  00309C  24F3               	addwf	243,w,c
  3809  00309E  6ED9               	movwf	fsr2l,c
  3810  0030A0  0E05               	movlw	high _rxFifos
  3811  0030A2  20F4               	addwfc	prodh,w,c
  3812  0030A4  6EDA               	movwf	fsr2h,c
  3813  0030A6  50DF               	movf	indf2,w,c
  3814  0030A8  6E18               	movwf	Receive@channel^(0+1280),c
  3815  0030AA  C522  F519         	movff	CAN1_Receive@rxCanMsg,Receive@rxCanMsg
  3816  0030AE  C523  F51A         	movff	CAN1_Receive@rxCanMsg+1,Receive@rxCanMsg+1
  3817  0030B2  5025               	movf	CAN1_Receive@index^(0+1280),w,c
  3818  0030B4  EC70  F015         	call	_Receive
  3819  0030B8  6E24               	movwf	CAN1_Receive@status^(0+1280),c
  3820  0030BA                     
  3821                           ;mcc_generated_files/can1.c: 393:         if (status)
  3822  0030BA  5024               	movf	CAN1_Receive@status^(0+1280),w,c
  3823  0030BC  B4D8               	btfsc	status,2,c
  3824  0030BE  EF63  F018         	goto	i2u140_41
  3825  0030C2  EF65  F018         	goto	i2u140_40
  3826  0030C6                     i2u140_41:
  3827  0030C6  EF67  F018         	goto	i2l2450
  3828  0030CA                     i2u140_40:
  3829  0030CA  EF70  F018         	goto	i2l2454
  3830  0030CE                     i2l2450:
  3831                           
  3832                           ;mcc_generated_files/can1.c: 397:     }
  3833  0030CE  2A25               	incf	CAN1_Receive@index^(0+1280),f,c
  3834  0030D0  5025               	movf	CAN1_Receive@index^(0+1280),w,c
  3835  0030D2  B4D8               	btfsc	status,2,c
  3836  0030D4  EF6E  F018         	goto	i2u141_41
  3837  0030D8  EF70  F018         	goto	i2u141_40
  3838  0030DC                     i2u141_41:
  3839  0030DC  EF4B  F018         	goto	i2l2444
  3840  0030E0                     i2u141_40:
  3841  0030E0                     i2l2454:
  3842                           
  3843                           ;mcc_generated_files/can1.c: 399:     return status;
  3844  0030E0  5024               	movf	CAN1_Receive@status^(0+1280),w,c
  3845  0030E2  0012               	return		;funcret
  3846  0030E4                     __end_of_CAN1_Receive:
  3847                           	callstack 0
  3848                           
  3849 ;; *************** function _Receive *****************
  3850 ;; Defined at:
  3851 ;;		line 352 in file "mcc_generated_files/can1.c"
  3852 ;; Parameters:    Size  Location     Type
  3853 ;;  index           1    wreg     unsigned char 
  3854 ;;  channel         1   23[COMRAM] enum E22386
  3855 ;;  rxCanMsg        2   24[COMRAM] PTR struct .
  3856 ;;		 -> msgReceipt(7), 
  3857 ;; Auto vars:     Size  Location     Type
  3858 ;;  index           1   32[COMRAM] unsigned char 
  3859 ;;  rxFifoObj       2   29[COMRAM] PTR unsigned char 
  3860 ;;		 -> RAM(9727), 
  3861 ;;  rxMsgStatus     1   31[COMRAM] enum E22533
  3862 ;;  status          1   28[COMRAM] _Bool 
  3863 ;; Return value:  Size  Location     Type
  3864 ;;                  1    wreg      _Bool 
  3865 ;; Registers used:
  3866 ;;		wreg, fsr2l, fsr2h, status,2, status,0, tblptrl, tblptrh, tblptru, prodl, prodh, cstack
  3867 ;; Tracked objects:
  3868 ;;		On entry : 0/0
  3869 ;;		On exit  : 0/0
  3870 ;;		Unchanged: 0/0
  3871 ;; Data sizes:     COMRAM   BANK5   BANK6   BANK7   BANK8   BANK9  BANK10  BANK11  BANK12  BANK13  BANK14  BANK15  BANK1
      +6  BANK17  BANK18  BANK19  BANK20  BANK21  BANK22  BANK23  BANK24  BANK25  BANK26  BANK27  BANK28  BANK29  BANK30  BANK3
      +1  BANK32  BANK33  BANK34  BANK35  BANK36  BANK37
  3872 ;;      Params:         3       0       0       0       0       0       0       0       0       0       0       0       
      +0       0       0       0       0       0       0       0       0       0       0       0       0       0       0       
      +0       0       0       0       0       0       0
  3873 ;;      Locals:         5       0       0       0       0       0       0       0       0       0       0       0       
      +0       0       0       0       0       0       0       0       0       0       0       0       0       0       0       
      +0       0       0       0       0       0       0
  3874 ;;      Temps:          2       0       0       0       0       0       0       0       0       0       0       0       
      +0       0       0       0       0       0       0       0       0       0       0       0       0       0       0       
      +0       0       0       0       0       0       0
  3875 ;;      Totals:        10       0       0       0       0       0       0       0       0       0       0       0       
      +0       0       0       0       0       0       0       0       0       0       0       0       0       0       0       
      +0       0       0       0       0       0       0
  3876 ;;Total ram usage:       10 bytes
  3877 ;; Hardware stack levels used:    1
  3878 ;; Hardware stack levels required when called:    2
  3879 ;; This function calls:
  3880 ;;		_GetRxFifoDepth
  3881 ;;		_GetRxFifoStatus
  3882 ;;		_ReadMessageFromFifo
  3883 ;; This function is called by:
  3884 ;;		_CAN1_Receive
  3885 ;;		_CAN1_ReceiveFrom
  3886 ;; This function uses a non-reentrant model
  3887 ;;
  3888                           
  3889                           	psect	text42
  3890  002AE0                     __ptext42:
  3891                           	callstack 0
  3892  002AE0                     _Receive:
  3893                           	callstack 117
  3894                           
  3895                           ;incstack = 0
  3896                           ;Receive@index stored from wreg
  3897  002AE0  6E21               	movwf	Receive@index^(0+1280),c
  3898  002AE2                     
  3899                           ;mcc_generated_files/can1.c: 352: static _Bool Receive(uint8_t index, CAN1_RX_FIFO_CHANN
      +                          ELS channel, CAN_MSG_OBJ *rxCanMsg);mcc_generated_files/can1.c: 353: {;mcc_generated_fil
      +                          es/can1.c: 354:     _Bool status = 0;
  3900  002AE2  0E00               	movlw	0
  3901  002AE4  6E1D               	movwf	Receive@status^(0+1280),c
  3902  002AE6                     
  3903                           ;mcc_generated_files/can1.c: 355:     CAN_RX_FIFO_STATUS rxMsgStatus = GetRxFifoStatus(c
      +                          hannel);
  3904  002AE6  5018               	movf	Receive@channel^(0+1280),w,c
  3905  002AE8  ECE7  F019         	call	_GetRxFifoStatus
  3906  002AEC  6E20               	movwf	Receive@rxMsgStatus^(0+1280),c
  3907  002AEE                     
  3908                           ;mcc_generated_files/can1.c: 357:     if (CAN_RX_MSG_AVAILABLE == (rxMsgStatus & CAN_RX_
      +                          MSG_AVAILABLE))
  3909  002AEE  A020               	btfss	Receive@rxMsgStatus^(0+1280),0,c
  3910  002AF0  EF7C  F015         	goto	i2u130_41
  3911  002AF4  EF7E  F015         	goto	i2u130_40
  3912  002AF8                     i2u130_41:
  3913  002AF8  EFE4  F015         	goto	i2l2378
  3914  002AFC                     i2u130_40:
  3915  002AFC                     
  3916                           ;mcc_generated_files/can1.c: 358:     {;mcc_generated_files/can1.c: 359:         uint8_t
      +                           *rxFifoObj = (uint8_t *) FIFO[channel].UA;
  3917  002AFC  5018               	movf	Receive@channel^(0+1280),w,c
  3918  002AFE  0D0C               	mullw	12
  3919  002B00  0E58               	movlw	88
  3920  002B02  24F3               	addwf	243,w,c
  3921  002B04  6ED9               	movwf	fsr2l,c
  3922  002B06  0E01               	movlw	1
  3923  002B08  20F4               	addwfc	prodh,w,c
  3924  002B0A  6EDA               	movwf	fsr2h,c
  3925  002B0C  0061 F378  F51E    	movff	postinc2,Receive@rxFifoObj
  3926  002B12  0061 F374  F51F    	movff	postdec2,Receive@rxFifoObj+1
  3927  002B18                     
  3928                           ;mcc_generated_files/can1.c: 361:         if (rxFifoObj != ((void*)0))
  3929  002B18  501E               	movf	Receive@rxFifoObj^(0+1280),w,c
  3930  002B1A  101F               	iorwf	(Receive@rxFifoObj+1)^(0+1280),w,c
  3931  002B1C  B4D8               	btfsc	status,2,c
  3932  002B1E  EF93  F015         	goto	i2u131_41
  3933  002B22  EF95  F015         	goto	i2u131_40
  3934  002B26                     i2u131_41:
  3935  002B26  EFE4  F015         	goto	i2l2378
  3936  002B2A                     i2u131_40:
  3937  002B2A                     
  3938                           ;mcc_generated_files/can1.c: 362:         {;mcc_generated_files/can1.c: 363:            
      +                           ReadMessageFromFifo(rxFifoObj, rxCanMsg);
  3939  002B2A  C51E  F50C         	movff	Receive@rxFifoObj,ReadMessageFromFifo@rxFifoObj
  3940  002B2E  C51F  F50D         	movff	Receive@rxFifoObj+1,ReadMessageFromFifo@rxFifoObj+1
  3941  002B32  C519  F50E         	movff	Receive@rxCanMsg,ReadMessageFromFifo@rxCanMsg
  3942  002B36  C51A  F50F         	movff	Receive@rxCanMsg+1,ReadMessageFromFifo@rxCanMsg+1
  3943  002B3A  EC07  F013         	call	_ReadMessageFromFifo	;wreg free
  3944  002B3E                     
  3945                           ;mcc_generated_files/can1.c: 364:             FIFO[channel].CONH |= 0x1;
  3946  002B3E  5018               	movf	Receive@channel^(0+1280),w,c
  3947  002B40  0D0C               	mullw	12
  3948  002B42  0E51               	movlw	81
  3949  002B44  24F3               	addwf	243,w,c
  3950  002B46  6ED9               	movwf	fsr2l,c
  3951  002B48  0E01               	movlw	1
  3952  002B4A  20F4               	addwfc	prodh,w,c
  3953  002B4C  6EDA               	movwf	fsr2h,c
  3954  002B4E  0E00               	movlw	0
  3955  002B50  80DB               	bsf	plusw2,0,c
  3956  002B52                     
  3957                           ;mcc_generated_files/can1.c: 366:             rxFifos[index].fifoHead += 1;
  3958  002B52  5021               	movf	Receive@index^(0+1280),w,c
  3959  002B54  0D02               	mullw	2
  3960  002B56  0E80               	movlw	low (_rxFifos+1)
  3961  002B58  24F3               	addwf	243,w,c
  3962  002B5A  6ED9               	movwf	fsr2l,c
  3963  002B5C  0E05               	movlw	high (_rxFifos+1)
  3964  002B5E  20F4               	addwfc	prodh,w,c
  3965  002B60  6EDA               	movwf	fsr2h,c
  3966  002B62  2ADF               	incf	indf2,f,c
  3967  002B64                     
  3968                           ;mcc_generated_files/can1.c: 367:             if (rxFifos[index].fifoHead >= GetRxFifoDe
      +                          pth(channel))
  3969  002B64  5018               	movf	Receive@channel^(0+1280),w,c
  3970  002B66  ECCC  F019         	call	_GetRxFifoDepth
  3971  002B6A  6E1B               	movwf	??_Receive^(0+1280),c
  3972  002B6C  5021               	movf	Receive@index^(0+1280),w,c
  3973  002B6E  0D02               	mullw	2
  3974  002B70  0E80               	movlw	low (_rxFifos+1)
  3975  002B72  24F3               	addwf	243,w,c
  3976  002B74  6ED9               	movwf	fsr2l,c
  3977  002B76  0E05               	movlw	high (_rxFifos+1)
  3978  002B78  20F4               	addwfc	prodh,w,c
  3979  002B7A  6EDA               	movwf	fsr2h,c
  3980  002B7C  501B               	movf	??_Receive^(0+1280),w,c
  3981  002B7E  5CDE               	subwf	postinc2,w,c
  3982  002B80  A0D8               	btfss	status,0,c
  3983  002B82  EFC5  F015         	goto	i2u132_41
  3984  002B86  EFC7  F015         	goto	i2u132_40
  3985  002B8A                     i2u132_41:
  3986  002B8A  EFD1  F015         	goto	i2l2372
  3987  002B8E                     i2u132_40:
  3988  002B8E                     
  3989                           ;mcc_generated_files/can1.c: 368:             {;mcc_generated_files/can1.c: 369:        
      +                                   rxFifos[index].fifoHead = 0;
  3990  002B8E  5021               	movf	Receive@index^(0+1280),w,c
  3991  002B90  0D02               	mullw	2
  3992  002B92  0E80               	movlw	low (_rxFifos+1)
  3993  002B94  24F3               	addwf	243,w,c
  3994  002B96  6ED9               	movwf	fsr2l,c
  3995  002B98  0E05               	movlw	high (_rxFifos+1)
  3996  002B9A  20F4               	addwfc	prodh,w,c
  3997  002B9C  6EDA               	movwf	fsr2h,c
  3998  002B9E  0E00               	movlw	0
  3999  002BA0  6EDF               	movwf	indf2,c
  4000  002BA2                     i2l2372:
  4001                           
  4002                           ;mcc_generated_files/can1.c: 372:             if (CAN_RX_MSG_OVERFLOW == (rxMsgStatus & 
      +                          CAN_RX_MSG_OVERFLOW))
  4003  002BA2  A620               	btfss	Receive@rxMsgStatus^(0+1280),3,c
  4004  002BA4  EFD6  F015         	goto	i2u133_41
  4005  002BA8  EFD8  F015         	goto	i2u133_40
  4006  002BAC                     i2u133_41:
  4007  002BAC  EFE2  F015         	goto	i2l2376
  4008  002BB0                     i2u133_40:
  4009  002BB0                     
  4010                           ;mcc_generated_files/can1.c: 373:             {;mcc_generated_files/can1.c: 374:        
      +                                   FIFO[channel].STAL &= ~0x8;
  4011  002BB0  5018               	movf	Receive@channel^(0+1280),w,c
  4012  002BB2  0D0C               	mullw	12
  4013  002BB4  0E54               	movlw	84
  4014  002BB6  24F3               	addwf	243,w,c
  4015  002BB8  6ED9               	movwf	fsr2l,c
  4016  002BBA  0E01               	movlw	1
  4017  002BBC  20F4               	addwfc	prodh,w,c
  4018  002BBE  6EDA               	movwf	fsr2h,c
  4019  002BC0  0EF7               	movlw	247
  4020  002BC2  16DF               	andwf	indf2,f,c
  4021  002BC4                     i2l2376:
  4022                           
  4023                           ;mcc_generated_files/can1.c: 377:             status = 1;
  4024  002BC4  0E01               	movlw	1
  4025  002BC6  6E1D               	movwf	Receive@status^(0+1280),c
  4026  002BC8                     i2l2378:
  4027                           
  4028                           ;mcc_generated_files/can1.c: 381:     return status;
  4029  002BC8  501D               	movf	Receive@status^(0+1280),w,c
  4030  002BCA  0012               	return		;funcret
  4031  002BCC                     __end_of_Receive:
  4032                           	callstack 0
  4033                           
  4034 ;; *************** function _ReadMessageFromFifo *****************
  4035 ;; Defined at:
  4036 ;;		line 318 in file "mcc_generated_files/can1.c"
  4037 ;; Parameters:    Size  Location     Type
  4038 ;;  rxFifoObj       2   11[COMRAM] PTR unsigned char 
  4039 ;;		 -> RAM(9727), 
  4040 ;;  rxCanMsg        2   13[COMRAM] PTR struct .
  4041 ;;		 -> msgReceipt(7), 
  4042 ;; Auto vars:     Size  Location     Type
  4043 ;;  msgId           4   18[COMRAM] unsigned long 
  4044 ;;  status          1   22[COMRAM] unsigned char 
  4045 ;;  payloadOffse    1    0        const unsigned char 
  4046 ;; Return value:  Size  Location     Type
  4047 ;;                  1    wreg      void 
  4048 ;; Registers used:
  4049 ;;		wreg, fsr2l, fsr2h, status,2, status,0, tblptrl, tblptrh, tblptru, cstack
  4050 ;; Tracked objects:
  4051 ;;		On entry : 0/0
  4052 ;;		On exit  : 0/0
  4053 ;;		Unchanged: 0/0
  4054 ;; Data sizes:     COMRAM   BANK5   BANK6   BANK7   BANK8   BANK9  BANK10  BANK11  BANK12  BANK13  BANK14  BANK15  BANK1
      +6  BANK17  BANK18  BANK19  BANK20  BANK21  BANK22  BANK23  BANK24  BANK25  BANK26  BANK27  BANK28  BANK29  BANK30  BANK3
      +1  BANK32  BANK33  BANK34  BANK35  BANK36  BANK37
  4055 ;;      Params:         4       0       0       0       0       0       0       0       0       0       0       0       
      +0       0       0       0       0       0       0       0       0       0       0       0       0       0       0       
      +0       0       0       0       0       0       0
  4056 ;;      Locals:         6       0       0       0       0       0       0       0       0       0       0       0       
      +0       0       0       0       0       0       0       0       0       0       0       0       0       0       0       
      +0       0       0       0       0       0       0
  4057 ;;      Temps:          2       0       0       0       0       0       0       0       0       0       0       0       
      +0       0       0       0       0       0       0       0       0       0       0       0       0       0       0       
      +0       0       0       0       0       0       0
  4058 ;;      Totals:        12       0       0       0       0       0       0       0       0       0       0       0       
      +0       0       0       0       0       0       0       0       0       0       0       0       0       0       0       
      +0       0       0       0       0       0       0
  4059 ;;Total ram usage:       12 bytes
  4060 ;; Hardware stack levels used:    1
  4061 ;; Hardware stack levels required when called:    1
  4062 ;; This function calls:
  4063 ;;		_memcpy
  4064 ;; This function is called by:
  4065 ;;		_Receive
  4066 ;; This function uses a non-reentrant model
  4067 ;;
  4068                           
  4069                           	psect	text43
  4070  00260E                     __ptext43:
  4071                           	callstack 0
  4072  00260E                     _ReadMessageFromFifo:
  4073                           	callstack 117
  4074  00260E                     
  4075                           ;mcc_generated_files/can1.c: 318: static void ReadMessageFromFifo(uint8_t *rxFifoObj, CA
      +                          N_MSG_OBJ *rxCanMsg);mcc_generated_files/can1.c: 319: {;mcc_generated_files/can1.c: 320:
      +                               uint32_t msgId;;mcc_generated_files/can1.c: 321:     uint8_t status = rxFifoObj[4];
  4076  00260E  EE20 F004          	lfsr	2,4
  4077  002612  500C               	movf	ReadMessageFromFifo@rxFifoObj^(0+1280),w,c
  4078  002614  26D9               	addwf	fsr2l,f,c
  4079  002616  500D               	movf	(ReadMessageFromFifo@rxFifoObj+1)^(0+1280),w,c
  4080  002618  22DA               	addwfc	fsr2h,f,c
  4081  00261A  50DF               	movf	indf2,w,c
  4082  00261C  6E17               	movwf	ReadMessageFromFifo@status^(0+1280),c
  4083  00261E                     
  4084                           ;mcc_generated_files/can1.c: 328:     rxCanMsg->field.dlc = status;
  4085  00261E  C517  F510         	movff	ReadMessageFromFifo@status,??_ReadMessageFromFifo
  4086  002622  EE20 F004          	lfsr	2,4
  4087  002626  500E               	movf	ReadMessageFromFifo@rxCanMsg^(0+1280),w,c
  4088  002628  26D9               	addwf	fsr2l,f,c
  4089  00262A  500F               	movf	(ReadMessageFromFifo@rxCanMsg+1)^(0+1280),w,c
  4090  00262C  22DA               	addwfc	fsr2h,f,c
  4091  00262E  4610               	rlncf	??_ReadMessageFromFifo^(0+1280),f,c
  4092  002630  4610               	rlncf	??_ReadMessageFromFifo^(0+1280),f,c
  4093  002632  50DF               	movf	479,w,c
  4094  002634  1810               	xorwf	??_ReadMessageFromFifo^(0+1280),w,c
  4095  002636  0BC3               	andlw	-61
  4096  002638  1810               	xorwf	??_ReadMessageFromFifo^(0+1280),w,c
  4097  00263A  6EDF               	movwf	479,c
  4098  00263C                     
  4099                           ;mcc_generated_files/can1.c: 329:     rxCanMsg->field.idType = (status & (1UL << (4U))) 
      +                          ? CAN_FRAME_EXT : CAN_FRAME_STD;
  4100  00263C  B817               	btfsc	ReadMessageFromFifo@status^(0+1280),4,c
  4101  00263E  EF23  F013         	goto	i2u119_41
  4102  002642  EF27  F013         	goto	i2u119_40
  4103  002646                     i2u119_41:
  4104  002646  6A10               	clrf	??_ReadMessageFromFifo^(0+1280),c
  4105  002648  2A10               	incf	??_ReadMessageFromFifo^(0+1280),f,c
  4106  00264A  EF28  F013         	goto	i2u120_48
  4107  00264E                     i2u119_40:
  4108  00264E  6A10               	clrf	??_ReadMessageFromFifo^(0+1280),c
  4109  002650                     i2u120_48:
  4110  002650  EE20 F004          	lfsr	2,4
  4111  002654  500E               	movf	ReadMessageFromFifo@rxCanMsg^(0+1280),w,c
  4112  002656  26D9               	addwf	fsr2l,f,c
  4113  002658  500F               	movf	(ReadMessageFromFifo@rxCanMsg+1)^(0+1280),w,c
  4114  00265A  22DA               	addwfc	fsr2h,f,c
  4115  00265C  50DF               	movf	479,w,c
  4116  00265E  1810               	xorwf	??_ReadMessageFromFifo^(0+1280),w,c
  4117  002660  0BFE               	andlw	-2
  4118  002662  1810               	xorwf	??_ReadMessageFromFifo^(0+1280),w,c
  4119  002664  6EDF               	movwf	479,c
  4120  002666                     
  4121                           ;mcc_generated_files/can1.c: 330:     rxCanMsg->field.frameType = (status & (1UL << (5U)
      +                          )) ? CAN_FRAME_RTR : CAN_FRAME_DATA;
  4122  002666  BA17               	btfsc	ReadMessageFromFifo@status^(0+1280),5,c
  4123  002668  EF38  F013         	goto	i2u121_41
  4124  00266C  EF3C  F013         	goto	i2u121_40
  4125  002670                     i2u121_41:
  4126  002670  6A10               	clrf	??_ReadMessageFromFifo^(0+1280),c
  4127  002672  2A10               	incf	??_ReadMessageFromFifo^(0+1280),f,c
  4128  002674  EF3D  F013         	goto	i2u122_48
  4129  002678                     i2u121_40:
  4130  002678  6A10               	clrf	??_ReadMessageFromFifo^(0+1280),c
  4131  00267A                     i2u122_48:
  4132  00267A  EE20 F004          	lfsr	2,4
  4133  00267E  500E               	movf	ReadMessageFromFifo@rxCanMsg^(0+1280),w,c
  4134  002680  26D9               	addwf	fsr2l,f,c
  4135  002682  500F               	movf	(ReadMessageFromFifo@rxCanMsg+1)^(0+1280),w,c
  4136  002684  22DA               	addwfc	fsr2h,f,c
  4137  002686  4610               	rlncf	??_ReadMessageFromFifo^(0+1280),f,c
  4138  002688  50DF               	movf	479,w,c
  4139  00268A  1810               	xorwf	??_ReadMessageFromFifo^(0+1280),w,c
  4140  00268C  0BFD               	andlw	-3
  4141  00268E  1810               	xorwf	??_ReadMessageFromFifo^(0+1280),w,c
  4142  002690  6EDF               	movwf	479,c
  4143  002692                     
  4144                           ;mcc_generated_files/can1.c: 331:     rxCanMsg->field.brs = (status & (1UL << (6U))) ? C
      +                          AN_BRS_MODE : CAN_NON_BRS_MODE;
  4145  002692  BC17               	btfsc	ReadMessageFromFifo@status^(0+1280),6,c
  4146  002694  EF4E  F013         	goto	i2u123_41
  4147  002698  EF52  F013         	goto	i2u123_40
  4148  00269C                     i2u123_41:
  4149  00269C  6A10               	clrf	??_ReadMessageFromFifo^(0+1280),c
  4150  00269E  2A10               	incf	??_ReadMessageFromFifo^(0+1280),f,c
  4151  0026A0  EF53  F013         	goto	i2u124_48
  4152  0026A4                     i2u123_40:
  4153  0026A4  6A10               	clrf	??_ReadMessageFromFifo^(0+1280),c
  4154  0026A6                     i2u124_48:
  4155  0026A6  EE20 F004          	lfsr	2,4
  4156  0026AA  500E               	movf	ReadMessageFromFifo@rxCanMsg^(0+1280),w,c
  4157  0026AC  26D9               	addwf	fsr2l,f,c
  4158  0026AE  500F               	movf	(ReadMessageFromFifo@rxCanMsg+1)^(0+1280),w,c
  4159  0026B0  22DA               	addwfc	fsr2h,f,c
  4160  0026B2  3210               	rrcf	??_ReadMessageFromFifo^(0+1280),f,c
  4161  0026B4  3210               	rrcf	??_ReadMessageFromFifo^(0+1280),f,c
  4162  0026B6  50DF               	movf	479,w,c
  4163  0026B8  1810               	xorwf	??_ReadMessageFromFifo^(0+1280),w,c
  4164  0026BA  0B7F               	andlw	-129
  4165  0026BC  1810               	xorwf	??_ReadMessageFromFifo^(0+1280),w,c
  4166  0026BE  6EDF               	movwf	479,c
  4167  0026C0                     
  4168                           ;mcc_generated_files/can1.c: 332:     rxCanMsg->field.formatType = (status & (1UL << (7U
      +                          ))) ? CAN_FRAME_EXT : CAN_FRAME_STD;
  4169  0026C0  BE17               	btfsc	ReadMessageFromFifo@status^(0+1280),7,c
  4170  0026C2  EF65  F013         	goto	i2u125_41
  4171  0026C6  EF69  F013         	goto	i2u125_40
  4172  0026CA                     i2u125_41:
  4173  0026CA  6A10               	clrf	??_ReadMessageFromFifo^(0+1280),c
  4174  0026CC  2A10               	incf	??_ReadMessageFromFifo^(0+1280),f,c
  4175  0026CE  EF6A  F013         	goto	i2u126_48
  4176  0026D2                     i2u125_40:
  4177  0026D2  6A10               	clrf	??_ReadMessageFromFifo^(0+1280),c
  4178  0026D4                     i2u126_48:
  4179  0026D4  EE20 F004          	lfsr	2,4
  4180  0026D8  500E               	movf	ReadMessageFromFifo@rxCanMsg^(0+1280),w,c
  4181  0026DA  26D9               	addwf	fsr2l,f,c
  4182  0026DC  500F               	movf	(ReadMessageFromFifo@rxCanMsg+1)^(0+1280),w,c
  4183  0026DE  22DA               	addwfc	fsr2h,f,c
  4184  0026E0  3A10               	swapf	??_ReadMessageFromFifo^(0+1280),f,c
  4185  0026E2  4610               	rlncf	??_ReadMessageFromFifo^(0+1280),f,c
  4186  0026E4  4610               	rlncf	??_ReadMessageFromFifo^(0+1280),f,c
  4187  0026E6  50DF               	movf	479,w,c
  4188  0026E8  1810               	xorwf	??_ReadMessageFromFifo^(0+1280),w,c
  4189  0026EA  0BBF               	andlw	-65
  4190  0026EC  1810               	xorwf	??_ReadMessageFromFifo^(0+1280),w,c
  4191  0026EE  6EDF               	movwf	479,c
  4192  0026F0                     
  4193                           ;mcc_generated_files/can1.c: 334:     msgId = rxFifoObj[1] & (0x07U);
  4194  0026F0  EE20 F001          	lfsr	2,1
  4195  0026F4  500C               	movf	ReadMessageFromFifo@rxFifoObj^(0+1280),w,c
  4196  0026F6  26D9               	addwf	fsr2l,f,c
  4197  0026F8  500D               	movf	(ReadMessageFromFifo@rxFifoObj+1)^(0+1280),w,c
  4198  0026FA  22DA               	addwfc	fsr2h,f,c
  4199  0026FC  50DF               	movf	indf2,w,c
  4200  0026FE  6E10               	movwf	??_ReadMessageFromFifo^(0+1280),c
  4201  002700  0E07               	movlw	7
  4202  002702  1610               	andwf	??_ReadMessageFromFifo^(0+1280),f,c
  4203  002704  5010               	movf	??_ReadMessageFromFifo^(0+1280),w,c
  4204  002706  6E13               	movwf	ReadMessageFromFifo@msgId^(0+1280),c
  4205  002708  6A14               	clrf	(ReadMessageFromFifo@msgId+1)^(0+1280),c
  4206  00270A  6A15               	clrf	(ReadMessageFromFifo@msgId+2)^(0+1280),c
  4207  00270C  6A16               	clrf	(ReadMessageFromFifo@msgId+3)^(0+1280),c
  4208  00270E                     
  4209                           ;mcc_generated_files/can1.c: 335:     msgId <<= (8U);
  4210  00270E  C515  F516         	movff	ReadMessageFromFifo@msgId+2,ReadMessageFromFifo@msgId+3
  4211  002712  C514  F515         	movff	ReadMessageFromFifo@msgId+1,ReadMessageFromFifo@msgId+2
  4212  002716  C513  F514         	movff	ReadMessageFromFifo@msgId,ReadMessageFromFifo@msgId+1
  4213  00271A  6A13               	clrf	ReadMessageFromFifo@msgId^(0+1280),c
  4214  00271C                     
  4215                           ;mcc_generated_files/can1.c: 336:     msgId |= rxFifoObj[0];
  4216  00271C  0061  F430  F4D9   	movff	ReadMessageFromFifo@rxFifoObj,fsr2l
  4217  002722  0061  F434  F4DA   	movff	ReadMessageFromFifo@rxFifoObj+1,fsr2h
  4218  002728  50DF               	movf	indf2,w,c
  4219  00272A  6E10               	movwf	??_ReadMessageFromFifo^(0+1280),c
  4220  00272C  5010               	movf	??_ReadMessageFromFifo^(0+1280),w,c
  4221  00272E  1213               	iorwf	ReadMessageFromFifo@msgId^(0+1280),f,c
  4222  002730                     
  4223                           ;mcc_generated_files/can1.c: 337:     if (CAN_FRAME_EXT == rxCanMsg->field.idType)
  4224  002730  EE20 F004          	lfsr	2,4
  4225  002734  500E               	movf	ReadMessageFromFifo@rxCanMsg^(0+1280),w,c
  4226  002736  26D9               	addwf	fsr2l,f,c
  4227  002738  500F               	movf	(ReadMessageFromFifo@rxCanMsg+1)^(0+1280),w,c
  4228  00273A  22DA               	addwfc	fsr2h,f,c
  4229  00273C  A0DF               	btfss	indf2,0,c
  4230  00273E  EFA3  F013         	goto	i2u127_41
  4231  002742  EFA5  F013         	goto	i2u127_40
  4232  002746                     i2u127_41:
  4233  002746  EFE6  F013         	goto	i2l2326
  4234  00274A                     i2u127_40:
  4235  00274A                     
  4236                           ;mcc_generated_files/can1.c: 338:     {;mcc_generated_files/can1.c: 339:         msgId <
      +                          <= (5U);
  4237  00274A  0E05               	movlw	5
  4238  00274C                     i2u128_45:
  4239  00274C  90D8               	bcf	status,0,c
  4240  00274E  3613               	rlcf	ReadMessageFromFifo@msgId^(0+1280),f,c
  4241  002750  3614               	rlcf	(ReadMessageFromFifo@msgId+1)^(0+1280),f,c
  4242  002752  3615               	rlcf	(ReadMessageFromFifo@msgId+2)^(0+1280),f,c
  4243  002754  3616               	rlcf	(ReadMessageFromFifo@msgId+3)^(0+1280),f,c
  4244  002756  2EE8               	decfsz	wreg,f,c
  4245  002758  EFA6  F013         	goto	i2u128_45
  4246  00275C                     
  4247                           ;mcc_generated_files/can1.c: 340:         msgId |= (rxFifoObj[3] & (0x1FU));
  4248  00275C  EE20 F003          	lfsr	2,3
  4249  002760  500C               	movf	ReadMessageFromFifo@rxFifoObj^(0+1280),w,c
  4250  002762  26D9               	addwf	fsr2l,f,c
  4251  002764  500D               	movf	(ReadMessageFromFifo@rxFifoObj+1)^(0+1280),w,c
  4252  002766  22DA               	addwfc	fsr2h,f,c
  4253  002768  50DF               	movf	indf2,w,c
  4254  00276A  6E10               	movwf	??_ReadMessageFromFifo^(0+1280),c
  4255  00276C  0E1F               	movlw	31
  4256  00276E  1610               	andwf	??_ReadMessageFromFifo^(0+1280),f,c
  4257  002770  5010               	movf	??_ReadMessageFromFifo^(0+1280),w,c
  4258  002772  1213               	iorwf	ReadMessageFromFifo@msgId^(0+1280),f,c
  4259  002774                     
  4260                           ;mcc_generated_files/can1.c: 341:         msgId <<= (8U);
  4261  002774  C515  F516         	movff	ReadMessageFromFifo@msgId+2,ReadMessageFromFifo@msgId+3
  4262  002778  C514  F515         	movff	ReadMessageFromFifo@msgId+1,ReadMessageFromFifo@msgId+2
  4263  00277C  C513  F514         	movff	ReadMessageFromFifo@msgId,ReadMessageFromFifo@msgId+1
  4264  002780  6A13               	clrf	ReadMessageFromFifo@msgId^(0+1280),c
  4265  002782                     
  4266                           ;mcc_generated_files/can1.c: 342:         msgId |= rxFifoObj[2];
  4267  002782  EE20 F002          	lfsr	2,2
  4268  002786  500C               	movf	ReadMessageFromFifo@rxFifoObj^(0+1280),w,c
  4269  002788  26D9               	addwf	fsr2l,f,c
  4270  00278A  500D               	movf	(ReadMessageFromFifo@rxFifoObj+1)^(0+1280),w,c
  4271  00278C  22DA               	addwfc	fsr2h,f,c
  4272  00278E  50DF               	movf	indf2,w,c
  4273  002790  6E10               	movwf	??_ReadMessageFromFifo^(0+1280),c
  4274  002792  5010               	movf	??_ReadMessageFromFifo^(0+1280),w,c
  4275  002794  1213               	iorwf	ReadMessageFromFifo@msgId^(0+1280),f,c
  4276  002796                     
  4277                           ;mcc_generated_files/can1.c: 343:         msgId <<= (5U);
  4278  002796  0E05               	movlw	5
  4279  002798                     i2u129_45:
  4280  002798  90D8               	bcf	status,0,c
  4281  00279A  3613               	rlcf	ReadMessageFromFifo@msgId^(0+1280),f,c
  4282  00279C  3614               	rlcf	(ReadMessageFromFifo@msgId+1)^(0+1280),f,c
  4283  00279E  3615               	rlcf	(ReadMessageFromFifo@msgId+2)^(0+1280),f,c
  4284  0027A0  3616               	rlcf	(ReadMessageFromFifo@msgId+3)^(0+1280),f,c
  4285  0027A2  2EE8               	decfsz	wreg,f,c
  4286  0027A4  EFCC  F013         	goto	i2u129_45
  4287  0027A8                     
  4288                           ;mcc_generated_files/can1.c: 344:         msgId |= (rxFifoObj[1] & (0xF8U)) >> (3U);
  4289  0027A8  EE20 F001          	lfsr	2,1
  4290  0027AC  500C               	movf	ReadMessageFromFifo@rxFifoObj^(0+1280),w,c
  4291  0027AE  26D9               	addwf	fsr2l,f,c
  4292  0027B0  500D               	movf	(ReadMessageFromFifo@rxFifoObj+1)^(0+1280),w,c
  4293  0027B2  22DA               	addwfc	fsr2h,f,c
  4294  0027B4  50DF               	movf	indf2,w,c
  4295  0027B6  6E10               	movwf	??_ReadMessageFromFifo^(0+1280),c
  4296  0027B8  90D8               	bcf	status,0,c
  4297  0027BA  3210               	rrcf	??_ReadMessageFromFifo^(0+1280),f,c
  4298  0027BC  90D8               	bcf	status,0,c
  4299  0027BE  3210               	rrcf	??_ReadMessageFromFifo^(0+1280),f,c
  4300  0027C0  90D8               	bcf	status,0,c
  4301  0027C2  3210               	rrcf	??_ReadMessageFromFifo^(0+1280),f,c
  4302  0027C4  0E1F               	movlw	31
  4303  0027C6  1610               	andwf	??_ReadMessageFromFifo^(0+1280),f,c
  4304  0027C8  5010               	movf	??_ReadMessageFromFifo^(0+1280),w,c
  4305  0027CA  1213               	iorwf	ReadMessageFromFifo@msgId^(0+1280),f,c
  4306  0027CC                     i2l2326:
  4307                           
  4308                           ;mcc_generated_files/can1.c: 346:     rxCanMsg->msgId = msgId;
  4309  0027CC  0061  F438  F4D9   	movff	ReadMessageFromFifo@rxCanMsg,fsr2l
  4310  0027D2  0061  F43C  F4DA   	movff	ReadMessageFromFifo@rxCanMsg+1,fsr2h
  4311  0027D8  0061  F44C  F4DE   	movff	ReadMessageFromFifo@msgId,postinc2
  4312  0027DE  0061  F450  F4DE   	movff	ReadMessageFromFifo@msgId+1,postinc2
  4313  0027E4  0061  F454  F4DE   	movff	ReadMessageFromFifo@msgId+2,postinc2
  4314  0027EA  0061  F458  F4DE   	movff	ReadMessageFromFifo@msgId+3,postinc2
  4315  0027F0                     
  4316                           ;mcc_generated_files/can1.c: 348:     memcpy(rxMsgData, rxFifoObj + payloadOffsetBytes, 
      +                          (DLC_BYTES[(rxCanMsg->field.dlc)]));
  4317  0027F0  0E6E               	movlw	low _rxMsgData
  4318  0027F2  6E01               	movwf	memcpy@d1^(0+1280),c
  4319  0027F4  0E05               	movlw	high _rxMsgData
  4320  0027F6  6E02               	movwf	(memcpy@d1+1)^(0+1280),c
  4321  0027F8  0E08               	movlw	8
  4322  0027FA  240C               	addwf	ReadMessageFromFifo@rxFifoObj^(0+1280),w,c
  4323  0027FC  6E03               	movwf	memcpy@s1^(0+1280),c
  4324  0027FE  0E00               	movlw	0
  4325  002800  200D               	addwfc	(ReadMessageFromFifo@rxFifoObj+1)^(0+1280),w,c
  4326  002802  6E04               	movwf	(memcpy@s1+1)^(0+1280),c
  4327  002804  EE20 F004          	lfsr	2,4
  4328  002808  500E               	movf	ReadMessageFromFifo@rxCanMsg^(0+1280),w,c
  4329  00280A  26D9               	addwf	fsr2l,f,c
  4330  00280C  500F               	movf	(ReadMessageFromFifo@rxCanMsg+1)^(0+1280),w,c
  4331  00280E  22DA               	addwfc	fsr2h,f,c
  4332  002810  30DF               	rrcf	479,w,c
  4333  002812  32E8               	rrcf	wreg,f,c
  4334  002814  0B0F               	andlw	15
  4335  002816  6E10               	movwf	??_ReadMessageFromFifo^(0+1280),c
  4336  002818  6A11               	clrf	(??_ReadMessageFromFifo+1)^(0+1280),c
  4337  00281A  0E01               	movlw	low _DLC_BYTES
  4338  00281C  2410               	addwf	??_ReadMessageFromFifo^(0+1280),w,c
  4339  00281E  6EF6               	movwf	tblptrl,c
  4340  002820  0E26               	movlw	high _DLC_BYTES
  4341  002822  2011               	addwfc	(??_ReadMessageFromFifo+1)^(0+1280),w,c
  4342  002824  6EF7               	movwf	tblptrh,c
  4343  002826                     	if	1	;There are 3 active tblptr bytes
  4344  002826  6AF8               	clrf	tblptru,c
  4345  002828  0E00               	movlw	low (__mediumconst shr (0+16))
  4346  00282A  22F8               	addwfc	tblptru,f,c
  4347  00282C                     	endif
  4348  00282C  0008               	tblrd		*
  4349  00282E  50F5               	movf	tablat,w,c
  4350  002830  6E05               	movwf	memcpy@n^(0+1280),c
  4351  002832  6A06               	clrf	(memcpy@n+1)^(0+1280),c
  4352  002834  ECF0  F017         	call	_memcpy	;wreg free
  4353  002838                     
  4354                           ;mcc_generated_files/can1.c: 349:     rxCanMsg->data = rxMsgData;
  4355  002838  EE20 F005          	lfsr	2,5
  4356  00283C  500E               	movf	ReadMessageFromFifo@rxCanMsg^(0+1280),w,c
  4357  00283E  26D9               	addwf	fsr2l,f,c
  4358  002840  500F               	movf	(ReadMessageFromFifo@rxCanMsg+1)^(0+1280),w,c
  4359  002842  22DA               	addwfc	fsr2h,f,c
  4360  002844  0E6E               	movlw	low _rxMsgData
  4361  002846  6EDE               	movwf	postinc2,c
  4362  002848  0E05               	movlw	high _rxMsgData
  4363  00284A  6EDD               	movwf	postdec2,c
  4364  00284C  0012               	return		;funcret
  4365  00284E                     __end_of_ReadMessageFromFifo:
  4366                           	callstack 0
  4367                           
  4368 ;; *************** function _memcpy *****************
  4369 ;; Defined at:
  4370 ;;		line 4 in file "C:\Program Files\Microchip\xc8\v2.30\pic\sources\c99\common\memcpy.c"
  4371 ;; Parameters:    Size  Location     Type
  4372 ;;  d1              2    0[COMRAM] PTR void 
  4373 ;;		 -> RAM(9727), rxMsgData(8), 
  4374 ;;  s1              2    2[COMRAM] PTR const void 
  4375 ;;		 -> CANDATAdata(8), RAM(9727), rxMsgData(8), 
  4376 ;;  n               2    4[COMRAM] unsigned int 
  4377 ;; Auto vars:     Size  Location     Type
  4378 ;;  s               2    8[COMRAM] PTR const unsigned char 
  4379 ;;		 -> CANDATAdata(8), RAM(9727), rxMsgData(8), 
  4380 ;;  d               2    6[COMRAM] PTR unsigned char 
  4381 ;;		 -> RAM(9727), rxMsgData(8), 
  4382 ;;  tmp             1   10[COMRAM] unsigned char 
  4383 ;; Return value:  Size  Location     Type
  4384 ;;                  2    0[COMRAM] PTR void 
  4385 ;; Registers used:
  4386 ;;		wreg, fsr2l, fsr2h, status,2, status,0
  4387 ;; Tracked objects:
  4388 ;;		On entry : 0/0
  4389 ;;		On exit  : 0/0
  4390 ;;		Unchanged: 0/0
  4391 ;; Data sizes:     COMRAM   BANK5   BANK6   BANK7   BANK8   BANK9  BANK10  BANK11  BANK12  BANK13  BANK14  BANK15  BANK1
      +6  BANK17  BANK18  BANK19  BANK20  BANK21  BANK22  BANK23  BANK24  BANK25  BANK26  BANK27  BANK28  BANK29  BANK30  BANK3
      +1  BANK32  BANK33  BANK34  BANK35  BANK36  BANK37
  4392 ;;      Params:         6       0       0       0       0       0       0       0       0       0       0       0       
      +0       0       0       0       0       0       0       0       0       0       0       0       0       0       0       
      +0       0       0       0       0       0       0
  4393 ;;      Locals:         5       0       0       0       0       0       0       0       0       0       0       0       
      +0       0       0       0       0       0       0       0       0       0       0       0       0       0       0       
      +0       0       0       0       0       0       0
  4394 ;;      Temps:          0       0       0       0       0       0       0       0       0       0       0       0       
      +0       0       0       0       0       0       0       0       0       0       0       0       0       0       0       
      +0       0       0       0       0       0       0
  4395 ;;      Totals:        11       0       0       0       0       0       0       0       0       0       0       0       
      +0       0       0       0       0       0       0       0       0       0       0       0       0       0       0       
      +0       0       0       0       0       0       0
  4396 ;;Total ram usage:       11 bytes
  4397 ;; Hardware stack levels used:    1
  4398 ;; This function calls:
  4399 ;;		Nothing
  4400 ;; This function is called by:
  4401 ;;		_ReadMessageFromFifo
  4402 ;;		_WriteMessageToFifo
  4403 ;; This function uses a non-reentrant model
  4404 ;;
  4405                           
  4406                           	psect	text44
  4407  002FE0                     __ptext44:
  4408                           	callstack 0
  4409  002FE0                     _memcpy:
  4410                           	callstack 117
  4411  002FE0  C503  F509         	movff	memcpy@s1,memcpy@s
  4412  002FE4  C504  F50A         	movff	memcpy@s1+1,memcpy@s+1
  4413  002FE8  C501  F507         	movff	memcpy@d1,memcpy@d
  4414  002FEC  C502  F508         	movff	memcpy@d1+1,memcpy@d+1
  4415  002FF0  EF0F  F018         	goto	i2l2282
  4416  002FF4                     i2l2274:
  4417  002FF4  0061  F424  F4D9   	movff	memcpy@s,fsr2l
  4418  002FFA  0061  F428  F4DA   	movff	memcpy@s+1,fsr2h
  4419  003000  50DF               	movf	indf2,w,c
  4420  003002  6E0B               	movwf	memcpy@tmp^(0+1280),c
  4421  003004  4A09               	infsnz	memcpy@s^(0+1280),f,c
  4422  003006  2A0A               	incf	(memcpy@s+1)^(0+1280),f,c
  4423  003008  0061  F41C  F4D9   	movff	memcpy@d,fsr2l
  4424  00300E  0061  F420  F4DA   	movff	memcpy@d+1,fsr2h
  4425  003014  0061  F42C  F4DF   	movff	memcpy@tmp,indf2
  4426  00301A  4A07               	infsnz	memcpy@d^(0+1280),f,c
  4427  00301C  2A08               	incf	(memcpy@d+1)^(0+1280),f,c
  4428  00301E                     i2l2282:
  4429  00301E  0605               	decf	memcpy@n^(0+1280),f,c
  4430  003020  A0D8               	btfss	status,0,c
  4431  003022  0606               	decf	(memcpy@n+1)^(0+1280),f,c
  4432  003024  2805               	incf	memcpy@n^(0+1280),w,c
  4433  003026  E106               	bnz	i2u118_41
  4434  003028  2806               	incf	(memcpy@n+1)^(0+1280),w,c
  4435  00302A  A4D8               	btfss	status,2,c
  4436  00302C  EF1A  F018         	goto	i2u118_41
  4437  003030  EF1C  F018         	goto	i2u118_40
  4438  003034                     i2u118_41:
  4439  003034  EFFA  F017         	goto	i2l2274
  4440  003038                     i2u118_40:
  4441  003038  0012               	return		;funcret
  4442  00303A                     __end_of_memcpy:
  4443                           	callstack 0
  4444                           
  4445 ;; *************** function _GetRxFifoStatus *****************
  4446 ;; Defined at:
  4447 ;;		line 313 in file "mcc_generated_files/can1.c"
  4448 ;; Parameters:    Size  Location     Type
  4449 ;;  validChannel    1    wreg     unsigned char 
  4450 ;; Auto vars:     Size  Location     Type
  4451 ;;  validChannel    1    0[COMRAM] unsigned char 
  4452 ;; Return value:  Size  Location     Type
  4453 ;;                  1    wreg      enum E22533
  4454 ;; Registers used:
  4455 ;;		wreg, fsr2l, fsr2h, status,2, status,0, prodl, prodh
  4456 ;; Tracked objects:
  4457 ;;		On entry : 0/0
  4458 ;;		On exit  : 0/0
  4459 ;;		Unchanged: 0/0
  4460 ;; Data sizes:     COMRAM   BANK5   BANK6   BANK7   BANK8   BANK9  BANK10  BANK11  BANK12  BANK13  BANK14  BANK15  BANK1
      +6  BANK17  BANK18  BANK19  BANK20  BANK21  BANK22  BANK23  BANK24  BANK25  BANK26  BANK27  BANK28  BANK29  BANK30  BANK3
      +1  BANK32  BANK33  BANK34  BANK35  BANK36  BANK37
  4461 ;;      Params:         0       0       0       0       0       0       0       0       0       0       0       0       
      +0       0       0       0       0       0       0       0       0       0       0       0       0       0       0       
      +0       0       0       0       0       0       0
  4462 ;;      Locals:         1       0       0       0       0       0       0       0       0       0       0       0       
      +0       0       0       0       0       0       0       0       0       0       0       0       0       0       0       
      +0       0       0       0       0       0       0
  4463 ;;      Temps:          0       0       0       0       0       0       0       0       0       0       0       0       
      +0       0       0       0       0       0       0       0       0       0       0       0       0       0       0       
      +0       0       0       0       0       0       0
  4464 ;;      Totals:         1       0       0       0       0       0       0       0       0       0       0       0       
      +0       0       0       0       0       0       0       0       0       0       0       0       0       0       0       
      +0       0       0       0       0       0       0
  4465 ;;Total ram usage:        1 bytes
  4466 ;; Hardware stack levels used:    1
  4467 ;; This function calls:
  4468 ;;		Nothing
  4469 ;; This function is called by:
  4470 ;;		_Receive
  4471 ;;		_CAN1_ReceivedMessageCountGet
  4472 ;; This function uses a non-reentrant model
  4473 ;;
  4474                           
  4475                           	psect	text45
  4476  0033CE                     __ptext45:
  4477                           	callstack 0
  4478  0033CE                     _GetRxFifoStatus:
  4479                           	callstack 119
  4480                           
  4481                           ;incstack = 0
  4482                           ;GetRxFifoStatus@validChannel stored from wreg
  4483  0033CE  6E01               	movwf	GetRxFifoStatus@validChannel^(0+1280),c
  4484  0033D0                     
  4485                           ;mcc_generated_files/can1.c: 313: static CAN_RX_FIFO_STATUS GetRxFifoStatus(uint8_t vali
      +                          dChannel);mcc_generated_files/can1.c: 314: {;mcc_generated_files/can1.c: 315:     return
      +                           FIFO[validChannel].STAL & (CAN_RX_MSG_AVAILABLE | CAN_RX_MSG_OVERFLOW);
  4486  0033D0  5001               	movf	GetRxFifoStatus@validChannel^(0+1280),w,c
  4487  0033D2  0D0C               	mullw	12
  4488  0033D4  0E54               	movlw	84
  4489  0033D6  24F3               	addwf	243,w,c
  4490  0033D8  6ED9               	movwf	fsr2l,c
  4491  0033DA  0E01               	movlw	1
  4492  0033DC  20F4               	addwfc	prodh,w,c
  4493  0033DE  6EDA               	movwf	fsr2h,c
  4494  0033E0  50DF               	movf	indf2,w,c
  4495  0033E2  0B09               	andlw	9
  4496  0033E4  0012               	return		;funcret
  4497  0033E6                     __end_of_GetRxFifoStatus:
  4498                           	callstack 0
  4499                           
  4500 ;; *************** function _GetRxFifoDepth *****************
  4501 ;; Defined at:
  4502 ;;		line 308 in file "mcc_generated_files/can1.c"
  4503 ;; Parameters:    Size  Location     Type
  4504 ;;  validChannel    1    wreg     unsigned char 
  4505 ;; Auto vars:     Size  Location     Type
  4506 ;;  validChannel    1    1[COMRAM] unsigned char 
  4507 ;; Return value:  Size  Location     Type
  4508 ;;                  1    wreg      unsigned char 
  4509 ;; Registers used:
  4510 ;;		wreg, fsr2l, fsr2h, status,2, status,0, prodl, prodh
  4511 ;; Tracked objects:
  4512 ;;		On entry : 0/0
  4513 ;;		On exit  : 0/0
  4514 ;;		Unchanged: 0/0
  4515 ;; Data sizes:     COMRAM   BANK5   BANK6   BANK7   BANK8   BANK9  BANK10  BANK11  BANK12  BANK13  BANK14  BANK15  BANK1
      +6  BANK17  BANK18  BANK19  BANK20  BANK21  BANK22  BANK23  BANK24  BANK25  BANK26  BANK27  BANK28  BANK29  BANK30  BANK3
      +1  BANK32  BANK33  BANK34  BANK35  BANK36  BANK37
  4516 ;;      Params:         0       0       0       0       0       0       0       0       0       0       0       0       
      +0       0       0       0       0       0       0       0       0       0       0       0       0       0       0       
      +0       0       0       0       0       0       0
  4517 ;;      Locals:         1       0       0       0       0       0       0       0       0       0       0       0       
      +0       0       0       0       0       0       0       0       0       0       0       0       0       0       0       
      +0       0       0       0       0       0       0
  4518 ;;      Temps:          1       0       0       0       0       0       0       0       0       0       0       0       
      +0       0       0       0       0       0       0       0       0       0       0       0       0       0       0       
      +0       0       0       0       0       0       0
  4519 ;;      Totals:         2       0       0       0       0       0       0       0       0       0       0       0       
      +0       0       0       0       0       0       0       0       0       0       0       0       0       0       0       
      +0       0       0       0       0       0       0
  4520 ;;Total ram usage:        2 bytes
  4521 ;; Hardware stack levels used:    1
  4522 ;; This function calls:
  4523 ;;		Nothing
  4524 ;; This function is called by:
  4525 ;;		_Receive
  4526 ;;		_CAN1_ReceivedMessageCountGet
  4527 ;; This function uses a non-reentrant model
  4528 ;;
  4529                           
  4530                           	psect	text46
  4531  003398                     __ptext46:
  4532                           	callstack 0
  4533  003398                     _GetRxFifoDepth:
  4534                           	callstack 119
  4535                           
  4536                           ;incstack = 0
  4537                           ;GetRxFifoDepth@validChannel stored from wreg
  4538  003398  6E02               	movwf	GetRxFifoDepth@validChannel^(0+1280),c
  4539  00339A                     
  4540                           ;mcc_generated_files/can1.c: 308: static uint8_t GetRxFifoDepth(uint8_t validChannel);mc
      +                          c_generated_files/can1.c: 309: {;mcc_generated_files/can1.c: 310:     return 1U + (FIFO[
      +                          validChannel].CONT & 0x1F);
  4541  00339A  5002               	movf	GetRxFifoDepth@validChannel^(0+1280),w,c
  4542  00339C  0D0C               	mullw	12
  4543  00339E  0E53               	movlw	83
  4544  0033A0  24F3               	addwf	243,w,c
  4545  0033A2  6ED9               	movwf	fsr2l,c
  4546  0033A4  0E01               	movlw	1
  4547  0033A6  20F4               	addwfc	prodh,w,c
  4548  0033A8  6EDA               	movwf	fsr2h,c
  4549  0033AA  50DF               	movf	indf2,w,c
  4550  0033AC  6E01               	movwf	??_GetRxFifoDepth^(0+1280),c
  4551  0033AE  0E1F               	movlw	31
  4552  0033B0  1601               	andwf	??_GetRxFifoDepth^(0+1280),f,c
  4553  0033B2  2801               	incf	??_GetRxFifoDepth^(0+1280),w,c
  4554  0033B4  0012               	return		;funcret
  4555  0033B6                     __end_of_GetRxFifoDepth:
  4556                           	callstack 0
  4557                           
  4558 ;; *************** function _CAN1_ISR *****************
  4559 ;; Defined at:
  4560 ;;		line 654 in file "mcc_generated_files/can1.c"
  4561 ;; Parameters:    Size  Location     Type
  4562 ;;		None
  4563 ;; Auto vars:     Size  Location     Type
  4564 ;;		None
  4565 ;; Return value:  Size  Location     Type
  4566 ;;                  1    wreg      void 
  4567 ;; Registers used:
  4568 ;;		wreg, pclath, tosl, cstack
  4569 ;; Tracked objects:
  4570 ;;		On entry : 0/0
  4571 ;;		On exit  : 0/0
  4572 ;;		Unchanged: 0/0
  4573 ;; Data sizes:     COMRAM   BANK5   BANK6   BANK7   BANK8   BANK9  BANK10  BANK11  BANK12  BANK13  BANK14  BANK15  BANK1
      +6  BANK17  BANK18  BANK19  BANK20  BANK21  BANK22  BANK23  BANK24  BANK25  BANK26  BANK27  BANK28  BANK29  BANK30  BANK3
      +1  BANK32  BANK33  BANK34  BANK35  BANK36  BANK37
  4574 ;;      Params:         0       0       0       0       0       0       0       0       0       0       0       0       
      +0       0       0       0       0       0       0       0       0       0       0       0       0       0       0       
      +0       0       0       0       0       0       0
  4575 ;;      Locals:         0       0       0       0       0       0       0       0       0       0       0       0       
      +0       0       0       0       0       0       0       0       0       0       0       0       0       0       0       
      +0       0       0       0       0       0       0
  4576 ;;      Temps:          0       0       0       0       0       0       0       0       0       0       0       0       
      +0       0       0       0       0       0       0       0       0       0       0       0       0       0       0       
      +0       0       0       0       0       0       0
  4577 ;;      Totals:         0       0       0       0       0       0       0       0       0       0       0       0       
      +0       0       0       0       0       0       0       0       0       0       0       0       0       0       0       
      +0       0       0       0       0       0       0
  4578 ;;Total ram usage:        0 bytes
  4579 ;; Hardware stack levels used:    1
  4580 ;; Hardware stack levels required when called:    1
  4581 ;; This function calls:
  4582 ;;		Absolute function
  4583 ;;		_DefaultBusErrorHandler
  4584 ;;		_DefaultBusWakeUpActivityHandler
  4585 ;;		_DefaultInvalidMessageHandler
  4586 ;;		_DefaultModeChangeHandler
  4587 ;;		_DefaultRxBufferOverflowHandler
  4588 ;;		_DefaultSystemErrorHandler
  4589 ;;		_DefaultTxAttemptHandler
  4590 ;; This function is called by:
  4591 ;;		_INTERRUPT_InterruptManager
  4592 ;; This function uses a non-reentrant model
  4593 ;;
  4594                           
  4595                           	psect	text47
  4596  00284E                     __ptext47:
  4597                           	callstack 0
  4598  00284E                     _CAN1_ISR:
  4599                           	callstack 121
  4600  00284E                     
  4601                           ;mcc_generated_files/can1.c: 656:     if (1 == C1INTHbits.IVMIF)
  4602  00284E  0101               	movlb	1	; () banked
  4603  002850  AF1D               	btfss	29,7,b	;volatile
  4604  002852  EF2D  F014         	goto	i2u178_41
  4605  002856  EF2F  F014         	goto	i2u178_40
  4606  00285A                     i2u178_41:
  4607  00285A  EF3E  F014         	goto	i2l2734
  4608  00285E                     i2u178_40:
  4609  00285E                     
  4610                           ; BSR set to: 1
  4611                           ;mcc_generated_files/can1.c: 657:     {;mcc_generated_files/can1.c: 658:         CAN1_In
      +                          validMessageHandler();
  4612  00285E  D802               	call	i2u179_48
  4613  002860  EF3C  F014         	goto	i2u179_49
  4614  002864                     i2u179_48:
  4615  002864  0005               	push	
  4616  002866  6EFA               	movwf	pclath,c
  4617  002868  0105               	movlb	5	; () banked
  4618  00286A  516C               	movf	_CAN1_InvalidMessageHandler& (0+255),w,b
  4619  00286C  6EFD               	movwf	tosl,c
  4620  00286E  516D               	movf	(_CAN1_InvalidMessageHandler+1)& (0+255),w,b
  4621  002870  6EFE               	movwf	tosh,c
  4622  002872  6AFF               	clrf	tosu,c
  4623  002874  50FA               	movf	pclath,w,c
  4624  002876  0012               	return		;indir
  4625  002878                     i2u179_49:
  4626  002878                     
  4627                           ;mcc_generated_files/can1.c: 659:         C1INTHbits.IVMIF = 0;
  4628  002878  0101               	movlb	1	; () banked
  4629  00287A  9F1D               	bcf	29,7,b	;volatile
  4630  00287C                     i2l2734:
  4631                           
  4632                           ; BSR set to: 1
  4633                           ;mcc_generated_files/can1.c: 662:     if (1 == C1INTHbits.WAKIF)
  4634  00287C  AD1D               	btfss	29,6,b	;volatile
  4635  00287E  EF43  F014         	goto	i2u180_41
  4636  002882  EF45  F014         	goto	i2u180_40
  4637  002886                     i2u180_41:
  4638  002886  EF54  F014         	goto	i2l2740
  4639  00288A                     i2u180_40:
  4640  00288A                     
  4641                           ; BSR set to: 1
  4642                           ;mcc_generated_files/can1.c: 663:     {;mcc_generated_files/can1.c: 664:         CAN1_Bu
      +                          sWakeUpActivityHandler();
  4643  00288A  D802               	call	i2u181_48
  4644  00288C  EF52  F014         	goto	i2u181_49
  4645  002890                     i2u181_48:
  4646  002890  0005               	push	
  4647  002892  6EFA               	movwf	pclath,c
  4648  002894  0105               	movlb	5	; () banked
  4649  002896  516A               	movf	_CAN1_BusWakeUpActivityHandler& (0+255),w,b
  4650  002898  6EFD               	movwf	tosl,c
  4651  00289A  516B               	movf	(_CAN1_BusWakeUpActivityHandler+1)& (0+255),w,b
  4652  00289C  6EFE               	movwf	tosh,c
  4653  00289E  6AFF               	clrf	tosu,c
  4654  0028A0  50FA               	movf	pclath,w,c
  4655  0028A2  0012               	return		;indir
  4656  0028A4                     i2u181_49:
  4657  0028A4                     
  4658                           ;mcc_generated_files/can1.c: 665:         C1INTHbits.WAKIF = 0;
  4659  0028A4  0101               	movlb	1	; () banked
  4660  0028A6  9D1D               	bcf	29,6,b	;volatile
  4661  0028A8                     i2l2740:
  4662                           
  4663                           ; BSR set to: 1
  4664                           ;mcc_generated_files/can1.c: 668:     if (1 == C1INTHbits.CERRIF)
  4665  0028A8  AB1D               	btfss	29,5,b	;volatile
  4666  0028AA  EF59  F014         	goto	i2u182_41
  4667  0028AE  EF5B  F014         	goto	i2u182_40
  4668  0028B2                     i2u182_41:
  4669  0028B2  EF6A  F014         	goto	i2l2746
  4670  0028B6                     i2u182_40:
  4671  0028B6                     
  4672                           ; BSR set to: 1
  4673                           ;mcc_generated_files/can1.c: 669:     {;mcc_generated_files/can1.c: 670:         CAN1_Bu
      +                          sErrorHandler();
  4674  0028B6  D802               	call	i2u183_48
  4675  0028B8  EF68  F014         	goto	i2u183_49
  4676  0028BC                     i2u183_48:
  4677  0028BC  0005               	push	
  4678  0028BE  6EFA               	movwf	pclath,c
  4679  0028C0  0105               	movlb	5	; () banked
  4680  0028C2  5168               	movf	_CAN1_BusErrorHandler& (0+255),w,b
  4681  0028C4  6EFD               	movwf	tosl,c
  4682  0028C6  5169               	movf	(_CAN1_BusErrorHandler+1)& (0+255),w,b
  4683  0028C8  6EFE               	movwf	tosh,c
  4684  0028CA  6AFF               	clrf	tosu,c
  4685  0028CC  50FA               	movf	pclath,w,c
  4686  0028CE  0012               	return		;indir
  4687  0028D0                     i2u183_49:
  4688  0028D0                     
  4689                           ;mcc_generated_files/can1.c: 671:         C1INTHbits.CERRIF = 0;
  4690  0028D0  0101               	movlb	1	; () banked
  4691  0028D2  9B1D               	bcf	29,5,b	;volatile
  4692  0028D4                     i2l2746:
  4693                           
  4694                           ; BSR set to: 1
  4695                           ;mcc_generated_files/can1.c: 674:     if (1 == C1INTLbits.MODIF)
  4696  0028D4  A71C               	btfss	28,3,b	;volatile
  4697  0028D6  EF6F  F014         	goto	i2u184_41
  4698  0028DA  EF71  F014         	goto	i2u184_40
  4699  0028DE                     i2u184_41:
  4700  0028DE  EF80  F014         	goto	i2l2752
  4701  0028E2                     i2u184_40:
  4702  0028E2                     
  4703                           ; BSR set to: 1
  4704                           ;mcc_generated_files/can1.c: 675:     {;mcc_generated_files/can1.c: 676:         CAN1_Mo
      +                          deChangeHandler();
  4705  0028E2  D802               	call	i2u185_48
  4706  0028E4  EF7E  F014         	goto	i2u185_49
  4707  0028E8                     i2u185_48:
  4708  0028E8  0005               	push	
  4709  0028EA  6EFA               	movwf	pclath,c
  4710  0028EC  0105               	movlb	5	; () banked
  4711  0028EE  5166               	movf	_CAN1_ModeChangeHandler& (0+255),w,b
  4712  0028F0  6EFD               	movwf	tosl,c
  4713  0028F2  5167               	movf	(_CAN1_ModeChangeHandler+1)& (0+255),w,b
  4714  0028F4  6EFE               	movwf	tosh,c
  4715  0028F6  6AFF               	clrf	tosu,c
  4716  0028F8  50FA               	movf	pclath,w,c
  4717  0028FA  0012               	return		;indir
  4718  0028FC                     i2u185_49:
  4719  0028FC                     
  4720                           ;mcc_generated_files/can1.c: 677:         C1INTLbits.MODIF = 0;
  4721  0028FC  0101               	movlb	1	; () banked
  4722  0028FE  971C               	bcf	28,3,b	;volatile
  4723  002900                     i2l2752:
  4724                           
  4725                           ; BSR set to: 1
  4726                           ;mcc_generated_files/can1.c: 680:     if (1 == C1INTHbits.SERRIF)
  4727  002900  A91D               	btfss	29,4,b	;volatile
  4728  002902  EF85  F014         	goto	i2u186_41
  4729  002906  EF87  F014         	goto	i2u186_40
  4730  00290A                     i2u186_41:
  4731  00290A  EF96  F014         	goto	i2l2758
  4732  00290E                     i2u186_40:
  4733  00290E                     
  4734                           ; BSR set to: 1
  4735                           ;mcc_generated_files/can1.c: 681:     {;mcc_generated_files/can1.c: 682:         CAN1_Sy
      +                          stemErrorHandler();
  4736  00290E  D802               	call	i2u187_48
  4737  002910  EF94  F014         	goto	i2u187_49
  4738  002914                     i2u187_48:
  4739  002914  0005               	push	
  4740  002916  6EFA               	movwf	pclath,c
  4741  002918  0105               	movlb	5	; () banked
  4742  00291A  5164               	movf	_CAN1_SystemErrorHandler& (0+255),w,b
  4743  00291C  6EFD               	movwf	tosl,c
  4744  00291E  5165               	movf	(_CAN1_SystemErrorHandler+1)& (0+255),w,b
  4745  002920  6EFE               	movwf	tosh,c
  4746  002922  6AFF               	clrf	tosu,c
  4747  002924  50FA               	movf	pclath,w,c
  4748  002926  0012               	return		;indir
  4749  002928                     i2u187_49:
  4750  002928                     
  4751                           ;mcc_generated_files/can1.c: 683:         C1INTHbits.SERRIF = 0;
  4752  002928  0101               	movlb	1	; () banked
  4753  00292A  991D               	bcf	29,4,b	;volatile
  4754  00292C                     i2l2758:
  4755                           
  4756                           ; BSR set to: 1
  4757                           ;mcc_generated_files/can1.c: 686:     if (1 == C1INTHbits.TXATIF)
  4758  00292C  A51D               	btfss	29,2,b	;volatile
  4759  00292E  EF9B  F014         	goto	i2u188_41
  4760  002932  EF9D  F014         	goto	i2u188_40
  4761  002936                     i2u188_41:
  4762  002936  EFB3  F014         	goto	i2l311
  4763  00293A                     i2u188_40:
  4764  00293A                     
  4765                           ; BSR set to: 1
  4766                           ;mcc_generated_files/can1.c: 687:     {;mcc_generated_files/can1.c: 688:         CAN1_Tx
      +                          AttemptHandler();
  4767  00293A  D802               	call	i2u189_48
  4768  00293C  EFAA  F014         	goto	i2u189_49
  4769  002940                     i2u189_48:
  4770  002940  0005               	push	
  4771  002942  6EFA               	movwf	pclath,c
  4772  002944  0105               	movlb	5	; () banked
  4773  002946  5162               	movf	_CAN1_TxAttemptHandler& (0+255),w,b
  4774  002948  6EFD               	movwf	tosl,c
  4775  00294A  5163               	movf	(_CAN1_TxAttemptHandler+1)& (0+255),w,b
  4776  00294C  6EFE               	movwf	tosh,c
  4777  00294E  6AFF               	clrf	tosu,c
  4778  002950  50FA               	movf	pclath,w,c
  4779  002952  0012               	return		;indir
  4780  002954                     i2u189_49:
  4781  002954                     
  4782                           ;mcc_generated_files/can1.c: 689:         if (1 == C1TXQSTALbits.TXATIF)
  4783  002954  0101               	movlb	1	; () banked
  4784  002956  A954               	btfss	84,4,b	;volatile
  4785  002958  EFB0  F014         	goto	i2u190_41
  4786  00295C  EFB2  F014         	goto	i2u190_40
  4787  002960                     i2u190_41:
  4788  002960  EFB3  F014         	goto	i2l311
  4789  002964                     i2u190_40:
  4790  002964                     
  4791                           ; BSR set to: 1
  4792                           ;mcc_generated_files/can1.c: 690:         {;mcc_generated_files/can1.c: 691:            
      +                           C1TXQSTALbits.TXATIF = 0;
  4793  002964  9954               	bcf	84,4,b	;volatile
  4794  002966                     i2l311:
  4795                           
  4796                           ; BSR set to: 1
  4797                           ;mcc_generated_files/can1.c: 695:     if (1 == C1INTHbits.RXOVIF)
  4798  002966  A71D               	btfss	29,3,b	;volatile
  4799  002968  EFB8  F014         	goto	i2u191_41
  4800  00296C  EFBA  F014         	goto	i2u191_40
  4801  002970                     i2u191_41:
  4802  002970  EFD0  F014         	goto	i2l313
  4803  002974                     i2u191_40:
  4804  002974                     
  4805                           ; BSR set to: 1
  4806                           ;mcc_generated_files/can1.c: 696:     {;mcc_generated_files/can1.c: 697:         CAN1_Rx
      +                          BufferOverflowHandler();
  4807  002974  D802               	call	i2u192_48
  4808  002976  EFC7  F014         	goto	i2u192_49
  4809  00297A                     i2u192_48:
  4810  00297A  0005               	push	
  4811  00297C  6EFA               	movwf	pclath,c
  4812  00297E  0105               	movlb	5	; () banked
  4813  002980  5160               	movf	_CAN1_RxBufferOverflowHandler& (0+255),w,b
  4814  002982  6EFD               	movwf	tosl,c
  4815  002984  5161               	movf	(_CAN1_RxBufferOverflowHandler+1)& (0+255),w,b
  4816  002986  6EFE               	movwf	tosh,c
  4817  002988  6AFF               	clrf	tosu,c
  4818  00298A  50FA               	movf	pclath,w,c
  4819  00298C  0012               	return		;indir
  4820  00298E                     i2u192_49:
  4821  00298E                     
  4822                           ;mcc_generated_files/can1.c: 698:         if (1 == C1FIFOSTA1Lbits.RXOVIF)
  4823  00298E  0101               	movlb	1	; () banked
  4824  002990  A760               	btfss	96,3,b	;volatile
  4825  002992  EFCD  F014         	goto	i2u193_41
  4826  002996  EFCF  F014         	goto	i2u193_40
  4827  00299A                     i2u193_41:
  4828  00299A  EFD0  F014         	goto	i2l313
  4829  00299E                     i2u193_40:
  4830  00299E                     
  4831                           ; BSR set to: 1
  4832                           ;mcc_generated_files/can1.c: 699:         {;mcc_generated_files/can1.c: 700:            
      +                           C1FIFOSTA1Lbits.RXOVIF = 0;
  4833  00299E  9760               	bcf	96,3,b	;volatile
  4834  0029A0                     i2l313:
  4835                           
  4836                           ; BSR set to: 1
  4837                           ;mcc_generated_files/can1.c: 704:     PIR0bits.CANIF = 0;
  4838  0029A0  9CAE               	bcf	174,6,c	;volatile
  4839  0029A2                     
  4840                           ; BSR set to: 1
  4841  0029A2  0012               	return		;funcret
  4842  0029A4                     __end_of_CAN1_ISR:
  4843                           	callstack 0
  4844                           
  4845 ;; *************** function _DefaultTxAttemptHandler *****************
  4846 ;; Defined at:
  4847 ;;		line 143 in file "mcc_generated_files/can1.c"
  4848 ;; Parameters:    Size  Location     Type
  4849 ;;		None
  4850 ;; Auto vars:     Size  Location     Type
  4851 ;;		None
  4852 ;; Return value:  Size  Location     Type
  4853 ;;                  1    wreg      void 
  4854 ;; Registers used:
  4855 ;;		None
  4856 ;; Tracked objects:
  4857 ;;		On entry : 0/0
  4858 ;;		On exit  : 0/0
  4859 ;;		Unchanged: 0/0
  4860 ;; Data sizes:     COMRAM   BANK5   BANK6   BANK7   BANK8   BANK9  BANK10  BANK11  BANK12  BANK13  BANK14  BANK15  BANK1
      +6  BANK17  BANK18  BANK19  BANK20  BANK21  BANK22  BANK23  BANK24  BANK25  BANK26  BANK27  BANK28  BANK29  BANK30  BANK3
      +1  BANK32  BANK33  BANK34  BANK35  BANK36  BANK37
  4861 ;;      Params:         0       0       0       0       0       0       0       0       0       0       0       0       
      +0       0       0       0       0       0       0       0       0       0       0       0       0       0       0       
      +0       0       0       0       0       0       0
  4862 ;;      Locals:         0       0       0       0       0       0       0       0       0       0       0       0       
      +0       0       0       0       0       0       0       0       0       0       0       0       0       0       0       
      +0       0       0       0       0       0       0
  4863 ;;      Temps:          0       0       0       0       0       0       0       0       0       0       0       0       
      +0       0       0       0       0       0       0       0       0       0       0       0       0       0       0       
      +0       0       0       0       0       0       0
  4864 ;;      Totals:         0       0       0       0       0       0       0       0       0       0       0       0       
      +0       0       0       0       0       0       0       0       0       0       0       0       0       0       0       
      +0       0       0       0       0       0       0
  4865 ;;Total ram usage:        0 bytes
  4866 ;; Hardware stack levels used:    1
  4867 ;; This function calls:
  4868 ;;		Nothing
  4869 ;; This function is called by:
  4870 ;;		_CAN1_ErrorNotificationInterruptEnable
  4871 ;;		_CAN1_ISR
  4872 ;; This function uses a non-reentrant model
  4873 ;;
  4874                           
  4875                           	psect	text48
  4876  00348A                     __ptext48:
  4877                           	callstack 0
  4878  00348A                     _DefaultTxAttemptHandler:
  4879                           	callstack 121
  4880  00348A  0012               	return		;funcret
  4881  00348C                     __end_of_DefaultTxAttemptHandler:
  4882                           	callstack 0
  4883                           
  4884 ;; *************** function _DefaultSystemErrorHandler *****************
  4885 ;; Defined at:
  4886 ;;		line 139 in file "mcc_generated_files/can1.c"
  4887 ;; Parameters:    Size  Location     Type
  4888 ;;		None
  4889 ;; Auto vars:     Size  Location     Type
  4890 ;;		None
  4891 ;; Return value:  Size  Location     Type
  4892 ;;                  1    wreg      void 
  4893 ;; Registers used:
  4894 ;;		None
  4895 ;; Tracked objects:
  4896 ;;		On entry : 0/0
  4897 ;;		On exit  : 0/0
  4898 ;;		Unchanged: 0/0
  4899 ;; Data sizes:     COMRAM   BANK5   BANK6   BANK7   BANK8   BANK9  BANK10  BANK11  BANK12  BANK13  BANK14  BANK15  BANK1
      +6  BANK17  BANK18  BANK19  BANK20  BANK21  BANK22  BANK23  BANK24  BANK25  BANK26  BANK27  BANK28  BANK29  BANK30  BANK3
      +1  BANK32  BANK33  BANK34  BANK35  BANK36  BANK37
  4900 ;;      Params:         0       0       0       0       0       0       0       0       0       0       0       0       
      +0       0       0       0       0       0       0       0       0       0       0       0       0       0       0       
      +0       0       0       0       0       0       0
  4901 ;;      Locals:         0       0       0       0       0       0       0       0       0       0       0       0       
      +0       0       0       0       0       0       0       0       0       0       0       0       0       0       0       
      +0       0       0       0       0       0       0
  4902 ;;      Temps:          0       0       0       0       0       0       0       0       0       0       0       0       
      +0       0       0       0       0       0       0       0       0       0       0       0       0       0       0       
      +0       0       0       0       0       0       0
  4903 ;;      Totals:         0       0       0       0       0       0       0       0       0       0       0       0       
      +0       0       0       0       0       0       0       0       0       0       0       0       0       0       0       
      +0       0       0       0       0       0       0
  4904 ;;Total ram usage:        0 bytes
  4905 ;; Hardware stack levels used:    1
  4906 ;; This function calls:
  4907 ;;		Nothing
  4908 ;; This function is called by:
  4909 ;;		_CAN1_ErrorNotificationInterruptEnable
  4910 ;;		_CAN1_ISR
  4911 ;; This function uses a non-reentrant model
  4912 ;;
  4913                           
  4914                           	psect	text49
  4915  00348C                     __ptext49:
  4916                           	callstack 0
  4917  00348C                     _DefaultSystemErrorHandler:
  4918                           	callstack 121
  4919  00348C  0012               	return		;funcret
  4920  00348E                     __end_of_DefaultSystemErrorHandler:
  4921                           	callstack 0
  4922                           
  4923 ;; *************** function _DefaultRxBufferOverflowHandler *****************
  4924 ;; Defined at:
  4925 ;;		line 147 in file "mcc_generated_files/can1.c"
  4926 ;; Parameters:    Size  Location     Type
  4927 ;;		None
  4928 ;; Auto vars:     Size  Location     Type
  4929 ;;		None
  4930 ;; Return value:  Size  Location     Type
  4931 ;;                  1    wreg      void 
  4932 ;; Registers used:
  4933 ;;		None
  4934 ;; Tracked objects:
  4935 ;;		On entry : 0/0
  4936 ;;		On exit  : 0/0
  4937 ;;		Unchanged: 0/0
  4938 ;; Data sizes:     COMRAM   BANK5   BANK6   BANK7   BANK8   BANK9  BANK10  BANK11  BANK12  BANK13  BANK14  BANK15  BANK1
      +6  BANK17  BANK18  BANK19  BANK20  BANK21  BANK22  BANK23  BANK24  BANK25  BANK26  BANK27  BANK28  BANK29  BANK30  BANK3
      +1  BANK32  BANK33  BANK34  BANK35  BANK36  BANK37
  4939 ;;      Params:         0       0       0       0       0       0       0       0       0       0       0       0       
      +0       0       0       0       0       0       0       0       0       0       0       0       0       0       0       
      +0       0       0       0       0       0       0
  4940 ;;      Locals:         0       0       0       0       0       0       0       0       0       0       0       0       
      +0       0       0       0       0       0       0       0       0       0       0       0       0       0       0       
      +0       0       0       0       0       0       0
  4941 ;;      Temps:          0       0       0       0       0       0       0       0       0       0       0       0       
      +0       0       0       0       0       0       0       0       0       0       0       0       0       0       0       
      +0       0       0       0       0       0       0
  4942 ;;      Totals:         0       0       0       0       0       0       0       0       0       0       0       0       
      +0       0       0       0       0       0       0       0       0       0       0       0       0       0       0       
      +0       0       0       0       0       0       0
  4943 ;;Total ram usage:        0 bytes
  4944 ;; Hardware stack levels used:    1
  4945 ;; This function calls:
  4946 ;;		Nothing
  4947 ;; This function is called by:
  4948 ;;		_CAN1_ErrorNotificationInterruptEnable
  4949 ;;		_CAN1_ISR
  4950 ;; This function uses a non-reentrant model
  4951 ;;
  4952                           
  4953                           	psect	text50
  4954  00348E                     __ptext50:
  4955                           	callstack 0
  4956  00348E                     _DefaultRxBufferOverflowHandler:
  4957                           	callstack 121
  4958  00348E  0012               	return		;funcret
  4959  003490                     __end_of_DefaultRxBufferOverflowHandler:
  4960                           	callstack 0
  4961                           
  4962 ;; *************** function _DefaultModeChangeHandler *****************
  4963 ;; Defined at:
  4964 ;;		line 135 in file "mcc_generated_files/can1.c"
  4965 ;; Parameters:    Size  Location     Type
  4966 ;;		None
  4967 ;; Auto vars:     Size  Location     Type
  4968 ;;		None
  4969 ;; Return value:  Size  Location     Type
  4970 ;;                  1    wreg      void 
  4971 ;; Registers used:
  4972 ;;		None
  4973 ;; Tracked objects:
  4974 ;;		On entry : 0/0
  4975 ;;		On exit  : 0/0
  4976 ;;		Unchanged: 0/0
  4977 ;; Data sizes:     COMRAM   BANK5   BANK6   BANK7   BANK8   BANK9  BANK10  BANK11  BANK12  BANK13  BANK14  BANK15  BANK1
      +6  BANK17  BANK18  BANK19  BANK20  BANK21  BANK22  BANK23  BANK24  BANK25  BANK26  BANK27  BANK28  BANK29  BANK30  BANK3
      +1  BANK32  BANK33  BANK34  BANK35  BANK36  BANK37
  4978 ;;      Params:         0       0       0       0       0       0       0       0       0       0       0       0       
      +0       0       0       0       0       0       0       0       0       0       0       0       0       0       0       
      +0       0       0       0       0       0       0
  4979 ;;      Locals:         0       0       0       0       0       0       0       0       0       0       0       0       
      +0       0       0       0       0       0       0       0       0       0       0       0       0       0       0       
      +0       0       0       0       0       0       0
  4980 ;;      Temps:          0       0       0       0       0       0       0       0       0       0       0       0       
      +0       0       0       0       0       0       0       0       0       0       0       0       0       0       0       
      +0       0       0       0       0       0       0
  4981 ;;      Totals:         0       0       0       0       0       0       0       0       0       0       0       0       
      +0       0       0       0       0       0       0       0       0       0       0       0       0       0       0       
      +0       0       0       0       0       0       0
  4982 ;;Total ram usage:        0 bytes
  4983 ;; Hardware stack levels used:    1
  4984 ;; This function calls:
  4985 ;;		Nothing
  4986 ;; This function is called by:
  4987 ;;		_CAN1_ErrorNotificationInterruptEnable
  4988 ;;		_CAN1_ISR
  4989 ;; This function uses a non-reentrant model
  4990 ;;
  4991                           
  4992                           	psect	text51
  4993  003490                     __ptext51:
  4994                           	callstack 0
  4995  003490                     _DefaultModeChangeHandler:
  4996                           	callstack 121
  4997  003490  0012               	return		;funcret
  4998  003492                     __end_of_DefaultModeChangeHandler:
  4999                           	callstack 0
  5000                           
  5001 ;; *************** function _DefaultInvalidMessageHandler *****************
  5002 ;; Defined at:
  5003 ;;		line 123 in file "mcc_generated_files/can1.c"
  5004 ;; Parameters:    Size  Location     Type
  5005 ;;		None
  5006 ;; Auto vars:     Size  Location     Type
  5007 ;;		None
  5008 ;; Return value:  Size  Location     Type
  5009 ;;                  1    wreg      void 
  5010 ;; Registers used:
  5011 ;;		None
  5012 ;; Tracked objects:
  5013 ;;		On entry : 0/0
  5014 ;;		On exit  : 0/0
  5015 ;;		Unchanged: 0/0
  5016 ;; Data sizes:     COMRAM   BANK5   BANK6   BANK7   BANK8   BANK9  BANK10  BANK11  BANK12  BANK13  BANK14  BANK15  BANK1
      +6  BANK17  BANK18  BANK19  BANK20  BANK21  BANK22  BANK23  BANK24  BANK25  BANK26  BANK27  BANK28  BANK29  BANK30  BANK3
      +1  BANK32  BANK33  BANK34  BANK35  BANK36  BANK37
  5017 ;;      Params:         0       0       0       0       0       0       0       0       0       0       0       0       
      +0       0       0       0       0       0       0       0       0       0       0       0       0       0       0       
      +0       0       0       0       0       0       0
  5018 ;;      Locals:         0       0       0       0       0       0       0       0       0       0       0       0       
      +0       0       0       0       0       0       0       0       0       0       0       0       0       0       0       
      +0       0       0       0       0       0       0
  5019 ;;      Temps:          0       0       0       0       0       0       0       0       0       0       0       0       
      +0       0       0       0       0       0       0       0       0       0       0       0       0       0       0       
      +0       0       0       0       0       0       0
  5020 ;;      Totals:         0       0       0       0       0       0       0       0       0       0       0       0       
      +0       0       0       0       0       0       0       0       0       0       0       0       0       0       0       
      +0       0       0       0       0       0       0
  5021 ;;Total ram usage:        0 bytes
  5022 ;; Hardware stack levels used:    1
  5023 ;; This function calls:
  5024 ;;		Nothing
  5025 ;; This function is called by:
  5026 ;;		_CAN1_ErrorNotificationInterruptEnable
  5027 ;;		_CAN1_ISR
  5028 ;; This function uses a non-reentrant model
  5029 ;;
  5030                           
  5031                           	psect	text52
  5032  003492                     __ptext52:
  5033                           	callstack 0
  5034  003492                     _DefaultInvalidMessageHandler:
  5035                           	callstack 121
  5036  003492  0012               	return		;funcret
  5037  003494                     __end_of_DefaultInvalidMessageHandler:
  5038                           	callstack 0
  5039                           
  5040 ;; *************** function _DefaultBusWakeUpActivityHandler *****************
  5041 ;; Defined at:
  5042 ;;		line 127 in file "mcc_generated_files/can1.c"
  5043 ;; Parameters:    Size  Location     Type
  5044 ;;		None
  5045 ;; Auto vars:     Size  Location     Type
  5046 ;;		None
  5047 ;; Return value:  Size  Location     Type
  5048 ;;                  1    wreg      void 
  5049 ;; Registers used:
  5050 ;;		None
  5051 ;; Tracked objects:
  5052 ;;		On entry : 0/0
  5053 ;;		On exit  : 0/0
  5054 ;;		Unchanged: 0/0
  5055 ;; Data sizes:     COMRAM   BANK5   BANK6   BANK7   BANK8   BANK9  BANK10  BANK11  BANK12  BANK13  BANK14  BANK15  BANK1
      +6  BANK17  BANK18  BANK19  BANK20  BANK21  BANK22  BANK23  BANK24  BANK25  BANK26  BANK27  BANK28  BANK29  BANK30  BANK3
      +1  BANK32  BANK33  BANK34  BANK35  BANK36  BANK37
  5056 ;;      Params:         0       0       0       0       0       0       0       0       0       0       0       0       
      +0       0       0       0       0       0       0       0       0       0       0       0       0       0       0       
      +0       0       0       0       0       0       0
  5057 ;;      Locals:         0       0       0       0       0       0       0       0       0       0       0       0       
      +0       0       0       0       0       0       0       0       0       0       0       0       0       0       0       
      +0       0       0       0       0       0       0
  5058 ;;      Temps:          0       0       0       0       0       0       0       0       0       0       0       0       
      +0       0       0       0       0       0       0       0       0       0       0       0       0       0       0       
      +0       0       0       0       0       0       0
  5059 ;;      Totals:         0       0       0       0       0       0       0       0       0       0       0       0       
      +0       0       0       0       0       0       0       0       0       0       0       0       0       0       0       
      +0       0       0       0       0       0       0
  5060 ;;Total ram usage:        0 bytes
  5061 ;; Hardware stack levels used:    1
  5062 ;; This function calls:
  5063 ;;		Nothing
  5064 ;; This function is called by:
  5065 ;;		_CAN1_ErrorNotificationInterruptEnable
  5066 ;;		_CAN1_ISR
  5067 ;; This function uses a non-reentrant model
  5068 ;;
  5069                           
  5070                           	psect	text53
  5071  003494                     __ptext53:
  5072                           	callstack 0
  5073  003494                     _DefaultBusWakeUpActivityHandler:
  5074                           	callstack 121
  5075  003494  0012               	return		;funcret
  5076  003496                     __end_of_DefaultBusWakeUpActivityHandler:
  5077                           	callstack 0
  5078                           
  5079 ;; *************** function _DefaultBusErrorHandler *****************
  5080 ;; Defined at:
  5081 ;;		line 131 in file "mcc_generated_files/can1.c"
  5082 ;; Parameters:    Size  Location     Type
  5083 ;;		None
  5084 ;; Auto vars:     Size  Location     Type
  5085 ;;		None
  5086 ;; Return value:  Size  Location     Type
  5087 ;;                  1    wreg      void 
  5088 ;; Registers used:
  5089 ;;		None
  5090 ;; Tracked objects:
  5091 ;;		On entry : 0/0
  5092 ;;		On exit  : 0/0
  5093 ;;		Unchanged: 0/0
  5094 ;; Data sizes:     COMRAM   BANK5   BANK6   BANK7   BANK8   BANK9  BANK10  BANK11  BANK12  BANK13  BANK14  BANK15  BANK1
      +6  BANK17  BANK18  BANK19  BANK20  BANK21  BANK22  BANK23  BANK24  BANK25  BANK26  BANK27  BANK28  BANK29  BANK30  BANK3
      +1  BANK32  BANK33  BANK34  BANK35  BANK36  BANK37
  5095 ;;      Params:         0       0       0       0       0       0       0       0       0       0       0       0       
      +0       0       0       0       0       0       0       0       0       0       0       0       0       0       0       
      +0       0       0       0       0       0       0
  5096 ;;      Locals:         0       0       0       0       0       0       0       0       0       0       0       0       
      +0       0       0       0       0       0       0       0       0       0       0       0       0       0       0       
      +0       0       0       0       0       0       0
  5097 ;;      Temps:          0       0       0       0       0       0       0       0       0       0       0       0       
      +0       0       0       0       0       0       0       0       0       0       0       0       0       0       0       
      +0       0       0       0       0       0       0
  5098 ;;      Totals:         0       0       0       0       0       0       0       0       0       0       0       0       
      +0       0       0       0       0       0       0       0       0       0       0       0       0       0       0       
      +0       0       0       0       0       0       0
  5099 ;;Total ram usage:        0 bytes
  5100 ;; Hardware stack levels used:    1
  5101 ;; This function calls:
  5102 ;;		Nothing
  5103 ;; This function is called by:
  5104 ;;		_CAN1_ErrorNotificationInterruptEnable
  5105 ;;		_CAN1_ISR
  5106 ;; This function uses a non-reentrant model
  5107 ;;
  5108                           
  5109                           	psect	text54
  5110  003496                     __ptext54:
  5111                           	callstack 0
  5112  003496                     _DefaultBusErrorHandler:
  5113                           	callstack 121
  5114  003496  0012               	return		;funcret
  5115  003498                     __end_of_DefaultBusErrorHandler:
  5116                           	callstack 0
  5117                           
  5118                           ;
  5119                           ; Interrupt Vector Table @ 0x8
  5120                           ;
  5121                           
  5122                           	psect	ivt0x8
  5123  000008                     __pivt0x8:
  5124                           	callstack 0
  5125  000008                     ivt0x8_base:
  5126                           	callstack 0
  5127                           
  5128                           ; high-priority vector
  5129  000008  EF4B  F016         	goto	_INTERRUPT_InterruptManager
  5130  000018                     	org	16
  5131                           
  5132                           ; low-priority vector
  5133  000018  00FF               	reset	
  5134                           
  5135                           	psect	text55
  5136  000000                     __ptext55:
  5137                           	callstack 0
  5138  000000                     
  5139                           	psect	rparam
  5140  0000                     
  5141                           	psect	idloc
  5142                           
  5143                           ;Config register IDLOC0 @ 0x200000
  5144                           ;	unspecified, using default values
  5145  200000                     	org	2097152
  5146  200000  0FFF               	dw	4095
  5147                           
  5148                           ;Config register IDLOC1 @ 0x200002
  5149                           ;	unspecified, using default values
  5150  200002                     	org	2097154
  5151  200002  0FFF               	dw	4095
  5152                           
  5153                           ;Config register IDLOC2 @ 0x200004
  5154                           ;	unspecified, using default values
  5155  200004                     	org	2097156
  5156  200004  0FFF               	dw	4095
  5157                           
  5158                           ;Config register IDLOC3 @ 0x200006
  5159                           ;	unspecified, using default values
  5160  200006                     	org	2097158
  5161  200006  0FFF               	dw	4095
  5162                           
  5163                           ;Config register IDLOC4 @ 0x200008
  5164                           ;	unspecified, using default values
  5165  200008                     	org	2097160
  5166  200008  0FFF               	dw	4095
  5167                           
  5168                           ;Config register IDLOC5 @ 0x20000A
  5169                           ;	unspecified, using default values
  5170  20000A                     	org	2097162
  5171  20000A  0FFF               	dw	4095
  5172                           
  5173                           ;Config register IDLOC6 @ 0x20000C
  5174                           ;	unspecified, using default values
  5175  20000C                     	org	2097164
  5176  20000C  0FFF               	dw	4095
  5177                           
  5178                           ;Config register IDLOC7 @ 0x20000E
  5179                           ;	unspecified, using default values
  5180  20000E                     	org	2097166
  5181  20000E  0FFF               	dw	4095
  5182                           
  5183                           ;Config register IDLOC8 @ 0x200010
  5184                           ;	unspecified, using default values
  5185  200010                     	org	2097168
  5186  200010  0FFF               	dw	4095
  5187                           
  5188                           ;Config register IDLOC9 @ 0x200012
  5189                           ;	unspecified, using default values
  5190  200012                     	org	2097170
  5191  200012  0FFF               	dw	4095
  5192                           
  5193                           ;Config register IDLOC10 @ 0x200014
  5194                           ;	unspecified, using default values
  5195  200014                     	org	2097172
  5196  200014  0FFF               	dw	4095
  5197                           
  5198                           ;Config register IDLOC11 @ 0x200016
  5199                           ;	unspecified, using default values
  5200  200016                     	org	2097174
  5201  200016  0FFF               	dw	4095
  5202                           
  5203                           ;Config register IDLOC12 @ 0x200018
  5204                           ;	unspecified, using default values
  5205  200018                     	org	2097176
  5206  200018  0FFF               	dw	4095
  5207                           
  5208                           ;Config register IDLOC13 @ 0x20001A
  5209                           ;	unspecified, using default values
  5210  20001A                     	org	2097178
  5211  20001A  0FFF               	dw	4095
  5212                           
  5213                           ;Config register IDLOC14 @ 0x20001C
  5214                           ;	unspecified, using default values
  5215  20001C                     	org	2097180
  5216  20001C  0FFF               	dw	4095
  5217                           
  5218                           ;Config register IDLOC15 @ 0x20001E
  5219                           ;	unspecified, using default values
  5220  20001E                     	org	2097182
  5221  20001E  0FFF               	dw	4095
  5222                           
  5223                           	psect	config
  5224                           
  5225                           ;Config register CONFIG1 @ 0x300000
  5226                           ;	External Oscillator Selection
  5227                           ;	FEXTOSC = HS, HS (crystal oscillator) above 8 MHz
  5228                           ;	Reset Oscillator Selection
  5229                           ;	RSTOSC = EXTOSC, EXTOSC operating per FEXTOSC bits (device manufacturing default)
  5230  300000                     	org	3145728
  5231  300000  FA                 	db	250
  5232                           
  5233                           ;Config register CONFIG2 @ 0x300001
  5234                           ;	Clock out Enable bit
  5235                           ;	CLKOUTEN = OFF, CLKOUT function is disabled
  5236                           ;	PRLOCKED One-Way Set Enable bit
  5237                           ;	PR1WAY = ON, PRLOCKED bit can be cleared and set only once
  5238                           ;	Clock Switch Enable bit
  5239                           ;	CSWEN = ON, Writing to NOSC and NDIV is allowed
  5240                           ;	JTAG Enable bit
  5241                           ;	JTAGEN = OFF, Disable JTAG Boundary Scan mode, JTAG pins revert to user functions
  5242                           ;	Fail-Safe Clock Monitor Enable bit
  5243                           ;	FCMEN = ON, Fail-Safe Clock Monitor enabled
  5244                           ;	Fail-Safe Clock Monitor -Primary XTAL Enable bit
  5245                           ;	FCMENP = ON, FSCM timer will set FSCMP bit and OSFIF interrupt on Primary XTAL failure
  5246                           ;	Fail-Safe Clock Monitor -Secondary XTAL Enable bit
  5247                           ;	FCMENS = ON, FSCM timer will set FSCMS bit and OSFIF interrupt on Secondary XTAL failu
      +                          re
  5248  300001                     	org	3145729
  5249  300001  EF                 	db	239
  5250                           
  5251                           ;Config register CONFIG3 @ 0x300002
  5252                           ;	MCLR Enable bit
  5253                           ;	MCLRE = EXTMCLR, If LVP = 0, MCLR pin is MCLR; If LVP = 1, RE3 pin function is MCLR
  5254                           ;	Power-up timer selection bits
  5255                           ;	PWRTS = PWRT_OFF, PWRT is disabled
  5256                           ;	Multi-vector enable bit
  5257                           ;	MVECEN = OFF, Interrupt contoller does not use vector table to prioritze interrupts
  5258                           ;	IVTLOCK bit One-way set enable bit
  5259                           ;	IVT1WAY = ON, IVTLOCKED bit can be cleared and set only once
  5260                           ;	Low Power BOR Enable bit
  5261                           ;	LPBOREN = OFF, Low-Power BOR disabled
  5262                           ;	Brown-out Reset Enable bits
  5263                           ;	BOREN = SBORDIS, Brown-out Reset enabled , SBOREN bit is ignored
  5264  300002                     	org	3145730
  5265  300002  F7                 	db	247
  5266                           
  5267                           ;Config register CONFIG4 @ 0x300003
  5268                           ;	Brown-out Reset Voltage Selection bits
  5269                           ;	BORV = VBOR_1P9, Brown-out Reset Voltage (VBOR) set to 1.9V
  5270                           ;	ZCD Disable bit
  5271                           ;	ZCD = OFF, ZCD module is disabled. ZCD can be enabled by setting the ZCDSEN bit of ZCD
      +                          CON
  5272                           ;	PPSLOCK bit One-Way Set Enable bit
  5273                           ;	PPS1WAY = ON, PPSLOCKED bit can be cleared and set only once; PPS registers remain loc
      +                          ked after one clear/set cycle
  5274                           ;	Stack Full/Underflow Reset Enable bit
  5275                           ;	STVREN = ON, Stack full/underflow will cause Reset
  5276                           ;	Low Voltage Programming Enable bit
  5277                           ;	LVP = OFF, HV on MCLR/VPP must be used for programming
  5278                           ;	Extended Instruction Set Enable bit
  5279                           ;	XINST = OFF, Extended Instruction Set and Indexed Addressing Mode disabled
  5280  300003                     	org	3145731
  5281  300003  DF                 	db	223
  5282                           
  5283                           ;Config register CONFIG5 @ 0x300004
  5284                           ;	WDT Period selection bits
  5285                           ;	WDTCPS = WDTCPS_31, Divider ratio 1:65536; software control of WDTPS
  5286                           ;	WDT operating mode
  5287                           ;	WDTE = OFF, WDT Disabled; SWDTEN is ignored
  5288  300004                     	org	3145732
  5289  300004  9F                 	db	159
  5290                           
  5291                           ;Config register CONFIG6 @ 0x300005
  5292                           ;	WDT Window Select bits
  5293                           ;	WDTCWS = WDTCWS_7, window always open (100%); software control; keyed access not requi
      +                          red
  5294                           ;	WDT input clock selector
  5295                           ;	WDTCCS = SC, Software Control
  5296  300005                     	org	3145733
  5297  300005  FF                 	db	255
  5298                           
  5299                           ;Config register CONFIG7 @ 0x300006
  5300                           ;	Boot Block Size selection bits
  5301                           ;	BBSIZE = BBSIZE_512, Boot Block size is 512 words
  5302                           ;	Boot Block enable bit
  5303                           ;	BBEN = OFF, Boot block disabled
  5304                           ;	Storage Area Flash enable bit
  5305                           ;	SAFEN = OFF, SAF disabled
  5306  300006                     	org	3145734
  5307  300006  FF                 	db	255
  5308                           
  5309                           ;Config register CONFIG8 @ 0x300007
  5310                           ;	Boot Block Write Protection bit
  5311                           ;	WRTB = OFF, Boot Block not Write protected
  5312                           ;	Configuration Register Write Protection bit
  5313                           ;	WRTC = OFF, Configuration registers not Write protected
  5314                           ;	Data EEPROM Write Protection bit
  5315                           ;	WRTD = OFF, Data EEPROM not Write protected
  5316                           ;	SAF Write protection bit
  5317                           ;	WRTSAF = OFF, SAF not Write Protected
  5318                           ;	Application Block write protection bit
  5319                           ;	WRTAPP = OFF, Application Block not write protected
  5320  300007                     	org	3145735
  5321  300007  FF                 	db	255
  5322                           
  5323                           ;Config register CONFIG9 @ 0x300008
  5324                           ;	CRC on boot output pin selection
  5325                           ;	BOOTPINSEL = RC5, CRC on boot output pin is RC5
  5326                           ;	CRC on boot output pin enable bit
  5327                           ;	BPEN = OFF, CRC on boot output pin disabled
  5328                           ;	CRC on boot output pin open drain bit
  5329                           ;	ODCON = OFF, Pin drives both high-going and low-going signals
  5330  300008                     	org	3145736
  5331  300008  FF                 	db	255
  5332                           
  5333                           ;Config register CONFIG10 @ 0x300009
  5334                           ;	PFM and Data EEPROM Code Protection bit
  5335                           ;	CP = OFF, PFM and Data EEPROM code protection disabled
  5336  300009                     	org	3145737
  5337  300009  FF                 	db	255
  5338                           
  5339                           ;Config register CONFIG11 @ 0x30000A
  5340                           ;	CRC on boot scan enable for boot area
  5341                           ;	BOOTSCEN = OFF, CRC on boot will not include the boot area of program memory in its ca
      +                          lculation
  5342                           ;	CRC on boot Continue on Error for boot areas bit
  5343                           ;	BOOTCOE = HALT, CRC on boot will stop device if error is detected in boot areas
  5344                           ;	CRC on boot application code scan enable
  5345                           ;	APPSCEN = OFF, CRC on boot will not include the application area of program memory in 
      +                          its calculation
  5346                           ;	CRC on boot SAF area scan enable
  5347                           ;	SAFSCEN = OFF, CRC on boot will not include the SAF area of program memory in its calc
      +                          ulation
  5348                           ;	CRC on boot Data EEPROM scan enable
  5349                           ;	DATASCEN = OFF, CRC on boot will not include data EEPROM in its calculation
  5350                           ;	CRC on boot Config fuses scan enable
  5351                           ;	CFGSCEN = OFF, CRC on boot will not include the configuration fuses in its calculation
  5352                           ;	CRC on boot Continue on Error for non-boot areas bit
  5353                           ;	COE = HALT, CRC on boot will stop device if error is detected in non-boot areas
  5354                           ;	Boot on CRC Enable bit
  5355                           ;	BOOTPOR = OFF, CRC on boot will not run
  5356  30000A                     	org	3145738
  5357  30000A  FF                 	db	255
  5358                           
  5359                           ;Config register CONFIG12 @ 0x30000B
  5360                           ;	Boot Sector Polynomial for CRC on boot bits 31-24
  5361                           ;	BCRCPOLT = hFF, Bits 31:24 of BCRCPOL are 0xFF
  5362  30000B                     	org	3145739
  5363  30000B  FF                 	db	255
  5364                           
  5365                           ;Config register CONFIG13 @ 0x30000C
  5366                           ;	Boot Sector Polynomial for CRC on boot bits 23-16
  5367                           ;	BCRCPOLU = hFF, Bits 23:16 of BCRCPOL are 0xFF
  5368  30000C                     	org	3145740
  5369  30000C  FF                 	db	255
  5370                           
  5371                           ;Config register CONFIG14 @ 0x30000D
  5372                           ;	Boot Sector Polynomial for CRC on boot bits 15-8
  5373                           ;	BCRCPOLH = hFF, Bits 15:8 of BCRCPOL are 0xFF
  5374  30000D                     	org	3145741
  5375  30000D  FF                 	db	255
  5376                           
  5377                           ;Config register CONFIG15 @ 0x30000E
  5378                           ;	Boot Sector Polynomial for CRC on boot bits 7-0
  5379                           ;	BCRCPOLL = hFF, Bits 7:0 of BCRCPOL are 0xFF
  5380  30000E                     	org	3145742
  5381  30000E  FF                 	db	255
  5382                           
  5383                           ;Config register CONFIG16 @ 0x30000F
  5384                           ;	Boot Sector Seed for CRC on boot bits 31-24
  5385                           ;	BCRCSEEDT = hFF, Bits 31:24 of BCRCSEED are 0xFF
  5386  30000F                     	org	3145743
  5387  30000F  FF                 	db	255
  5388                           
  5389                           ;Config register CONFIG17 @ 0x300010
  5390                           ;	Boot Sector Seed for CRC on boot bits 23-16
  5391                           ;	BCRCSEEDU = hFF, Bits 23:16 of BCRCSEED are 0xFF
  5392  300010                     	org	3145744
  5393  300010  FF                 	db	255
  5394                           
  5395                           ;Config register CONFIG18 @ 0x300011
  5396                           ;	Boot Sector Seed for CRC on boot bits 15-8
  5397                           ;	BCRCSEEDH = hFF, Bits 15:8 of BCRCSEED are 0xFF
  5398  300011                     	org	3145745
  5399  300011  FF                 	db	255
  5400                           
  5401                           ;Config register CONFIG19 @ 0x300012
  5402                           ;	Boot Sector Seed for CRC on boot bits 7-0
  5403                           ;	BCRCSEEDL = hFF, Bits 7:0 of BCRCSEED are 0xFF
  5404  300012                     	org	3145746
  5405  300012  FF                 	db	255
  5406                           
  5407                           ;Config register CONFIG20 @ 0x300013
  5408                           ;	unspecified, using default values
  5409                           ;	Boot Sector Expected Result for CRC on boot bits 31-24
  5410                           ;	BCRCEREST = 0xFF, unprogrammed default
  5411  300013                     	org	3145747
  5412  300013  FF                 	db	255
  5413                           
  5414                           ;Config register CONFIG21 @ 0x300014
  5415                           ;	unspecified, using default values
  5416                           ;	Boot Sector Expected Result for CRC on boot bits 23-16
  5417                           ;	BCRCERESU = 0xFF, unprogrammed default
  5418  300014                     	org	3145748
  5419  300014  FF                 	db	255
  5420                           
  5421                           ;Config register CONFIG22 @ 0x300015
  5422                           ;	unspecified, using default values
  5423                           ;	Boot Sector Expected Result for CRC on boot bits 15-8
  5424                           ;	BCRCERESH = 0xFF, unprogrammed default
  5425  300015                     	org	3145749
  5426  300015  FF                 	db	255
  5427                           
  5428                           ;Config register CONFIG23 @ 0x300016
  5429                           ;	unspecified, using default values
  5430                           ;	Boot Sector Expected Result for CRC on boot bits 7-0
  5431                           ;	BCRCERESL = 0xFF, unprogrammed default
  5432  300016                     	org	3145750
  5433  300016  FF                 	db	255
  5434                           
  5435                           ;Config register CONFIG24 @ 0x300017
  5436                           ;	Non-Boot Sector Polynomial for CRC on boot bits 31-24
  5437                           ;	CRCPOLT = hFF, Bits 31:24 of CRCPOL are 0xFF
  5438  300017                     	org	3145751
  5439  300017  FF                 	db	255
  5440                           
  5441                           ;Config register CONFIG25 @ 0x300018
  5442                           ;	Non-Boot Sector Polynomial for CRC on boot bits 23-16
  5443                           ;	CRCPOLU = hFF, Bits 23:16 of CRCPOL are 0xFF
  5444  300018                     	org	3145752
  5445  300018  FF                 	db	255
  5446                           
  5447                           ;Config register CONFIG26 @ 0x300019
  5448                           ;	Non-Boot Sector Polynomial for CRC on boot bits 15-8
  5449                           ;	CRCPOLH = hFF, Bits 15:8 of CRCPOL are 0xFF
  5450  300019                     	org	3145753
  5451  300019  FF                 	db	255
  5452                           
  5453                           ;Config register CONFIG27 @ 0x30001A
  5454                           ;	Non-Boot Sector Polynomial for CRC on boot bits 7-0
  5455                           ;	CRCPOLL = hFF, Bits 7:0 of CRCPOL are 0xFF
  5456  30001A                     	org	3145754
  5457  30001A  FF                 	db	255
  5458                           
  5459                           ;Config register CONFIG28 @ 0x30001B
  5460                           ;	Non-Boot Sector Seed for CRC on boot bits 31-24
  5461                           ;	CRCSEEDT = hFF, Bits 31:24 of CRCSEED are 0xFF
  5462  30001B                     	org	3145755
  5463  30001B  FF                 	db	255
  5464                           
  5465                           ;Config register CONFIG29 @ 0x30001C
  5466                           ;	Non-Boot Sector Seed for CRC on boot bits 23-16
  5467                           ;	CRCSEEDU = hFF, Bits 23:16 of CRCSEED are 0xFF
  5468  30001C                     	org	3145756
  5469  30001C  FF                 	db	255
  5470                           
  5471                           ;Config register CONFIG30 @ 0x30001D
  5472                           ;	Non-Boot Sector Seed for CRC on boot bits 15-8
  5473                           ;	CRCSEEDH = hFF, Bits 15:8 of CRCSEED are 0xFF
  5474  30001D                     	org	3145757
  5475  30001D  FF                 	db	255
  5476                           
  5477                           ;Config register CONFIG31 @ 0x30001E
  5478                           ;	Non-Boot Sector Seed for CRC on boot bits 7-0
  5479                           ;	CRCSEEDL = hFF, Bits 7:0 of CRCSEED are 0xFF
  5480  30001E                     	org	3145758
  5481  30001E  FF                 	db	255
  5482                           
  5483                           ;Config register CONFIG32 @ 0x30001F
  5484                           ;	unspecified, using default values
  5485                           ;	Non-Boot Sector Expected Result for CRC on boot bits 31-24
  5486                           ;	CRCEREST = 0xFF, unprogrammed default
  5487  30001F                     	org	3145759
  5488  30001F  FF                 	db	255
  5489                           
  5490                           ;Config register CONFIG33 @ 0x300020
  5491                           ;	unspecified, using default values
  5492                           ;	Non-Boot Sector Expected Result for CRC on boot bits 23-16
  5493                           ;	CRCERESU = 0xFF, unprogrammed default
  5494  300020                     	org	3145760
  5495  300020  FF                 	db	255
  5496                           
  5497                           ;Config register CONFIG34 @ 0x300021
  5498                           ;	unspecified, using default values
  5499                           ;	Non-Boot Sector Expected Result for CRC on boot bits 15-8
  5500                           ;	CRCERESH = 0xFF, unprogrammed default
  5501  300021                     	org	3145761
  5502  300021  FF                 	db	255
  5503                           
  5504                           ;Config register CONFIG35 @ 0x300022
  5505                           ;	unspecified, using default values
  5506                           ;	Non-Boot Sector Expected Result for CRC on boot bits 7-0
  5507                           ;	CRCERESL = 0xFF, unprogrammed default
  5508  300022                     	org	3145762
  5509  300022  FF                 	db	255
  5510                           
  5511                           ; Padding undefined space
  5512  300023                     	org	3145763
  5513  300023  FF                 	db	255
  5514                           tosu	equ	0x4FF
  5515                           tosh	equ	0x4FE
  5516                           tosl	equ	0x4FD
  5517                           stkptr	equ	0x4FC
  5518                           pclatu	equ	0x4FB
  5519                           pclath	equ	0x4FA
  5520                           pcl	equ	0x4F9
  5521                           tblptru	equ	0x4F8
  5522                           tblptrh	equ	0x4F7
  5523                           tblptrl	equ	0x4F6
  5524                           tablat	equ	0x4F5
  5525                           prodh	equ	0x4F4
  5526                           prodl	equ	0x4F3
  5527                           indf0	equ	0x4EF
  5528                           postinc0	equ	0x4EE
  5529                           postdec0	equ	0x4ED
  5530                           preinc0	equ	0x4EC
  5531                           plusw0	equ	0x4EB
  5532                           fsr0h	equ	0x4EA
  5533                           fsr0l	equ	0x4E9
  5534                           wreg	equ	0x4E8
  5535                           indf1	equ	0x4E7
  5536                           postinc1	equ	0x4E6
  5537                           postdec1	equ	0x4E5
  5538                           preinc1	equ	0x4E4
  5539                           plusw1	equ	0x4E3
  5540                           fsr1h	equ	0x4E2
  5541                           fsr1l	equ	0x4E1
  5542                           bsr	equ	0x4E0
  5543                           indf2	equ	0x4DF
  5544                           postinc2	equ	0x4DE
  5545                           postdec2	equ	0x4DD
  5546                           preinc2	equ	0x4DC
  5547                           plusw2	equ	0x4DB
  5548                           fsr2h	equ	0x4DA
  5549                           fsr2l	equ	0x4D9
  5550                           status	equ	0x4D8

Data Sizes:
    Strings     0
    Constant    11
    Data        2
    BSS         53
    Persistent  6
    Stack       0

Auto Spaces:
    Space          Size  Autos    Used
    COMRAM           95     59      92
    BANK5           160      5      33
    BANK6           256      0       0
    BANK7           256      0       0
    BANK8           256      0       0
    BANK9           256      0       0
    BANK10          256      0       0
    BANK11          256      0       0
    BANK12          256      0       0
    BANK13          256      0       0
    BANK14          256      0       0
    BANK15          256      0       0
    BANK16          256      0       0
    BANK17          256      0       0
    BANK18          256      0       0
    BANK19          256      0       0
    BANK20          256      0       0
    BANK21          256      0       0
    BANK22          256      0       0
    BANK23          256      0       0
    BANK24          256      0       0
    BANK25          256      0       0
    BANK26          256      0       0
    BANK27          256      0       0
    BANK28          256      0       0
    BANK29          256      0       0
    BANK30          256      0       0
    BANK31          256      0       0
    BANK32          256      0       0
    BANK33          256      0       0
    BANK34          256      0       0
    BANK35          256      0       0
    BANK36          256      0       0
    BANK37          256      0       0

Pointer List with Targets:

    memcpy@d1	PTR void  size(2) Largest target is 9727
		 -> RAM(DATA[9727]), rxMsgData(BANK5[8]), 

    memcpy@d	PTR unsigned char  size(2) Largest target is 9727
		 -> RAM(DATA[9727]), rxMsgData(BANK5[8]), 

    memcpy@s1	PTR const void  size(2) Largest target is 9727
		 -> CANDATAdata(COMRAM[8]), RAM(DATA[9727]), rxMsgData(BANK5[8]), 

    memcpy@s	PTR const unsigned char  size(2) Largest target is 9727
		 -> CANDATAdata(COMRAM[8]), RAM(DATA[9727]), rxMsgData(BANK5[8]), 

    TMR0_SetInterruptHandler@InterruptHandler	PTR FTN()void  size(2) Largest target is 1
		 -> TMR0_DefaultInterruptHandler(), 

    TMR0_InterruptHandler	PTR FTN()void  size(2) Largest target is 1
		 -> TMR0_DefaultInterruptHandler(), Absolute function(), 

    TMR1_SetInterruptHandler@InterruptHandler	PTR FTN()void  size(2) Largest target is 1
		 -> TMR1_DefaultInterruptHandler(), 

    TMR1_InterruptHandler	PTR FTN()void  size(2) Largest target is 1
		 -> Absolute function(), TMR1_DefaultInterruptHandler(), 

    CAN1_SetFIFO1NotEmptyHandler@handler	PTR FTN()void  size(2) Largest target is 1
		 -> DefaultFIFO1NotEmptyHandler(), 

    CAN1_FIFO1NotEmptyHandler	PTR FTN()void  size(2) Largest target is 1
		 -> Absolute function(), DefaultFIFO1NotEmptyHandler(), 

    CAN1_SetRxBufferOverFlowInterruptHandler@handler	PTR FTN()void  size(2) Largest target is 1
		 -> DefaultRxBufferOverflowHandler(), 

    CAN1_RxBufferOverflowHandler	PTR FTN()void  size(2) Largest target is 1
		 -> Absolute function(), DefaultRxBufferOverflowHandler(), 

    CAN1_SetTxAttemptInterruptHandler@handler	PTR FTN()void  size(2) Largest target is 1
		 -> DefaultTxAttemptHandler(), 

    CAN1_TxAttemptHandler	PTR FTN()void  size(2) Largest target is 1
		 -> Absolute function(), DefaultTxAttemptHandler(), 

    CAN1_SetSystemErrorInterruptHandler@handler	PTR FTN()void  size(2) Largest target is 1
		 -> DefaultSystemErrorHandler(), 

    CAN1_SystemErrorHandler	PTR FTN()void  size(2) Largest target is 1
		 -> Absolute function(), DefaultSystemErrorHandler(), 

    CAN1_SetModeChangeInterruptHandler@handler	PTR FTN()void  size(2) Largest target is 1
		 -> DefaultModeChangeHandler(), 

    CAN1_ModeChangeHandler	PTR FTN()void  size(2) Largest target is 1
		 -> Absolute function(), DefaultModeChangeHandler(), 

    CAN1_SetBusErrorInterruptHandler@handler	PTR FTN()void  size(2) Largest target is 1
		 -> DefaultBusErrorHandler(), 

    CAN1_BusErrorHandler	PTR FTN()void  size(2) Largest target is 1
		 -> Absolute function(), DefaultBusErrorHandler(), 

    CAN1_SetBusWakeUpActivityInterruptHandler@handler	PTR FTN()void  size(2) Largest target is 1
		 -> DefaultBusWakeUpActivityHandler(), 

    CAN1_BusWakeUpActivityHandler	PTR FTN()void  size(2) Largest target is 1
		 -> Absolute function(), DefaultBusWakeUpActivityHandler(), 

    CAN1_SetInvalidMessageInterruptHandler@handler	PTR FTN()void  size(2) Largest target is 1
		 -> DefaultInvalidMessageHandler(), 

    CAN1_InvalidMessageHandler	PTR FTN()void  size(2) Largest target is 1
		 -> Absolute function(), DefaultInvalidMessageHandler(), 

    ValidateTransmission@txCanMsg.data	PTR unsigned char  size(2) Largest target is 8
		 -> CANDATAdata(COMRAM[8]), rxMsgData(BANK5[8]), 

    WriteMessageToFifo@txCanMsg.data	PTR unsigned char  size(2) Largest target is 8
		 -> CANDATAdata(COMRAM[8]), rxMsgData(BANK5[8]), 

    CAN1_Receive@rxCanMsg	PTR struct . size(2) Largest target is 8
		 -> msgReceipt(COMRAM[7]), 

    Receive@rxCanMsg	PTR struct . size(2) Largest target is 8
		 -> msgReceipt(COMRAM[7]), 

    Receive@rxFifoObj	PTR unsigned char  size(2) Largest target is 9727
		 -> RAM(DATA[9727]), 

    sp__memcpy	PTR void  size(2) Largest target is 9727
		 -> RAM(DATA[9727]), rxMsgData(BANK5[8]), 

    ReadMessageFromFifo@rxCanMsg.data	PTR unsigned char  size(2) Largest target is 8
		 -> CANDATAdata(COMRAM[8]), rxMsgData(BANK5[8]), 

    ReadMessageFromFifo@rxCanMsg	PTR struct . size(2) Largest target is 8
		 -> msgReceipt(COMRAM[7]), 

    ReadMessageFromFifo@rxFifoObj	PTR unsigned char  size(2) Largest target is 9727
		 -> RAM(DATA[9727]), 

    FIFO	const PTR volatile struct CAN_FIFOREG size(2) Largest target is 1
		 -> C1TXQCONL(SFR_1[1]), 

    msgReceipt.data	PTR unsigned char  size(2) Largest target is 8
		 -> CANDATAdata(COMRAM[8]), rxMsgData(BANK5[8]), 

    S33$data	PTR unsigned char  size(2) Largest target is 8
		 -> CANDATAdata(COMRAM[8]), rxMsgData(BANK5[8]), 

    msgTransmit.data	PTR unsigned char  size(2) Largest target is 8
		 -> CANDATAdata(COMRAM[8]), rxMsgData(BANK5[8]), 


Critical Paths under _main in COMRAM

    None.

Critical Paths under _INTERRUPT_InterruptManager in COMRAM

    _TMR1_ISR->_TMR1_WriteTimer
    _TMR0_ISR->_SPEAKER
    _CAN1_RXI_ISR->_CANReadMessage
    _CANReadMessage->_CAN1_Receive
    _CAN1_ReceivedMessageCountGet->_GetRxFifoDepth
    _CAN1_Receive->_Receive
    _Receive->_ReadMessageFromFifo
    _ReadMessageFromFifo->_memcpy

Critical Paths under _main in BANK5

    _SYSTEM_Initialize->_TMR1_Initialize
    _TMR1_Initialize->_TMR1_SetInterruptHandler
    _TMR0_Initialize->_TMR0_SetInterruptHandler
    _CAN1_Initialize->_CAN1_OperationModeSet
    _CAN1_RX_FIFO_Configuration->_CAN1_SetFIFO1NotEmptyHandler
    _CAN1_ErrorNotificationInterruptEnable->_CAN1_SetBusErrorInterruptHandler
    _CAN1_ErrorNotificationInterruptEnable->_CAN1_SetBusWakeUpActivityInterruptHandler
    _CAN1_ErrorNotificationInterruptEnable->_CAN1_SetInvalidMessageInterruptHandler
    _CAN1_ErrorNotificationInterruptEnable->_CAN1_SetModeChangeInterruptHandler
    _CAN1_ErrorNotificationInterruptEnable->_CAN1_SetRxBufferOverFlowInterruptHandler
    _CAN1_ErrorNotificationInterruptEnable->_CAN1_SetSystemErrorInterruptHandler
    _CAN1_ErrorNotificationInterruptEnable->_CAN1_SetTxAttemptInterruptHandler

Critical Paths under _INTERRUPT_InterruptManager in BANK5

    None.

Critical Paths under _main in BANK6

    None.

Critical Paths under _INTERRUPT_InterruptManager in BANK6

    None.

Critical Paths under _main in BANK7

    None.

Critical Paths under _INTERRUPT_InterruptManager in BANK7

    None.

Critical Paths under _main in BANK8

    None.

Critical Paths under _INTERRUPT_InterruptManager in BANK8

    None.

Critical Paths under _main in BANK9

    None.

Critical Paths under _INTERRUPT_InterruptManager in BANK9

    None.

Critical Paths under _main in BANK10

    None.

Critical Paths under _INTERRUPT_InterruptManager in BANK10

    None.

Critical Paths under _main in BANK11

    None.

Critical Paths under _INTERRUPT_InterruptManager in BANK11

    None.

Critical Paths under _main in BANK12

    None.

Critical Paths under _INTERRUPT_InterruptManager in BANK12

    None.

Critical Paths under _main in BANK13

    None.

Critical Paths under _INTERRUPT_InterruptManager in BANK13

    None.

Critical Paths under _main in BANK14

    None.

Critical Paths under _INTERRUPT_InterruptManager in BANK14

    None.

Critical Paths under _main in BANK15

    None.

Critical Paths under _INTERRUPT_InterruptManager in BANK15

    None.

Critical Paths under _main in BANK16

    None.

Critical Paths under _INTERRUPT_InterruptManager in BANK16

    None.

Critical Paths under _main in BANK17

    None.

Critical Paths under _INTERRUPT_InterruptManager in BANK17

    None.

Critical Paths under _main in BANK18

    None.

Critical Paths under _INTERRUPT_InterruptManager in BANK18

    None.

Critical Paths under _main in BANK19

    None.

Critical Paths under _INTERRUPT_InterruptManager in BANK19

    None.

Critical Paths under _main in BANK20

    None.

Critical Paths under _INTERRUPT_InterruptManager in BANK20

    None.

Critical Paths under _main in BANK21

    None.

Critical Paths under _INTERRUPT_InterruptManager in BANK21

    None.

Critical Paths under _main in BANK22

    None.

Critical Paths under _INTERRUPT_InterruptManager in BANK22

    None.

Critical Paths under _main in BANK23

    None.

Critical Paths under _INTERRUPT_InterruptManager in BANK23

    None.

Critical Paths under _main in BANK24

    None.

Critical Paths under _INTERRUPT_InterruptManager in BANK24

    None.

Critical Paths under _main in BANK25

    None.

Critical Paths under _INTERRUPT_InterruptManager in BANK25

    None.

Critical Paths under _main in BANK26

    None.

Critical Paths under _INTERRUPT_InterruptManager in BANK26

    None.

Critical Paths under _main in BANK27

    None.

Critical Paths under _INTERRUPT_InterruptManager in BANK27

    None.

Critical Paths under _main in BANK28

    None.

Critical Paths under _INTERRUPT_InterruptManager in BANK28

    None.

Critical Paths under _main in BANK29

    None.

Critical Paths under _INTERRUPT_InterruptManager in BANK29

    None.

Critical Paths under _main in BANK30

    None.

Critical Paths under _INTERRUPT_InterruptManager in BANK30

    None.

Critical Paths under _main in BANK31

    None.

Critical Paths under _INTERRUPT_InterruptManager in BANK31

    None.

Critical Paths under _main in BANK32

    None.

Critical Paths under _INTERRUPT_InterruptManager in BANK32

    None.

Critical Paths under _main in BANK33

    None.

Critical Paths under _INTERRUPT_InterruptManager in BANK33

    None.

Critical Paths under _main in BANK34

    None.

Critical Paths under _INTERRUPT_InterruptManager in BANK34

    None.

Critical Paths under _main in BANK35

    None.

Critical Paths under _INTERRUPT_InterruptManager in BANK35

    None.

Critical Paths under _main in BANK36

    None.

Critical Paths under _INTERRUPT_InterruptManager in BANK36

    None.

Critical Paths under _main in BANK37

    None.

Critical Paths under _INTERRUPT_InterruptManager in BANK37

    None.

Call Graph Tables:

 ---------------------------------------------------------------------------------
 (Depth) Function   	        Calls       Base Space   Used Autos Params    Refs
 ---------------------------------------------------------------------------------
 (0) _main                                                 1     1      0    1662
                                              4 BANK5      1     1      0
                 _DELAY_milliseconds
                  _SYSTEM_Initialize
 ---------------------------------------------------------------------------------
 (1) _SYSTEM_Initialize                                    0     0      0    1184
                    _CAN1_Initialize
               _INTERRUPT_Initialize
              _OSCILLATOR_Initialize
             _PIN_MANAGER_Initialize
                     _PMD_Initialize
                    _TMR0_Initialize
                    _TMR1_Initialize
 ---------------------------------------------------------------------------------
 (2) _TMR1_Initialize                                      2     2      0      98
                                              2 BANK5      2     2      0
           _TMR1_SetInterruptHandler
 ---------------------------------------------------------------------------------
 (3) _TMR1_SetInterruptHandler                             2     0      2      98
                                              0 BANK5      2     0      2
 ---------------------------------------------------------------------------------
 (2) _TMR0_Initialize                                      0     0      0      98
           _TMR0_SetInterruptHandler
 ---------------------------------------------------------------------------------
 (3) _TMR0_SetInterruptHandler                             2     0      2      98
                                              0 BANK5      2     0      2
 ---------------------------------------------------------------------------------
 (2) _PMD_Initialize                                       0     0      0       0
 ---------------------------------------------------------------------------------
 (2) _PIN_MANAGER_Initialize                               0     0      0       0
 ---------------------------------------------------------------------------------
 (2) _OSCILLATOR_Initialize                                0     0      0       0
 ---------------------------------------------------------------------------------
 (2) _INTERRUPT_Initialize                                 0     0      0       0
 ---------------------------------------------------------------------------------
 (2) _CAN1_Initialize                                      0     0      0     988
          _CAN1_BitRateConfiguration
_CAN1_ErrorNotificationInterruptEnab
              _CAN1_OperationModeSet
         _CAN1_RX_FIFO_Configuration
_CAN1_RX_FIFO_FilterMaskConfiguratio
             _CAN1_RX_FIFO_ResetInfo
         _CAN1_TX_FIFO_Configuration
 ---------------------------------------------------------------------------------
 (3) _CAN1_TX_FIFO_Configuration                           0     0      0       0
 ---------------------------------------------------------------------------------
 (3) _CAN1_RX_FIFO_ResetInfo                               1     1      0      68
                                              0 BANK5      1     1      0
 ---------------------------------------------------------------------------------
 (3) _CAN1_RX_FIFO_FilterMaskConfiguration                 0     0      0       0
 ---------------------------------------------------------------------------------
 (3) _CAN1_RX_FIFO_Configuration                           0     0      0      98
       _CAN1_SetFIFO1NotEmptyHandler
 ---------------------------------------------------------------------------------
 (4) _CAN1_SetFIFO1NotEmptyHandler                         2     0      2      98
                                              0 BANK5      2     0      2
 ---------------------------------------------------------------------------------
 (3) _CAN1_OperationModeSet                                3     3      0     136
                                              0 BANK5      3     3      0
              _CAN1_OperationModeGet
 ---------------------------------------------------------------------------------
 (4) _CAN1_OperationModeGet                                0     0      0       0
 ---------------------------------------------------------------------------------
 (3) _CAN1_ErrorNotificationInterruptEnable                0     0      0     686
   _CAN1_SetBusErrorInterruptHandler
_CAN1_SetBusWakeUpActivityInterruptH
_CAN1_SetInvalidMessageInterruptHand
 _CAN1_SetModeChangeInterruptHandler
_CAN1_SetRxBufferOverFlowInterruptHa
_CAN1_SetSystemErrorInterruptHandler
  _CAN1_SetTxAttemptInterruptHandler
 ---------------------------------------------------------------------------------
 (4) _CAN1_SetTxAttemptInterruptHandler                    2     0      2      98
                                              0 BANK5      2     0      2
 ---------------------------------------------------------------------------------
 (4) _CAN1_SetSystemErrorInterruptHandler                  2     0      2      98
                                              0 BANK5      2     0      2
 ---------------------------------------------------------------------------------
 (4) _CAN1_SetRxBufferOverFlowInterruptHandler             2     0      2      98
                                              0 BANK5      2     0      2
 ---------------------------------------------------------------------------------
 (4) _CAN1_SetModeChangeInterruptHandler                   2     0      2      98
                                              0 BANK5      2     0      2
 ---------------------------------------------------------------------------------
 (4) _CAN1_SetInvalidMessageInterruptHandler               2     0      2      98
                                              0 BANK5      2     0      2
 ---------------------------------------------------------------------------------
 (4) _CAN1_SetBusWakeUpActivityInterruptHandler            2     0      2      98
                                              0 BANK5      2     0      2
 ---------------------------------------------------------------------------------
 (4) _CAN1_SetBusErrorInterruptHandler                     2     0      2      98
                                              0 BANK5      2     0      2
 ---------------------------------------------------------------------------------
 (3) _CAN1_BitRateConfiguration                            0     0      0       0
 ---------------------------------------------------------------------------------
 (1) _DELAY_milliseconds                                   3     1      2     478
                                              0 BANK5      3     1      2
 ---------------------------------------------------------------------------------
 Estimated maximum stack depth 4
 ---------------------------------------------------------------------------------
 (Depth) Function   	        Calls       Base Space   Used Autos Params    Refs
 ---------------------------------------------------------------------------------
 (5) _INTERRUPT_InterruptManager                           4     4      0    2998
                                             55 COMRAM     4     4      0
                           _CAN1_ISR
                       _CAN1_RXI_ISR
                           _TMR0_ISR
                           _TMR1_ISR
 ---------------------------------------------------------------------------------
 (6) _TMR1_ISR                                             0     0      0     240
                      _TMR1_CallBack
                    _TMR1_WriteTimer
 ---------------------------------------------------------------------------------
 (7) _TMR1_WriteTimer                                      2     0      2     240
                                              0 COMRAM     2     0      2
 ---------------------------------------------------------------------------------
 (7) _TMR1_CallBack                                        0     0      0       0
                   Absolute function *
       _TMR1_DefaultInterruptHandler *
 ---------------------------------------------------------------------------------
 (8) _TMR1_DefaultInterruptHandler                         0     0      0       0
 ---------------------------------------------------------------------------------
 (6) _TMR0_ISR                                             0     0      0       0
                            _SPEAKER
                      _TMR0_CallBack
 ---------------------------------------------------------------------------------
 (7) _TMR0_CallBack                                        0     0      0       0
                   Absolute function *
       _TMR0_DefaultInterruptHandler *
 ---------------------------------------------------------------------------------
 (8) _TMR0_DefaultInterruptHandler                         0     0      0       0
 ---------------------------------------------------------------------------------
 (7) _SPEAKER                                              1     1      0       0
                                              0 COMRAM     1     1      0
 ---------------------------------------------------------------------------------
 (6) _CAN1_RXI_ISR                                         0     0      0    2758
                   Absolute function *
                     _CANReadMessage
        _DefaultFIFO1NotEmptyHandler *
 ---------------------------------------------------------------------------------
 (7) _DefaultFIFO1NotEmptyHandler                          0     0      0       0
 ---------------------------------------------------------------------------------
 (7) _CANReadMessage                                      18    18      0    2758
                                             37 COMRAM    18    18      0
                       _CAN1_Receive
       _CAN1_ReceivedMessageCountGet
 ---------------------------------------------------------------------------------
 (8) _CAN1_ReceivedMessageCountGet                         8     8      0     541
                                              2 COMRAM     8     8      0
                     _GetRxFifoDepth
                    _GetRxFifoStatus
 ---------------------------------------------------------------------------------
 (8) _CAN1_Receive                                         4     2      2    2162
                                             33 COMRAM     4     2      2
                            _Receive
 ---------------------------------------------------------------------------------
 (9) _Receive                                             10     7      3    1928
                                             23 COMRAM    10     7      3
                     _GetRxFifoDepth
                    _GetRxFifoStatus
                _ReadMessageFromFifo
 ---------------------------------------------------------------------------------
 (10) _ReadMessageFromFifo                                12     8      4    1268
                                             11 COMRAM    12     8      4
                             _memcpy
 ---------------------------------------------------------------------------------
 (11) _memcpy                                             11     5      6     599
                                              0 COMRAM    11     5      6
 ---------------------------------------------------------------------------------
 (9) _GetRxFifoStatus                                      1     1      0      22
                                              0 COMRAM     1     1      0
 ---------------------------------------------------------------------------------
 (9) _GetRxFifoDepth                                       2     2      0      22
                                              0 COMRAM     2     2      0
 ---------------------------------------------------------------------------------
 (6) _CAN1_ISR                                             0     0      0       0
                   Absolute function *
             _DefaultBusErrorHandler *
    _DefaultBusWakeUpActivityHandler *
       _DefaultInvalidMessageHandler *
           _DefaultModeChangeHandler *
     _DefaultRxBufferOverflowHandler *
          _DefaultSystemErrorHandler *
            _DefaultTxAttemptHandler *
 ---------------------------------------------------------------------------------
 (7) _DefaultTxAttemptHandler                              0     0      0       0
 ---------------------------------------------------------------------------------
 (7) _DefaultSystemErrorHandler                            0     0      0       0
 ---------------------------------------------------------------------------------
 (7) _DefaultRxBufferOverflowHandler                       0     0      0       0
 ---------------------------------------------------------------------------------
 (7) _DefaultModeChangeHandler                             0     0      0       0
 ---------------------------------------------------------------------------------
 (7) _DefaultInvalidMessageHandler                         0     0      0       0
 ---------------------------------------------------------------------------------
 (7) _DefaultBusWakeUpActivityHandler                      0     0      0       0
 ---------------------------------------------------------------------------------
 (7) _DefaultBusErrorHandler                               0     0      0       0
 ---------------------------------------------------------------------------------
 (8) Absolute function(Fake)                               0     0      0       0
 ---------------------------------------------------------------------------------
 Estimated maximum stack depth 11
 ---------------------------------------------------------------------------------

 Call Graph Graphs:

 _main (ROOT)
   _DELAY_milliseconds
   _SYSTEM_Initialize
     _CAN1_Initialize
       _CAN1_BitRateConfiguration
       _CAN1_ErrorNotificationInterruptEnable
         _CAN1_SetBusErrorInterruptHandler
         _CAN1_SetBusWakeUpActivityInterruptHandler
         _CAN1_SetInvalidMessageInterruptHandler
         _CAN1_SetModeChangeInterruptHandler
         _CAN1_SetRxBufferOverFlowInterruptHandler
         _CAN1_SetSystemErrorInterruptHandler
         _CAN1_SetTxAttemptInterruptHandler
       _CAN1_OperationModeSet
         _CAN1_OperationModeGet
       _CAN1_RX_FIFO_Configuration
         _CAN1_SetFIFO1NotEmptyHandler
       _CAN1_RX_FIFO_FilterMaskConfiguration
       _CAN1_RX_FIFO_ResetInfo
       _CAN1_TX_FIFO_Configuration
     _INTERRUPT_Initialize
     _OSCILLATOR_Initialize
     _PIN_MANAGER_Initialize
     _PMD_Initialize
     _TMR0_Initialize
       _TMR0_SetInterruptHandler
     _TMR1_Initialize
       _TMR1_SetInterruptHandler

 _INTERRUPT_InterruptManager (ROOT)
   _CAN1_ISR
     Absolute function(Fake) *
     _DefaultBusErrorHandler *
     _DefaultBusWakeUpActivityHandler *
     _DefaultInvalidMessageHandler *
     _DefaultModeChangeHandler *
     _DefaultRxBufferOverflowHandler *
     _DefaultSystemErrorHandler *
     _DefaultTxAttemptHandler *
   _CAN1_RXI_ISR
     Absolute function(Fake) *
     _CANReadMessage *
       _CAN1_Receive
         _Receive
           _GetRxFifoDepth
           _GetRxFifoStatus
           _ReadMessageFromFifo
             _memcpy
       _CAN1_ReceivedMessageCountGet
         _GetRxFifoDepth
         _GetRxFifoStatus
     _DefaultFIFO1NotEmptyHandler *
   _TMR0_ISR
     _SPEAKER
     _TMR0_CallBack
       Absolute function(Fake) *
       _TMR0_DefaultInterruptHandler *
   _TMR1_ISR
     _TMR1_CallBack
       Absolute function(Fake) *
       _TMR1_DefaultInterruptHandler *
     _TMR1_WriteTimer

 Address spaces:
Name               Size   Autos  Total    Cost      Usage
BIGRAM            20FF      0       0      71        0.0%
EEDATA             400      0       0       0        0.0%
BITBANK37          100      0       0      70        0.0%
BANK37             100      0       0      68        0.0%
BITBANK36          100      0       0      66        0.0%
BANK36             100      0       0      67        0.0%
BITBANK35          100      0       0      64        0.0%
BANK35             100      0       0      65        0.0%
BITBANK34          100      0       0      62        0.0%
BANK34             100      0       0      63        0.0%
BITBANK33          100      0       0      60        0.0%
BANK33             100      0       0      61        0.0%
BITBANK32          100      0       0      58        0.0%
BANK32             100      0       0      59        0.0%
BITBANK31          100      0       0      56        0.0%
BANK31             100      0       0      57        0.0%
BITBANK30          100      0       0      54        0.0%
BANK30             100      0       0      55        0.0%
BITBANK29          100      0       0      52        0.0%
BANK29             100      0       0      53        0.0%
BITBANK28          100      0       0      50        0.0%
BANK28             100      0       0      51        0.0%
BITBANK27          100      0       0      48        0.0%
BANK27             100      0       0      49        0.0%
BITBANK26          100      0       0      46        0.0%
BANK26             100      0       0      47        0.0%
BITBANK25          100      0       0      44        0.0%
BANK25             100      0       0      45        0.0%
BITBANK24          100      0       0      42        0.0%
BANK24             100      0       0      43        0.0%
BITBANK23          100      0       0      40        0.0%
BANK23             100      0       0      41        0.0%
BITBANK22          100      0       0      38        0.0%
BANK22             100      0       0      39        0.0%
BITBANK21          100      0       0      36        0.0%
BANK21             100      0       0      37        0.0%
BITBANK20          100      0       0      34        0.0%
BANK20             100      0       0      35        0.0%
BITBANK19          100      0       0      32        0.0%
BANK19             100      0       0      33        0.0%
BITBANK18          100      0       0      30        0.0%
BANK18             100      0       0      31        0.0%
BITBANK17          100      0       0      28        0.0%
BANK17             100      0       0      29        0.0%
BITBANK16          100      0       0      26        0.0%
BANK16             100      0       0      27        0.0%
BITBANK15          100      0       0      24        0.0%
BANK15             100      0       0      25        0.0%
BITBANK14          100      0       0      22        0.0%
BANK14             100      0       0      23        0.0%
BITBANK13          100      0       0      20        0.0%
BANK13             100      0       0      21        0.0%
BITBANK12          100      0       0      18        0.0%
BANK12             100      0       0      19        0.0%
BITBANK11          100      0       0      16        0.0%
BANK11             100      0       0      17        0.0%
BITBANK10          100      0       0      14        0.0%
BANK10             100      0       0      15        0.0%
BITBANK9           100      0       0      12        0.0%
BANK9              100      0       0      13        0.0%
BITBANK8           100      0       0      10        0.0%
BANK8              100      0       0      11        0.0%
BITBANK7           100      0       0       8        0.0%
BANK7              100      0       0       9        0.0%
BITBANK6           100      0       0       6        0.0%
BANK6              100      0       0       7        0.0%
BITBANK5            A0      0       0       4        0.0%
BANK5               A0      5      21       5       20.6%
BITCOMRAM           5F      0       0       0        0.0%
COMRAM              5F     3B      5C       1       96.8%
BITSFR_5             0      0       0     200        0.0%
SFR_5                0      0       0     200        0.0%
BITSFR_4             0      0       0     200        0.0%
SFR_4                0      0       0     200        0.0%
BITSFR_3             0      0       0     200        0.0%
SFR_3                0      0       0     200        0.0%
BITSFR_2             0      0       0     200        0.0%
SFR_2                0      0       0     200        0.0%
BITSFR_1             0      0       0     200        0.0%
SFR_1                0      0       0     200        0.0%
BITSFR               0      0       0     200        0.0%
SFR                  0      0       0     200        0.0%
STACK                0      0       0       2        0.0%
NULL                 0      0       0       0        0.0%
ABS                  0      0      7D      69        0.0%
DATA                 0      0      7D       3        0.0%
CODE                 0      0       0       0        0.0%


Microchip Technology PIC18 Macro Assembler V2.30 build 20200825195618 
Symbol Table                                                                                   Wed Nov 10 20:25:08 2021

                             __size_of_CAN1_Receive 0052                                                 l300 343E  
                                               l303 3452                                                 l151 3244  
                                               l160 33F8                                                 l154 3326  
                                               l170 3090                                                 l163 340C  
                                               l180 2EAC                                                 l412 3172  
                                               l181 2EAE                                                 l157 3482  
                                               l166 2F28                                                 l318 342A  
                                               l184 3434                                                 l177 2E72  
                                               l522 334E                                                 l291 347A  
                                               l371 3396                                                 l612 2F84  
                                               l285 3466                                                 l294 345C  
                                               l374 33CC                                                 l623 3216  
                                               l288 3470                                                 l448 3416  
                                               l297 3448                                                 l377 3376  
                                               l554 3420                                                 l476 347E  
                        __end_of_DELAY_milliseconds 3218                                     _timer1ReloadVal 055B  
                          ?_DefaultTxAttemptHandler 0501                             __size_of_PMD_Initialize 0028  
                                               prod 0004F3                                     ?_CANReadMessage 0501  
                                               tosl 0004FD                                                 wreg 0004E8  
                        _CAN1_InvalidMessageHandler 056C                                                l2400 3324  
                                              l2410 2F14                                                l2402 33E6  
                                              l2404 33FA                                                l2340 3454  
                                              l2412 2F1A                                                l2420 2E1C  
                                              l2332 3422                                                l2500 303E  
                                              l2334 345E                                                l2342 3440  
                                              l2414 2F1E                                                l2406 2EB0  
                                              l2430 2E5E                                                l2422 2E22  
                                              l2510 307E                                                l2502 3054  
                                              l2336 3468                                                l2344 3436  
                                              l2416 2F22                                                l2408 2F12  
                                              l2432 2E82                                                l2424 2E2A  
                                              l2512 3082                                                l2504 3072  
                                              l2338 3472                                                l2346 344A  
                                              l2418 2F26                                                l2434 2E8C  
                                              l2426 2E3C                                                l2514 3086  
                                              l2506 3076                   CAN1_ReceivedMessageCountGet@index 050A  
                                              l2348 342C                                                l2436 2EA8  
                                              l2428 2E4C                                                l2516 308A  
                                              l2508 307A                                                l2390 3234  
                                              l2382 3218                                                l2392 32FE  
                                              l2640 2F2A                                                l2394 3310  
                                              l2386 321E                                                l2650 2F6C  
                                              l2642 2F3A                                                l2396 331E  
                                              l2388 3232                                                l2636 347C  
                                              l2660 33B6                                                l2652 2F6E  
                                              l2644 2F44                                                l2900 2ACC  
                                              l2822 31E4                                                l2398 3322  
                                              l2654 2F70                                                l2646 2F4C  
                                              l2638 3350                                                l2494 340E  
                                              l2670 3160                                                l2662 312C  
                                              l2824 31E8                                                l2656 2F72  
                                              l2648 2F6A                                                l2496 3418  
                                              l2680 333A                                                l2672 316C  
                                              l2664 3142                                                l2826 31FA  
                                              l2498 303A                                                l2658 2F74  
                                              l2682 3348                                                l2674 3328  
                                              l2666 3144                                                l2676 3336  
                                              l2668 315E                                                l2780 337C  
                                              l2678 3338                                                l2790 338E  
                                              l2782 337E                                                l2870 29AA  
                                              l2792 3392                                                l2784 3382  
                                              l2880 29CC                                                l2872 29AC  
                                              l2786 3386                                                l2778 3378  
                                              l2890 2A30                                                l2882 29CE  
                                              l2874 29BA                                                l2866 29A4  
                                              l2788 338A                                                l2892 2A54  
                                              l2884 29DC                                                l2876 29BC  
                                              l2868 29A8                                                l2894 2A78  
                                              l2886 2A00                                                l2878 29CA  
                                              l2896 2A84                                                l2888 2A24  
                                              l2898 2AA8                                                _FIFO 260A  
                                              u2000 3216                                                u2001 3212  
                                              u2110 29EC                                                u2111 29E6  
                                              u2120 2A10                                                u2121 2A0A  
                                              u2130 2A40                                                u2131 2A3A  
                                              u1340 3244                                                u2140 2A64  
                                              u2116 29EE                                                u1341 3240  
                                              u2141 2A5E                                                _LATA 0004BE  
                                              u1350 2E3C                                                u2150 2A94  
                                              u2126 2A12                                                _LATB 0004BF  
                                              u1351 2E38                                                u2151 2A8E  
                                              _LATC 0004C0                                                u1360 2E4C  
                                              u2160 2AB8                                                u2136 2A42  
                                              u1361 2E48                                                u2161 2AB2  
                                              u1370 2E5E                                                u2146 2A66  
                                              u2227 31F0                                                u1371 2E5A  
                                              u1380 2E82                                                u2156 2A96  
                                              u1381 2E7E                                                u1390 2EA4  
                                              u1470 3054                                                u2166 2ABA  
                                              u1391 2EA0                                                u1471 3050  
                                      _CAN1_RXI_ISR 32D0                                                _PMD0 000060  
                                              _PMD1 000061                                                _PMD2 000062  
                                              _PMD3 000063                                                _PMD4 000064  
                                              _PMD5 000065                                                _PMD6 000066  
                                              _PMD7 000067                                                _PMD8 000068  
                                              _WPUA 000401                                                _WPUB 000409  
                                              _WPUC 000411                                                _WPUE 000421  
                           __size_of_GetRxFifoDepth 001E                                     __end_of_SPEAKER 31AE  
                                  __end_of_CAN1_ISR 29A4           __end_of_CAN1_SetTxAttemptInterruptHandler 3440  
        __size_of_CAN1_SetTxAttemptInterruptHandler 000A                 ??_CAN1_SetTxAttemptInterruptHandler 0578  
                ?_CAN1_SetTxAttemptInterruptHandler 0576                   _CAN1_SetTxAttemptInterruptHandler 3436  
                                              _main 29A4                                                fsr2h 0004DA  
                                              indf2 0004DF                                                fsr2l 0004D9  
                                              prodl 0004F3                                                start 001A  
                                      _CAN1_Receive 3092                          ??_TMR1_SetInterruptHandler 0578  
                                      ___param_bank 000000                __end_of_DefaultInvalidMessageHandler 3494  
             __size_of_DefaultInvalidMessageHandler 0002                        _DefaultInvalidMessageHandler 3492  
        CAN1_SetSystemErrorInterruptHandler@handler 0576                                     __end_of_Receive 2BCC  
               CAN1_SetFIFO1NotEmptyHandler@handler 0576                             __end_of_TMR0_Initialize 3350  
                    ??_TMR0_DefaultInterruptHandler 0501                      __size_of_OSCILLATOR_Initialize 0018  
                     __end_of_OSCILLATOR_Initialize 33CE                                               ?_main 0501  
          __end_of_CAN1_SetBusErrorInterruptHandler 347C           __size_of_CAN1_SetBusErrorInterruptHandler 000A  
                ??_CAN1_SetBusErrorInterruptHandler 0578                   ?_CAN1_SetBusErrorInterruptHandler 0576  
                                             _T1CLK 000321                    _CAN1_SetBusErrorInterruptHandler 3472  
                                             _T1CON 00031E                                               i2l201 2BCA  
                                             i2l131 3494                                               i2l140 348C  
                                             i2l125 3488                                               i2l134 3496  
                                             i2l143 348A                                               i2l311 2966  
                                             i2l207 30E2                                               i2l128 3492  
                                             i2l137 3490                                               i2l313 29A0  
                                             i2l225 2C94                                               i2l146 348E  
                                             i2l322 32FC                                               i2l315 29A2  
                                             i2l190 33E4                                               i2l441 31E2  
                                             i2l194 284C                                               i2l426 3272  
                                             i2l187 33B4                                               i2l451 3484  
                                             i2l445 32A0                                               i2l551 32CE  
                                             i2l481 2CD2                                               i2l547 2FDE  
                                             i2l483 2CF6                                               i2l484 2D3E  
                                             i2l557 3486                                               i2l485 2D1A  
                                             i2l489 2D3E                                               i2l771 2DB8  
                                             i2l772 2E16                                               i2l765 2E16  
                                             i2l686 31AC                                               _OSCEN 0000B3  
                                             _TMR0H 000319                                               _TMR1H 00031D  
                                             _TMR0L 000318                                               _TMR1L 00031C  
                                             _TRISA 0004C6                                               _TRISB 0004C7  
                                             _TRISC 0004C8                                               _TRISE 0004CA  
                      __size_of_ReadMessageFromFifo 0240                            ??_DefaultBusErrorHandler 0501  
                 __size_of_TMR0_SetInterruptHandler 000A                           ?_TMR0_SetInterruptHandler 0576  
                               CANReadMessage@data1 0537                            __size_of_CAN1_Initialize 0058  
                                  __end_of_TMR0_ISR 2FE0                                    __end_of_TMR1_ISR 31E4  
                          __size_of_GetRxFifoStatus 0018                             __end_of_TMR1_Initialize 3174  
                                             pclath 0004FA                                               tablat 0004F5  
                                             plusw2 0004DB                         GetRxFifoStatus@validChannel 0501  
                                             status 0004D8            CAN1_SetTxAttemptInterruptHandler@handler 0576  
                          ReadMessageFromFifo@msgId 0513                                     _TMR1_WriteTimer 3246  
                      ??_CAN1_TX_FIFO_Configuration 0576                                        __end_of_FIFO 260C  
                                   __initialization 30E4                                   __end_of_DLC_BYTES 260A  
           CAN1_ReceivedMessageCountGet@rxMsgStatus 0505                                        __end_of_main 2AE0  
                       CAN1_RX_FIFO_ResetInfo@index 0576                     __end_of_DefaultTxAttemptHandler 348C  
                       ?_INTERRUPT_InterruptManager 0501                     fp__DefaultInvalidMessageHandler 0000  
                     ?_DefaultInvalidMessageHandler 0501                 __end_of_DefaultFIFO1NotEmptyHandler 348A  
                       _DefaultFIFO1NotEmptyHandler 3488                                     Receive@rxCanMsg 0519  
                                            ??_main 057A                                       __activetblptr 000003  
    __end_of_CAN1_SetInvalidMessageInterruptHandler 3468     __size_of_CAN1_SetInvalidMessageInterruptHandler 000A  
          ??_CAN1_SetInvalidMessageInterruptHandler 0578             ?_CAN1_SetInvalidMessageInterruptHandler 0576  
            _CAN1_SetInvalidMessageInterruptHandler 345E                                           ??_SPEAKER 0501  
                                            _C1CONH 000101                                              _C1CONL 000100  
                                            _C1CONU 000102                                              _C1INTH 00011D  
                                            _C1INTL 00011C                                              _C1INTT 00011F  
                                            _C1INTU 00011E                   __size_of_DefaultModeChangeHandler 0002  
     CAN1_SetInvalidMessageInterruptHandler@handler 0576                           ?_DefaultModeChangeHandler 0501  
               __size_of_CAN1_TX_FIFO_Configuration 0014                                              _ANSELA 000400  
                                            _ANSELB 000408                                              _ANSELC 000410  
                                            _T0CON0 00031A                                              _T0CON1 00031B  
                                            _T1GATE 000320                   fp__DefaultRxBufferOverflowHandler 0000  
                  ??_DefaultRxBufferOverflowHandler 0501                     ?_DefaultRxBufferOverflowHandler 0501  
                                            _T1GCON 00031F                                              _RB4PPS 00020D  
                           TMR1_WriteTimer@timerVal 0501                                              _ODCONA 000402  
                                            _ODCONB 00040A                                              _ODCONC 000412  
                                            i2l2300 2666                                              i2l2310 271C  
                                            i2l2302 2692                                              i2l2320 2782  
                                            i2l2312 2730                                              i2l2304 26C0  
                                            i2l2330 2838                                              i2l2322 2796  
                                            i2l2314 274A                                              i2l2306 26F0  
                                            i2l1452 3038                                              i2l2324 27A8  
                                            i2l2316 275C                                              i2l2308 270E  
                                            i2l2318 2774                                              i2l2326 27CC  
                                            i2l2280 301A                                              i2l2272 2FE0  
                                            i2l2328 27F0                                              i2l2360 2B18  
                                            i2l2352 2AE2                                              i2l2440 3092  
                                            i2l2600 2D9A                                              i2l2274 2FF4  
                                            i2l2282 301E                                              i2l2370 2B8E  
                                            i2l2362 2B2A                                              i2l2354 2AE6  
                                            i2l2450 30CE                                              i2l2610 2DAA  
                                            i2l2602 2D9A                                              i2l2284 339A  
                                            i2l2276 3004                                              i2l2292 260E  
                                            i2l2372 2BA2                                              i2l2364 2B3E  
                                            i2l2356 2AEE                                              i2l2452 30D0  
                                            i2l2444 3096                                              i2l2612 2DAA  
                                            i2l2604 2DAA                                              i2l2700 3288  
                                            i2l2278 3008                                              i2l2294 261E  
                                            i2l2374 2BB0                                              i2l2366 2B52  
                                            i2l2358 2AFC                                              i2l2454 30E0  
                                            i2l2446 30BA                                              i2l2470 2C06  
                                            i2l2462 2BD4                                              i2l2622 2DBE  
                                            i2l2614 2DAA                                              i2l2606 2DAA  
                                            i2l2702 32A2                                              i2l2288 33D0  
                                            i2l2296 261E                                              i2l2376 2BC4  
                                            i2l2368 2B64                                              i2l2480 2C64  
                                            i2l2472 2C14                                              i2l2464 2BE8  
                                            i2l2616 2DAA                                              i2l2608 2DAA  
                                            i2l2704 32B6                                              i2l2800 31D6  
                                            i2l2730 285E                                              i2l2298 263C  
                                            i2l2378 2BC8                                              i2l2490 2C92  
                                            i2l2482 2C76                                              i2l2474 2C1C  
                                            i2l2466 2BF0                                              i2l2458 2BCC  
                                            i2l2618 2DAE                                              i2l2706 3174  
                                            i2l2810 2FA6                                              i2l2802 31DA  
                                            i2l2740 28A8                                              i2l2732 2878  
                                            i2l2476 2C46                                              i2l2484 2C7C  
                                            i2l2468 2BFE                                              i2l2708 3186  
                                            i2l2820 2FDA                                              i2l2812 2FAE  
                                            i2l2804 2F86                                              i2l2750 28FC  
                                            i2l2742 28B6                                              i2l2734 287C  
                                            i2l2478 2C58                                              i2l2486 2C80  
                                            i2l2814 2FBE                                              i2l2806 2F88  
                                            i2l2760 293A                                              i2l2752 2900  
                                            i2l2744 28D0                                              i2l2736 288A  
                                            i2l2728 284E                                              i2l2488 2C82  
                                            i2l2592 2D58                                              i2l2816 2FD0  
                                            i2l2808 2FA2                                              i2l2770 299E  
                                            i2l2762 2954                                              i2l2754 290E  
                                            i2l2746 28D4                                              i2l2738 28A4  
                                            i2l2594 2D6C                                              i2l2818 2FD8  
                                            i2l2690 325C                                              i2l2850 2CBC  
                                            i2l2764 2964                                              i2l2756 2928  
                                            i2l2748 28E2                                              i2l2596 2D88  
                                            i2l2772 32D0                                              i2l2692 3262  
                                            i2l2684 3246                                              i2l2860 2D12  
                                            i2l2852 2CCA                                              i2l2766 2974  
                                            i2l2758 292C                                              i2l2598 2D9A  
                                            i2l2774 32E0                                              i2l2686 3256  
                                            i2l2694 3268                                              i2l2862 2D28  
                                            i2l2854 2CE0                                              i2l2768 298E  
                                            i2l2776 32F8                                              i2l2696 326C  
                                            i2l2688 3258                                              i2l2864 2D36  
                                            i2l2856 2CEE                                              i2l2848 2CAE  
                                            _INLVLA 000404                                              i2l2698 3274  
                                            i2l2794 31AE                                              i2l2858 2D04  
                                            _INLVLB 00040C                                              _INLVLC 000414  
                                            i2l2796 31B0                                              _INLVLE 000424  
                                            i2l2990 2E08                                              i2l2798 31BC  
                                            i2l2992 2DEA                                              i2l2988 2DDC  
                           ??_CAN1_OperationModeGet 0576                                              _OSCFRQ 0000B1  
                    ??_CAN1_ReceivedMessageCountGet 0503                             ??_CAN1_OperationModeSet 0576  
                                         ??_Receive 051B                         ??_CAN1_BitRateConfiguration 0576  
              __end_of_TMR1_DefaultInterruptHandler 3486               __size_of_TMR1_DefaultInterruptHandler 0002  
                      _TMR1_DefaultInterruptHandler 3484                  __size_of_DefaultSystemErrorHandler 0002  
                                            _memcpy 2FE0                                    ?_TMR0_Initialize 0501  
                                            clear_0 3106                                              clear_1 3112  
                          ??_CAN1_RX_FIFO_ResetInfo 0576           CAN1_SetModeChangeInterruptHandler@handler 0576  
           CAN1_ReceivedMessageCountGet@totalMsgObj 0503                                           ?_CAN1_ISR 0501  
                                    _PMD_Initialize 3350                                        __mediumconst 0000  
                   __size_of_DefaultBusErrorHandler 0002                                              tblptrh 0004F7  
                                            tblptrl 0004F6                                              tblptru 0004F8  
                             __end_of_TMR0_CallBack 32D0            TMR0_SetInterruptHandler@InterruptHandler 0576  
          TMR1_SetInterruptHandler@InterruptHandler 0576                             __end_of_TMR1_WriteTimer 3274  
                     __size_of_INTERRUPT_Initialize 0004                                      _GetRxFifoDepth 3398  
                             __end_of_TMR1_CallBack 32A2                                    ?_TMR1_Initialize 0501  
                                 _SYSTEM_Initialize 3378                                          __accesstop 0560  
                           __end_of__initialization 3126                                   ??_CAN1_Initialize 0579  
                              _CAN1_BusErrorHandler 0568                                  ?_SYSTEM_Initialize 0501  
                                 ??_GetRxFifoStatus 0501                                       ___rparam_used 000001  
                            _CAN1_ModeChangeHandler 0566                                      __pcstackCOMRAM 0501  
                                      __pidataBANK5 3480                                 ??_SYSTEM_Initialize 057A  
                                         ?_TMR0_ISR 0501                                           ?_TMR1_ISR 0501  
                   fp__TMR1_DefaultInterruptHandler 0000                       ?_TMR1_DefaultInterruptHandler 0501  
  __end_of_CAN1_SetRxBufferOverFlowInterruptHandler 3454   __size_of_CAN1_SetRxBufferOverFlowInterruptHandler 000A  
        ??_CAN1_SetRxBufferOverFlowInterruptHandler 0578           ?_CAN1_SetRxBufferOverFlowInterruptHandler 0576  
          _CAN1_SetRxBufferOverFlowInterruptHandler 344A                                    ??_CANReadMessage 0526  
                            __end_of_PMD_Initialize 3378                                          ??_CAN1_ISR 0501  
                             TMR0_ISR@CountCallBack 053C                           _CAN1_BitRateConfiguration 33FA  
                                Receive@rxMsgStatus 0520                __end_of_CAN1_SetFIFO1NotEmptyHandler 342C  
             __size_of_CAN1_SetFIFO1NotEmptyHandler 000A                        _CAN1_SetFIFO1NotEmptyHandler 3422  
       __end_of_CAN1_SetSystemErrorInterruptHandler 344A        __size_of_CAN1_SetSystemErrorInterruptHandler 000A  
             ??_CAN1_SetSystemErrorInterruptHandler 0578                ?_CAN1_SetSystemErrorInterruptHandler 0576  
               _CAN1_SetSystemErrorInterruptHandler 3440                              __end_of_GetRxFifoDepth 33B6  
                         __end_of_SYSTEM_Initialize 3398                                    Receive@rxFifoObj 051E  
                                        __pbssBANK5 0560                                  _DELAY_milliseconds 31E4  
                                        __pnvCOMRAM 055B                    __size_of_DefaultTxAttemptHandler 0002  
                __end_of_CAN1_TX_FIFO_Configuration 33FA                          _CAN1_TX_FIFO_Configuration 33E6  
                                           IVTBASEH 00045E                                             IVTBASEL 00045D  
                                           IVTBASEU 00045F                                 _ReadMessageFromFifo 260E  
                            _DefaultBusErrorHandler 3496                                 ?_DELAY_milliseconds 0576  
                  __end_of_TMR0_SetInterruptHandler 3422                       _CAN1_BusWakeUpActivityHandler 056A  
                                        ??_TMR0_ISR 0502                                          ??_TMR1_ISR 0503  
               CAN1_ReceivedMessageCountGet@channel 0506                                             ?_memcpy 0501  
                                         _C1NBTCFGH 000105                                           _C1NBTCFGL 000104  
                                         _C1NBTCFGT 000107                                           _C1NBTCFGU 000106  
                                   ?_PMD_Initialize 0501                     __size_of_CAN1_RX_FIFO_ResetInfo 002E  
                              ?_ReadMessageFromFifo 050C                                ??_DELAY_milliseconds 0578  
                                           _OSCCON1 0000AD                                             _OSCCON3 0000AF  
                                         _C1TXQCONH 000151                                           _C1TXQCONL 000150  
                             _CAN1_TxAttemptHandler 0562                                           _C1TXQCONT 000153  
                                         _C1TXQCONU 000152                                             _SPEAKER 3174  
                                           _OSCTUNE 0000B0                                         _C1FIFOCON1H 00015D  
                                       _C1FIFOCON1L 00015C                                         _C1FIFOCON1T 00015F  
                                       _C1FIFOCON1U 00015E                                   CAN1_Receive@index 0525  
                                           _SLRCONA 000403                       ?_CAN1_SetFIFO1NotEmptyHandler 0576  
                                           _SLRCONB 00040B                                             _SLRCONC 000413  
                                   ?_GetRxFifoDepth 0501                                    ?_TMR1_WriteTimer 0501  
                                  CANReadMessage@id 0533                                        Receive@index 0521  
                                           _Receive 2AE0                                             __Hparam 0000  
                                           __Lparam 0000                        fp__DefaultSystemErrorHandler 0000  
                                      __psmallconst 2600                    __end_of_DefaultModeChangeHandler 3492  
                                         _DLC_BYTES 2601                                             __pcinit 30E4  
                                   __size_of_memcpy 005A                                             __ramtop 2600  
                                           __ptext0 29A4                                             __ptext1 3378  
                                           __ptext2 312C                                             __ptext3 340E  
                                           __ptext4 3328                                             __ptext5 3418  
                                           __ptext6 3350                                             __ptext7 2F2A  
                                           __ptext8 33B6                                             __ptext9 347C  
                    ??_TMR1_DefaultInterruptHandler 0501                                           _T1CONbits 00031E  
                             ??_ReadMessageFromFifo 0510                               _OSCILLATOR_Initialize 33B6  
                         _CAN1_FIFO1NotEmptyHandler 0540                                          _msgReceipt 054D  
                 __size_of_TMR1_SetInterruptHandler 000A                            ??_PIN_MANAGER_Initialize 0576  
                         ?_TMR1_SetInterruptHandler 0576                                             _rxFifos 057F  
  CAN1_SetBusWakeUpActivityInterruptHandler@handler 0576                          __size_of_SYSTEM_Initialize 0020  
 __end_of_CAN1_SetBusWakeUpActivityInterruptHandler 3472  __size_of_CAN1_SetBusWakeUpActivityInterruptHandler 000A  
       ??_CAN1_SetBusWakeUpActivityInterruptHandler 0578          ?_CAN1_SetBusWakeUpActivityInterruptHandler 0576  
         _CAN1_SetBusWakeUpActivityInterruptHandler 3468                                end_of_initialization 3126  
              __size_of_DefaultFIFO1NotEmptyHandler 0002                                             memcpy@d 0507  
                                           memcpy@n 0505                                             memcpy@s 0509  
                            _CAN1_RX_FIFO_ResetInfo 3218                          GetRxFifoDepth@validChannel 0502  
                                       _C1TRECUbits 000136                      __size_of_CAN1_OperationModeGet 000A  
                    __size_of_CAN1_OperationModeSet 0098                       __end_of_CAN1_OperationModeGet 3436  
                     __end_of_CAN1_OperationModeSet 2EB0                        ??_CAN1_RX_FIFO_Configuration 0578  
                      ReadMessageFromFifo@rxFifoObj 050C                                             postdec2 0004DD  
            __end_of_DefaultRxBufferOverflowHandler 3490             __size_of_DefaultRxBufferOverflowHandler 0002  
                    _DefaultRxBufferOverflowHandler 348E                                             postinc0 0004EE  
                                           postinc2 0004DE                            _TMR0_SetInterruptHandler 3418  
                fp__DefaultBusWakeUpActivityHandler 0000             __end_of_DefaultBusWakeUpActivityHandler 3496  
          __size_of_DefaultBusWakeUpActivityHandler 0002                   ??_DefaultBusWakeUpActivityHandler 0501  
                  ?_DefaultBusWakeUpActivityHandler 0501                     _DefaultBusWakeUpActivityHandler 3494  
                                   _CAN1_Initialize 303A                                   __size_of_CAN1_ISR 0156  
                                   _GetRxFifoStatus 33CE                 __size_of_CAN1_RX_FIFO_Configuration 002A  
      __end_of_CAN1_RX_FIFO_FilterMaskConfiguration 3484       __size_of_CAN1_RX_FIFO_FilterMaskConfiguration 0002  
             ?_CAN1_RX_FIFO_FilterMaskConfiguration 0501              ??_CAN1_RX_FIFO_FilterMaskConfiguration 0576  
              _CAN1_RX_FIFO_FilterMaskConfiguration 3482                             _DefaultTxAttemptHandler 348A  
                        fp__DefaultTxAttemptHandler 0000                                         _CANDATAdata 0545  
                         fp__DefaultBusErrorHandler 0000                        __end_of_INTERRUPT_Initialize 3480  
                                 __size_of_TMR0_ISR 005A                                   __size_of_TMR1_ISR 0036  
              __end_of_CAN1_ReceivedMessageCountGet 2C96               __size_of_CAN1_ReceivedMessageCountGet 00CA  
                      _CAN1_ReceivedMessageCountGet 2BCC                                      __end_of_memcpy 303A  
                            ?_OSCILLATOR_Initialize 0501       __end_of_CAN1_ErrorNotificationInterruptEnable 2F2A  
    __size_of_CAN1_ErrorNotificationInterruptEnable 007A              ?_CAN1_ErrorNotificationInterruptEnable 0501  
           ??_CAN1_ErrorNotificationInterruptEnable 0578               _CAN1_ErrorNotificationInterruptEnable 2EB0  
                          _DefaultModeChangeHandler 3490                         fp__DefaultModeChangeHandler 0000  
                                    Receive@channel 0518                                 start_initialization 30E4  
                          __size_of_TMR0_Initialize 0028                     __size_of_PIN_MANAGER_Initialize 005C  
                                        ivt0x8_base 0008                                       ?_CAN1_RXI_ISR 0501  
                           ?_DefaultBusErrorHandler 0501          __end_of_CAN1_SetModeChangeInterruptHandler 345E  
       __size_of_CAN1_SetModeChangeInterruptHandler 000A                ??_CAN1_SetModeChangeInterruptHandler 0578  
               ?_CAN1_SetModeChangeInterruptHandler 0576                  _CAN1_SetModeChangeInterruptHandler 3454  
                       ?_CAN1_TX_FIFO_Configuration 0501                                       ?_CAN1_Receive 0522  
                          __size_of_TMR1_Initialize 0048                                    ??_PMD_Initialize 0576  
                            __size_of_TMR0_CallBack 002E                                         __pdataBANK5 057F  
                           __end_of_CAN1_Initialize 3092                                            ??_memcpy 0507  
                            __size_of_TMR1_CallBack 002E                             __end_of_GetRxFifoStatus 33E6  
                        ?_DefaultSystemErrorHandler 0501                                    ??_GetRxFifoDepth 0501  
                     ?_CAN1_ReceivedMessageCountGet 0501                               TMR1_ISR@CountCallBack 053E  
                                       __pbssCOMRAM 053C                                       __pcstackBANK5 0576  
           CAN1_SetBusErrorInterruptHandler@handler 0576                                            ?_SPEAKER 0501  
                         ??_DefaultTxAttemptHandler 0501                                      ??_CAN1_RXI_ISR 0538  
                    __end_of_DefaultBusErrorHandler 3498                  __end_of_CAN1_RX_FIFO_Configuration 3328  
                        _CAN1_RX_FIFO_Configuration 32FE                               _TMR0_InterruptHandler 057B  
                                    ??_CAN1_Receive 0524                                           __pnvBANK5 057B  
                                          ?_Receive 0518                              _PIN_MANAGER_Initialize 2F2A  
                                          _C1FIFOBA 00014C                    __end_of_TMR1_SetInterruptHandler 3418  
                                         _ucASState 0542                        ??_INTERRUPT_InterruptManager 0538  
                      ?_DefaultFIFO1NotEmptyHandler 0501                CAN1_ReceivedMessageCountGet@fifoHead 0509  
                                    _ucSpeakerCount 0543                                            _CAN1_ISR 284E  
                 __end_of_DefaultSystemErrorHandler 348E                CAN1_ReceivedMessageCountGet@fifoTail 0508  
                                       __smallconst 2600                                          _C1CONHbits 000101  
                  CAN1_OperationModeSet@requestMode 0578                                            _CANRXPPS 00023D  
                                        _C1CONTbits 000103                                          _C1CONUbits 000102  
                       __size_of_DELAY_milliseconds 0034                      ??_DefaultInvalidMessageHandler 0501  
                           ?_CAN1_RX_FIFO_ResetInfo 0501                             __size_of_CANReadMessage 00C0  
                                     _TMR0_CallBack 32A2                                          _C1INTHbits 00011D  
                                        _C1INTLbits 00011C                                _INTERRUPT_Initialize 347C  
                                        _C1INTTbits 00011F                                          _C1INTUbits 00011E  
                                     _TMR1_CallBack 3274                CAN1_ReceivedMessageCountGet@numOfMsg 0504  
                                 ??_TMR0_Initialize 0578                                            _LATBbits 0004BF  
                                          _LATCbits 0004C0                                            _PIE0bits 00049E  
                                          _PIE3bits 0004A1                                            _PIE4bits 0004A2  
                          __size_of_TMR1_WriteTimer 002E                                            i2u121_40 2678  
                                          i2u120_48 2650                                            i2u121_41 2670  
                                          i2u130_40 2AFC                                            i2u210_40 2D36  
                                          i2u130_41 2AF8                                            i2u210_41 2D32  
                                          i2u123_40 26A4                                            i2u122_48 267A  
                                          i2u131_40 2B2A                                            i2u203_40 2CBC  
                                          i2u123_41 269C                                            i2u131_41 2B26  
                                          i2u203_41 2CB8                                            i2u132_40 2B8E  
                                          i2u140_40 30CA                                            i2u204_40 2CCA  
                                          i2u132_41 2B8A                                            i2u140_41 30C6  
                                          i2u204_41 2CC6                                            i2u125_40 26D2  
                                          i2u124_48 26A6                                            i2u133_40 2BB0  
                                          i2u141_40 30E0                                            i2u205_40 2CE0  
                                          i2u125_41 26CA                                            i2u133_41 2BAC  
                                          i2u141_41 30DC                                            i2u205_41 2CDC  
                                          i2u118_40 3038                                            i2u142_40 2BFE  
                                          i2u206_40 2CEE                                            i2u118_41 3034  
                                          i2u142_41 2BFA                                            i2u206_41 2CEA  
                                          i2u127_40 274A                                            i2u126_48 26D4  
                                          i2u119_40 264E                                            i2u143_40 2C14  
                                          i2u207_40 2D04                                            i2u127_41 2746  
                                          i2u119_41 2646                                            i2u143_41 2C10  
                                          i2u207_41 2D00                 __size_of_INTERRUPT_InterruptManager 00C2  
                                          i2u144_40 2C58                                            i2u208_40 2D12  
                                          i2u144_41 2C54                                            i2u208_41 2D0E  
                                          i2u128_45 274C                                            i2u145_40 2C76  
                                          i2u209_40 2D28                                            i2u145_41 2C72  
                                          i2u209_41 2D24                                            i2u129_45 2798  
                                          i2u146_40 2C92                                            i2u146_41 2C8E  
                                          i2u171_40 32B6                                            i2u170_48 328E  
                                          i2u171_41 32B2                                            i2u170_49 32A0  
                                          i2u180_40 288A                                            i2u180_41 2886  
                                          i2u173_40 3186                                            i2u172_48 32BC  
                        ??_TMR0_SetInterruptHandler 0578                                            i2u173_41 3182  
                                          i2u172_49 32CE                                            i2u190_40 2964  
                                          i2u182_40 28B6                                            i2u181_48 2890  
                                          i2u166_40 2D6C                                            i2u174_40 3196  
                                          i2u190_41 2960                                            i2u182_41 28B2  
                                          i2u181_49 28A4                                            i2u166_41 2D68  
                                          i2u174_41 3190                                            i2u174_46 3198  
                                          i2u191_40 2974                                            i2u167_40 2D88  
                                          i2u191_41 2970                                            i2u167_41 2D84  
                                          _PIR0bits 0004AE                                            i2u184_40 28E2  
                                          i2u183_48 28BC                                            i2u168_40 3256  
                                          i2u184_41 28DE                                            i2u183_49 28D0  
                                          i2u168_41 3252                                            i2u193_40 299E  
                                          i2u192_48 297A                                            i2u169_40 3288  
                                          i2u193_41 299A                                            i2u192_49 298E  
                                          i2u169_41 3284                                            i2u186_40 290E  
                                          i2u185_48 28E8                                            i2u178_40 285E  
                                          i2u194_40 32E0                                            i2u186_41 290A  
                                          i2u185_49 28FC                                            i2u178_41 285A  
                                          i2u194_41 32DC                                           _rxMsgData 056E  
                                          i2u188_40 293A                                            i2u187_48 2914  
                                          i2u179_48 2864                                            i2u195_48 32E6  
                                          i2u196_40 31D6                                            i2u188_41 2936  
                                          i2u187_49 2928                                            i2u179_49 2878  
                                          i2u195_49 32F8                                            i2u196_41 31D2  
                                          i2u197_40 2FA2                                            i2u197_41 2F9E  
                                          _PIR3bits 0004B1                                            i2u189_48 2940  
                                          i2u198_40 2FBE                                            i2u189_49 2954  
                                          i2u198_41 2FBA                                            i2u199_40 2FD0  
                                          i2u199_41 2FCC                                            _PIR4bits 0004B2  
                    DELAY_milliseconds@milliseconds 0576                                            _TMR0_ISR 2F86  
                                          _TMR1_ISR 31AE                         __end_of_ReadMessageFromFifo 284E  
                                  ?_CAN1_Initialize 0501                                  CAN1_Receive@status 0524  
                                 ??_TMR1_Initialize 0578                                    ?_GetRxFifoStatus 0501  
                     ??_DefaultFIFO1NotEmptyHandler 0501                      __end_of_CAN1_RX_FIFO_ResetInfo 3246  
                                    ?_TMR0_CallBack 0501                                    __size_of_SPEAKER 003A  
                                       _INTCON0bits 0004D6                               ?_INTERRUPT_Initialize 0501  
                                    ?_TMR1_CallBack 0501                              _ucFlagEmergencySpeaker 0544  
                                     Receive@status 051D                                            __Hrparam 0000  
                                  __size_of_Receive 00EC                                           memcpy@tmp 050B  
                             _CAN1_OperationModeGet 342C                                            __Lrparam 0000  
                             _CAN1_OperationModeSet 2E18                             _CAN1_SystemErrorHandler 0564  
                        ??_DefaultModeChangeHandler 0501                             ??_OSCILLATOR_Initialize 0576  
                              __end_of_CAN1_RXI_ISR 32FE                            _TMR1_SetInterruptHandler 340E  
                             _TMR1_InterruptHandler 057D                                __end_of_CAN1_Receive 30E4  
                                        _T0CON0bits 00031A                                            __pivt0x8 0008  
                                          __ptext10 303A                                            __ptext11 33E6  
                                          __ptext20 3440                                            __ptext12 3218  
                                          __ptext21 344A                                            __ptext13 3482  
                                        _T1GCONbits 00031F                                            __ptext30 3246  
                                          __ptext22 3454                                            __ptext14 32FE  
                                          __ptext31 3274                                            __ptext23 345E  
                                          __ptext15 3422                                            __ptext40 2BCC  
                                          __ptext32 3484                                            __ptext24 3468  
                                          __ptext16 2E18                                            __ptext41 3092  
                                          __ptext33 2F86                                            __ptext25 3472  
                                          __ptext17 342C                                            __ptext50 348E  
                                          __ptext42 2AE0                                            __ptext34 32A2  
                                          __ptext26 33FA                                            __ptext18 2EB0  
                                          __ptext51 3490                                            __ptext43 260E  
                                          __ptext35 3486                                            __ptext27 31E4  
                                          __ptext19 3436                                            __ptext52 3492  
                                          __ptext44 2FE0                                            __ptext36 3174  
                                          __ptext28 2C96                                            __ptext53 3494  
                                          __ptext45 33CE                                            __ptext37 32D0  
                                          __ptext29 31AE                                            __ptext54 3496  
                                          __ptext46 3398                                            __ptext38 3488  
                                          __ptext55 0000                                            __ptext47 284E  
                                          __ptext39 2D58                                            __ptext48 348A  
                                          __ptext49 348C                         CAN1_OperationModeSet@opMode 0576  
                         ReadMessageFromFifo@status 0517                         CAN1_OperationModeSet@status 0577  
                                     __size_of_main 013C                __end_of_TMR0_DefaultInterruptHandler 3488  
             __size_of_TMR0_DefaultInterruptHandler 0002                        _TMR0_DefaultInterruptHandler 3486  
                __end_of_INTERRUPT_InterruptManager 2D58                          _INTERRUPT_InterruptManager 2C96  
                                       _msgTransmit 0554                                   ??_TMR1_WriteTimer 0503  
                       ??_DefaultSystemErrorHandler 0501                                     ??_TMR0_CallBack 0501  
                      _CAN1_RxBufferOverflowHandler 0560                                            memcpy@d1 0501  
                                          memcpy@s1 0503                              ??_INTERRUPT_Initialize 0576  
                                    _CANReadMessage 2D58                                     ??_TMR1_CallBack 0501  
                                          intlevel2 0000                                       _C1TXQSTALbits 000154  
                           ?_PIN_MANAGER_Initialize 0501                         ?_CAN1_RX_FIFO_Configuration 0501  
                __size_of_CAN1_BitRateConfiguration 0014                      ??_CAN1_SetFIFO1NotEmptyHandler 0578  
                            ?_CAN1_OperationModeGet 0501                          ?_CAN1_BitRateConfiguration 0501  
                            ?_CAN1_OperationModeSet 0501                     fp__TMR0_DefaultInterruptHandler 0000  
                     ?_TMR0_DefaultInterruptHandler 0501                         ReadMessageFromFifo@rxCanMsg 050E  
                                   _TMR0_Initialize 3328                              __end_of_CANReadMessage 2E18  
                              CAN1_Receive@rxCanMsg 0522               CAN1_ReceivedMessageCountGet@fifoDepth 0507  
   CAN1_SetRxBufferOverFlowInterruptHandler@handler 0576                                     _C1FIFOSTA1Lbits 000160  
                    __end_of_PIN_MANAGER_Initialize 2F86                      fp__DefaultFIFO1NotEmptyHandler 0000  
                         _DefaultSystemErrorHandler 348C                                     _TMR1_Initialize 312C  
                             __size_of_CAN1_RXI_ISR 002E                   __end_of_CAN1_BitRateConfiguration 340E  
